(lp0
ccopy_reg
_reconstructor
p1
(csts.dataplane_traces.trace
DataplaneEvent
p2
c__builtin__
object
p3
Ntp4
Rp5
(dp6
S'interface'
p7
g1
(csts.entities
HostInterface
p8
g3
Ntp9
Rp10
(dp11
S'hw_addr'
p12
g1
(cpox.lib.addresses
EthAddr
p13
g3
Ntp14
Rp15
(dp16
S'value'
p17
S'\x124Vx\x01\x04'
p18
sbsS'ips'
p19
(lp20
g1
(cpox.lib.addresses
IPAddr
p21
g3
Ntp22
Rp23
(dp24
g17
I67206011
sbasS'name'
p25
S'eth1'
p26
sbsS'packet'
p27
g1
(cpox.lib.packet.ethernet
ethernet
p28
g3
Ntp29
Rp30
(dp31
S'src'
p32
g15
sS'dst'
p33
g15
sS'next'
p34
g1
(cpox.lib.packet.ipv4
ipv4
p35
g3
Ntp36
Rp37
(dp38
S'frag'
p39
I0
sS'csum'
p40
I34244
sS'dstip'
p41
g23
sS'protocol'
p42
I1
sS'srcip'
p43
g23
sS'tos'
p44
I0
sS'ttl'
p45
I64
sS'iplen'
p46
I72
sg34
g1
(cpox.lib.packet.icmp
icmp
p47
g3
Ntp48
Rp49
(dp50
S'code'
p51
I0
sg40
I1591
sS'prev'
p52
g37
sS'type'
p53
I8
sg34
S'PingPingPingPingPingPingPingPingPingPingPingPing'
p54
sbsS'raw'
p55
NsS'flags'
p56
I0
sS'hl'
p57
I5
sS'v'
p58
I4
sS'id'
p59
I64498
sg52
g30
sS'parsed'
p60
I00
sbsg55
Nsg52
Nsg53
I2048
sg60
I00
sbsbag1
(g2
g3
Ntp61
Rp62
(dp63
g7
g1
(g8
g3
Ntp64
Rp65
(dp66
g12
g1
(g13
g3
Ntp67
Rp68
(dp69
g17
S'\x124Vx\x02\x04'
p70
sbsg19
(lp71
g1
(g21
g3
Ntp72
Rp73
(dp74
g17
I67271547
sbasg25
S'eth2'
p75
sbsg27
g1
(g28
g3
Ntp76
Rp77
(dp78
g32
g68
sg33
g68
sg34
g1
(g35
g3
Ntp79
Rp80
(dp81
g39
I0
sg40
I33731
sg41
g73
sg42
I1
sg43
g73
sg44
I0
sg45
I64
sg46
I72
sg34
g1
(g47
g3
Ntp82
Rp83
(dp84
g51
I0
sg40
I3639
sg52
g80
sg53
I0
sg34
S'PingPingPingPingPingPingPingPingPingPingPingPing'
p85
sbsg55
Nsg56
I0
sg57
I5
sg58
I4
sg59
I64499
sg52
g77
sg60
I00
sbsg55
Nsg52
Nsg53
I2048
sg60
I00
sbsbag1
(g2
g3
Ntp86
Rp87
(dp88
g7
g1
(g8
g3
Ntp89
Rp90
(dp91
g12
g1
(g13
g3
Ntp92
Rp93
(dp94
g17
S'\x124Vx\x03\x04'
p95
sbsg19
(lp96
g1
(g21
g3
Ntp97
Rp98
(dp99
g17
I67337083
sbasg25
S'eth3'
p100
sbsg27
g1
(g28
g3
Ntp101
Rp102
(dp103
g32
g93
sg33
g93
sg34
g1
(g35
g3
Ntp104
Rp105
(dp106
g39
I0
sg40
I33218
sg41
g98
sg42
I1
sg43
g98
sg44
I0
sg45
I64
sg46
I72
sg34
g1
(g47
g3
Ntp107
Rp108
(dp109
g51
I0
sg40
I3639
sg52
g105
sg53
I0
sg34
S'PingPingPingPingPingPingPingPingPingPingPingPing'
p110
sbsg55
Nsg56
I0
sg57
I5
sg58
I4
sg59
I64500
sg52
g102
sg60
I00
sbsg55
Nsg52
Nsg53
I2048
sg60
I00
sbsbag1
(g2
g3
Ntp111
Rp112
(dp113
g7
g1
(g8
g3
Ntp114
Rp115
(dp116
g12
g1
(g13
g3
Ntp117
Rp118
(dp119
g17
S'\x124Vx\x04\x04'
p120
sbsg19
(lp121
g1
(g21
g3
Ntp122
Rp123
(dp124
g17
I67402619
sbasg25
S'eth4'
p125
sbsg27
g1
(g28
g3
Ntp126
Rp127
(dp128
g32
g118
sg33
g118
sg34
g1
(g35
g3
Ntp129
Rp130
(dp131
g39
I0
sg40
I32705
sg41
g123
sg42
I1
sg43
g123
sg44
I0
sg45
I64
sg46
I72
sg34
g1
(g47
g3
Ntp132
Rp133
(dp134
g51
I0
sg40
I3639
sg52
g130
sg53
I0
sg34
S'PingPingPingPingPingPingPingPingPingPingPingPing'
p135
sbsg55
Nsg56
I0
sg57
I5
sg58
I4
sg59
I64501
sg52
g127
sg60
I00
sbsg55
Nsg52
Nsg53
I2048
sg60
I00
sbsbag1
(g2
g3
Ntp136
Rp137
(dp138
g7
g10
sg27
g1
(g28
g3
Ntp139
Rp140
(dp141
g32
g15
sg33
g68
sg34
g1
(g35
g3
Ntp142
Rp143
(dp144
g39
I0
sg40
I33984
sg41
g73
sg42
I1
sg43
g23
sg44
I0
sg45
I64
sg46
I72
sg34
g1
(g47
g3
Ntp145
Rp146
(dp147
g51
I0
sg40
I1591
sg52
g143
sg53
I8
sg34
S'PingPingPingPingPingPingPingPingPingPingPingPing'
p148
sbsg55
Nsg56
I0
sg57
I5
sg58
I4
sg59
I64502
sg52
g140
sg60
I00
sbsg55
Nsg52
Nsg53
I2048
sg60
I00
sbsbag1
(g2
g3
Ntp149
Rp150
(dp151
g7
g65
sg27
g1
(g28
g3
Ntp152
Rp153
(dp154
g32
g68
sg33
g15
sg34
g1
(g35
g3
Ntp155
Rp156
(dp157
g39
I0
sg40
I33983
sg41
g23
sg42
I1
sg43
g73
sg44
I0
sg45
I64
sg46
I72
sg34
g1
(g47
g3
Ntp158
Rp159
(dp160
g51
I0
sg40
I3639
sg52
g156
sg53
I0
sg34
S'PingPingPingPingPingPingPingPingPingPingPingPing'
p161
sbsg55
Nsg56
I0
sg57
I5
sg58
I4
sg59
I64503
sg52
g153
sg60
I00
sbsg55
Nsg52
Nsg53
I2048
sg60
I00
sbsbag1
(g2
g3
Ntp162
Rp163
(dp164
g7
g90
sg27
g1
(g28
g3
Ntp165
Rp166
(dp167
g32
g93
sg33
g15
sg34
g1
(g35
g3
Ntp168
Rp169
(dp170
g39
I0
sg40
I33726
sg41
g23
sg42
I1
sg43
g98
sg44
I0
sg45
I64
sg46
I72
sg34
g1
(g47
g3
Ntp171
Rp172
(dp173
g51
I0
sg40
I3639
sg52
g169
sg53
I0
sg34
S'PingPingPingPingPingPingPingPingPingPingPingPing'
p174
sbsg55
Nsg56
I0
sg57
I5
sg58
I4
sg59
I64504
sg52
g166
sg60
I00
sbsg55
Nsg52
Nsg53
I2048
sg60
I00
sbsbag1
(g2
g3
Ntp175
Rp176
(dp177
g7
g115
sg27
g1
(g28
g3
Ntp178
Rp179
(dp180
g32
g118
sg33
g15
sg34
g1
(g35
g3
Ntp181
Rp182
(dp183
g39
I0
sg40
I33469
sg41
g23
sg42
I1
sg43
g123
sg44
I0
sg45
I64
sg46
I72
sg34
g1
(g47
g3
Ntp184
Rp185
(dp186
g51
I0
sg40
I3639
sg52
g182
sg53
I0
sg34
S'PingPingPingPingPingPingPingPingPingPingPingPing'
p187
sbsg55
Nsg56
I0
sg57
I5
sg58
I4
sg59
I64505
sg52
g179
sg60
I00
sbsg55
Nsg52
Nsg53
I2048
sg60
I00
sbsbag1
(g2
g3
Ntp188
Rp189
(dp190
g7
g10
sg27
g1
(g28
g3
Ntp191
Rp192
(dp193
g32
g15
sg33
g93
sg34
g1
(g35
g3
Ntp194
Rp195
(dp196
g39
I0
sg40
I33724
sg41
g98
sg42
I1
sg43
g23
sg44
I0
sg45
I64
sg46
I72
sg34
g1
(g47
g3
Ntp197
Rp198
(dp199
g51
I0
sg40
I3639
sg52
g195
sg53
I0
sg34
S'PingPingPingPingPingPingPingPingPingPingPingPing'
p200
sbsg55
Nsg56
I0
sg57
I5
sg58
I4
sg59
I64506
sg52
g192
sg60
I00
sbsg55
Nsg52
Nsg53
I2048
sg60
I00
sbsbag1
(g2
g3
Ntp201
Rp202
(dp203
g7
g65
sg27
g1
(g28
g3
Ntp204
Rp205
(dp206
g32
g68
sg33
g93
sg34
g1
(g35
g3
Ntp207
Rp208
(dp209
g39
I0
sg40
I33467
sg41
g98
sg42
I1
sg43
g73
sg44
I0
sg45
I64
sg46
I72
sg34
g1
(g47
g3
Ntp210
Rp211
(dp212
g51
I0
sg40
I1591
sg52
g208
sg53
I8
sg34
S'PingPingPingPingPingPingPingPingPingPingPingPing'
p213
sbsg55
Nsg56
I0
sg57
I5
sg58
I4
sg59
I64507
sg52
g205
sg60
I00
sbsg55
Nsg52
Nsg53
I2048
sg60
I00
sbsbag1
(g2
g3
Ntp214
Rp215
(dp216
g7
g90
sg27
g1
(g28
g3
Ntp217
Rp218
(dp219
g32
g93
sg33
g68
sg34
g1
(g35
g3
Ntp220
Rp221
(dp222
g39
I0
sg40
I33466
sg41
g73
sg42
I1
sg43
g98
sg44
I0
sg45
I64
sg46
I72
sg34
g1
(g47
g3
Ntp223
Rp224
(dp225
g51
I0
sg40
I3639
sg52
g221
sg53
I0
sg34
S'PingPingPingPingPingPingPingPingPingPingPingPing'
p226
sbsg55
Nsg56
I0
sg57
I5
sg58
I4
sg59
I64508
sg52
g218
sg60
I00
sbsg55
Nsg52
Nsg53
I2048
sg60
I00
sbsbag1
(g2
g3
Ntp227
Rp228
(dp229
g7
g115
sg27
g1
(g28
g3
Ntp230
Rp231
(dp232
g32
g118
sg33
g68
sg34
g1
(g35
g3
Ntp233
Rp234
(dp235
g39
I0
sg40
I33209
sg41
g73
sg42
I1
sg43
g123
sg44
I0
sg45
I64
sg46
I72
sg34
g1
(g47
g3
Ntp236
Rp237
(dp238
g51
I0
sg40
I3639
sg52
g234
sg53
I0
sg34
S'PingPingPingPingPingPingPingPingPingPingPingPing'
p239
sbsg55
Nsg56
I0
sg57
I5
sg58
I4
sg59
I64509
sg52
g231
sg60
I00
sbsg55
Nsg52
Nsg53
I2048
sg60
I00
sbsbag1
(g2
g3
Ntp240
Rp241
(dp242
g7
g10
sg27
g1
(g28
g3
Ntp243
Rp244
(dp245
g32
g15
sg33
g118
sg34
g1
(g35
g3
Ntp246
Rp247
(dp248
g39
I0
sg40
I33464
sg41
g123
sg42
I1
sg43
g23
sg44
I0
sg45
I64
sg46
I72
sg34
g1
(g47
g3
Ntp249
Rp250
(dp251
g51
I0
sg40
I1591
sg52
g247
sg53
I8
sg34
S'PingPingPingPingPingPingPingPingPingPingPingPing'
p252
sbsg55
Nsg56
I0
sg57
I5
sg58
I4
sg59
I64510
sg52
g244
sg60
I00
sbsg55
Nsg52
Nsg53
I2048
sg60
I00
sbsbag1
(g2
g3
Ntp253
Rp254
(dp255
g7
g65
sg27
g1
(g28
g3
Ntp256
Rp257
(dp258
g32
g68
sg33
g118
sg34
g1
(g35
g3
Ntp259
Rp260
(dp261
g39
I0
sg40
I33207
sg41
g123
sg42
I1
sg43
g73
sg44
I0
sg45
I64
sg46
I72
sg34
g1
(g47
g3
Ntp262
Rp263
(dp264
g51
I0
sg40
I1591
sg52
g260
sg53
I8
sg34
S'PingPingPingPingPingPingPingPingPingPingPingPing'
p265
sbsg55
Nsg56
I0
sg57
I5
sg58
I4
sg59
I64511
sg52
g257
sg60
I00
sbsg55
Nsg52
Nsg53
I2048
sg60
I00
sbsbag1
(g2
g3
Ntp266
Rp267
(dp268
g7
g90
sg27
g1
(g28
g3
Ntp269
Rp270
(dp271
g32
g93
sg33
g118
sg34
g1
(g35
g3
Ntp272
Rp273
(dp274
g39
I0
sg40
I32950
sg41
g123
sg42
I1
sg43
g98
sg44
I0
sg45
I64
sg46
I72
sg34
g1
(g47
g3
Ntp275
Rp276
(dp277
g51
I0
sg40
I3639
sg52
g273
sg53
I0
sg34
S'PingPingPingPingPingPingPingPingPingPingPingPing'
p278
sbsg55
Nsg56
I0
sg57
I5
sg58
I4
sg59
I64512
sg52
g270
sg60
I00
sbsg55
Nsg52
Nsg53
I2048
sg60
I00
sbsbag1
(g2
g3
Ntp279
Rp280
(dp281
g7
g115
sg27
g1
(g28
g3
Ntp282
Rp283
(dp284
g32
g118
sg33
g93
sg34
g1
(g35
g3
Ntp285
Rp286
(dp287
g39
I0
sg40
I32949
sg41
g98
sg42
I1
sg43
g123
sg44
I0
sg45
I64
sg46
I72
sg34
g1
(g47
g3
Ntp288
Rp289
(dp290
g51
I0
sg40
I3639
sg52
g286
sg53
I0
sg34
S'PingPingPingPingPingPingPingPingPingPingPingPing'
p291
sbsg55
Nsg56
I0
sg57
I5
sg58
I4
sg59
I64513
sg52
g283
sg60
I00
sbsg55
Nsg52
Nsg53
I2048
sg60
I00
sbsbag1
(g2
g3
Ntp292
Rp293
(dp294
g7
g10
sg27
g1
(g28
g3
Ntp295
Rp296
(dp297
g32
g15
sg33
g68
sg34
g1
(g35
g3
Ntp298
Rp299
(dp300
g39
I0
sg40
I33972
sg41
g73
sg42
I1
sg43
g23
sg44
I0
sg45
I64
sg46
I72
sg34
g1
(g47
g3
Ntp301
Rp302
(dp303
g51
I0
sg40
I3639
sg52
g299
sg53
I0
sg34
S'PingPingPingPingPingPingPingPingPingPingPingPing'
p304
sbsg55
Nsg56
I0
sg57
I5
sg58
I4
sg59
I64514
sg52
g296
sg60
I00
sbsg55
Nsg52
Nsg53
I2048
sg60
I00
sbsbag1
(g2
g3
Ntp305
Rp306
(dp307
g7
g65
sg27
g1
(g28
g3
Ntp308
Rp309
(dp310
g32
g68
sg33
g15
sg34
g1
(g35
g3
Ntp311
Rp312
(dp313
g39
I0
sg40
I33971
sg41
g23
sg42
I1
sg43
g73
sg44
I0
sg45
I64
sg46
I72
sg34
g1
(g47
g3
Ntp314
Rp315
(dp316
g51
I0
sg40
I3639
sg52
g312
sg53
I0
sg34
S'PingPingPingPingPingPingPingPingPingPingPingPing'
p317
sbsg55
Nsg56
I0
sg57
I5
sg58
I4
sg59
I64515
sg52
g309
sg60
I00
sbsg55
Nsg52
Nsg53
I2048
sg60
I00
sbsbag1
(g2
g3
Ntp318
Rp319
(dp320
g7
g90
sg27
g1
(g28
g3
Ntp321
Rp322
(dp323
g32
g93
sg33
g15
sg34
g1
(g35
g3
Ntp324
Rp325
(dp326
g39
I0
sg40
I33714
sg41
g23
sg42
I1
sg43
g98
sg44
I0
sg45
I64
sg46
I72
sg34
g1
(g47
g3
Ntp327
Rp328
(dp329
g51
I0
sg40
I1591
sg52
g325
sg53
I8
sg34
S'PingPingPingPingPingPingPingPingPingPingPingPing'
p330
sbsg55
Nsg56
I0
sg57
I5
sg58
I4
sg59
I64516
sg52
g322
sg60
I00
sbsg55
Nsg52
Nsg53
I2048
sg60
I00
sbsbag1
(g2
g3
Ntp331
Rp332
(dp333
g7
g115
sg27
g1
(g28
g3
Ntp334
Rp335
(dp336
g32
g118
sg33
g15
sg34
g1
(g35
g3
Ntp337
Rp338
(dp339
g39
I0
sg40
I33457
sg41
g23
sg42
I1
sg43
g123
sg44
I0
sg45
I64
sg46
I72
sg34
g1
(g47
g3
Ntp340
Rp341
(dp342
g51
I0
sg40
I1591
sg52
g338
sg53
I8
sg34
S'PingPingPingPingPingPingPingPingPingPingPingPing'
p343
sbsg55
Nsg56
I0
sg57
I5
sg58
I4
sg59
I64517
sg52
g335
sg60
I00
sbsg55
Nsg52
Nsg53
I2048
sg60
I00
sbsbag1
(g2
g3
Ntp344
Rp345
(dp346
g7
g10
sg27
g1
(g28
g3
Ntp347
Rp348
(dp349
g32
g15
sg33
g93
sg34
g1
(g35
g3
Ntp350
Rp351
(dp352
g39
I0
sg40
I33712
sg41
g98
sg42
I1
sg43
g23
sg44
I0
sg45
I64
sg46
I72
sg34
g1
(g47
g3
Ntp353
Rp354
(dp355
g51
I0
sg40
I1591
sg52
g351
sg53
I8
sg34
S'PingPingPingPingPingPingPingPingPingPingPingPing'
p356
sbsg55
Nsg56
I0
sg57
I5
sg58
I4
sg59
I64518
sg52
g348
sg60
I00
sbsg55
Nsg52
Nsg53
I2048
sg60
I00
sbsbag1
(g2
g3
Ntp357
Rp358
(dp359
g7
g65
sg27
g1
(g28
g3
Ntp360
Rp361
(dp362
g32
g68
sg33
g93
sg34
g1
(g35
g3
Ntp363
Rp364
(dp365
g39
I0
sg40
I33455
sg41
g98
sg42
I1
sg43
g73
sg44
I0
sg45
I64
sg46
I72
sg34
g1
(g47
g3
Ntp366
Rp367
(dp368
g51
I0
sg40
I1591
sg52
g364
sg53
I8
sg34
S'PingPingPingPingPingPingPingPingPingPingPingPing'
p369
sbsg55
Nsg56
I0
sg57
I5
sg58
I4
sg59
I64519
sg52
g361
sg60
I00
sbsg55
Nsg52
Nsg53
I2048
sg60
I00
sbsbag1
(g2
g3
Ntp370
Rp371
(dp372
g7
g90
sg27
g1
(g28
g3
Ntp373
Rp374
(dp375
g32
g93
sg33
g68
sg34
g1
(g35
g3
Ntp376
Rp377
(dp378
g39
I0
sg40
I33454
sg41
g73
sg42
I1
sg43
g98
sg44
I0
sg45
I64
sg46
I72
sg34
g1
(g47
g3
Ntp379
Rp380
(dp381
g51
I0
sg40
I3639
sg52
g377
sg53
I0
sg34
S'PingPingPingPingPingPingPingPingPingPingPingPing'
p382
sbsg55
Nsg56
I0
sg57
I5
sg58
I4
sg59
I64520
sg52
g374
sg60
I00
sbsg55
Nsg52
Nsg53
I2048
sg60
I00
sbsbag1
(g2
g3
Ntp383
Rp384
(dp385
g7
g115
sg27
g1
(g28
g3
Ntp386
Rp387
(dp388
g32
g118
sg33
g68
sg34
g1
(g35
g3
Ntp389
Rp390
(dp391
g39
I0
sg40
I33197
sg41
g73
sg42
I1
sg43
g123
sg44
I0
sg45
I64
sg46
I72
sg34
g1
(g47
g3
Ntp392
Rp393
(dp394
g51
I0
sg40
I1591
sg52
g390
sg53
I8
sg34
S'PingPingPingPingPingPingPingPingPingPingPingPing'
p395
sbsg55
Nsg56
I0
sg57
I5
sg58
I4
sg59
I64521
sg52
g387
sg60
I00
sbsg55
Nsg52
Nsg53
I2048
sg60
I00
sbsbag1
(g2
g3
Ntp396
Rp397
(dp398
g7
g10
sg27
g1
(g28
g3
Ntp399
Rp400
(dp401
g32
g15
sg33
g15
sg34
g1
(g35
g3
Ntp402
Rp403
(dp404
g39
I0
sg40
I34220
sg41
g23
sg42
I1
sg43
g23
sg44
I0
sg45
I64
sg46
I72
sg34
g1
(g47
g3
Ntp405
Rp406
(dp407
g51
I0
sg40
I3639
sg52
g403
sg53
I0
sg34
S'PingPingPingPingPingPingPingPingPingPingPingPing'
p408
sbsg55
Nsg56
I0
sg57
I5
sg58
I4
sg59
I64522
sg52
g400
sg60
I00
sbsg55
Nsg52
Nsg53
I2048
sg60
I00
sbsba.