(lp0
ccopy_reg
_reconstructor
p1
(csts.dataplane_traces.trace
DataplaneEvent
p2
c__builtin__
object
p3
Ntp4
Rp5
(dp6
S'interface'
p7
g1
(csts.entities
HostInterface
p8
g3
Ntp9
Rp10
(dp11
S'hw_addr'
p12
g1
(cpox.lib.addresses
EthAddr
p13
g3
Ntp14
Rp15
(dp16
S'value'
p17
S'\x124Vx\x02\x02'
p18
sbsS'ips'
p19
(lp20
g1
(cpox.lib.addresses
IPAddr
p21
g3
Ntp22
Rp23
(dp24
g17
I33717115
sbasS'name'
p25
S'eth2'
p26
sbsS'packet'
p27
g1
(cpox.lib.packet.ethernet
ethernet
p28
g3
Ntp29
Rp30
(dp31
S'src'
p32
g15
sS'dst'
p33
g1
(g13
g3
Ntp34
Rp35
(dp36
g17
S'\xff\xff\xff\xff\xff\xff'
p37
sbsS'next'
p38
g1
(cpox.lib.packet.arp
arp
p39
g3
Ntp40
Rp41
(dp42
S'protodst'
p43
g1
(g21
g3
Ntp44
Rp45
(dp46
g17
I33651579
sbsS'hwtype'
p47
I1
sS'hwdst'
p48
g1
(g13
g3
Ntp49
Rp50
(dp51
g17
S'\x00\x00\x00\x00\x00\x00'
p52
sbsS'protosrc'
p53
g23
sg38
S''
p54
sS'raw'
p55
NsS'opcode'
p56
I1
sS'protolen'
p57
I4
sS'prev'
p58
g30
sS'hwlen'
p59
I6
sS'prototype'
p60
I2048
sS'parsed'
p61
I00
sS'hwsrc'
p62
g15
sbsg55
Nsg58
NsS'type'
p63
I2054
sg61
I00
sbsbag1
(g2
g3
Ntp64
Rp65
(dp66
g7
g1
(g8
g3
Ntp67
Rp68
(dp69
g12
g1
(g13
g3
Ntp70
Rp71
(dp72
g17
S'\x124Vx\x01\x02'
p73
sbsg19
(lp74
g45
asg25
S'eth1'
p75
sbsg27
g1
(g28
g3
Ntp76
Rp77
(dp78
g32
g71
sg33
g15
sg38
g1
(g39
g3
Ntp79
Rp80
(dp81
g43
g23
sg47
I1
sg48
g15
sg53
g45
sg38
g54
sg55
Nsg56
I2
sg57
I4
sg58
g77
sg59
I6
sg60
I2048
sg61
I00
sg62
g71
sbsg55
Nsg58
Nsg63
I2054
sg61
I00
sbsbag1
(g2
g3
Ntp82
Rp83
(dp84
g7
g10
sg27
g1
(g28
g3
Ntp85
Rp86
(dp87
g32
g15
sg33
g71
sg38
g1
(cpox.lib.packet.ipv4
ipv4
p88
g3
Ntp89
Rp90
(dp91
S'frag'
p92
I0
sS'csum'
p93
I24511
sS'dstip'
p94
g45
sS'protocol'
p95
I1
sS'tos'
p96
I0
sS'id'
p97
I8488
sS'ttl'
p98
I64
sS'iplen'
p99
I28
sg38
g1
(cpox.lib.packet.icmp
icmp
p100
g3
Ntp101
Rp102
(dp103
g93
I6447
sg38
S'ping'
p104
sg58
g90
sg63
I8
sS'code'
p105
I0
sbsg55
NsS'flags'
p106
I0
sS'hl'
p107
I5
sS'v'
p108
I4
sS'srcip'
p109
g23
sg58
g86
sg61
I00
sbsg55
Nsg58
Nsg63
I2048
sg61
I00
sbsbag1
(g2
g3
Ntp110
Rp111
(dp112
g7
g68
sg27
g1
(g28
g3
Ntp113
Rp114
(dp115
g32
g71
sg33
g15
sg38
g1
(g88
g3
Ntp116
Rp117
(dp118
g92
I0
sg93
I24510
sg94
g23
sg95
I1
sg96
I0
sg97
I8489
sg98
I64
sg99
I28
sg38
g1
(g100
g3
Ntp119
Rp120
(dp121
g93
I8489
sg38
S'pong'
p122
sg58
g117
sg63
I0
sg105
I0
sbsg55
Nsg106
I0
sg107
I5
sg108
I4
sg109
g45
sg58
g114
sg61
I00
sbsg55
Nsg58
Nsg63
I2048
sg61
I00
sbsbag5
ag65
ag83
a.