(lp0
ccopy_reg
_reconstructor
p1
(csts.dataplane_traces.trace
DataplaneEvent
p2
c__builtin__
object
p3
Ntp4
Rp5
(dp6
S'interface'
p7
g1
(csts.entities
HostInterface
p8
g3
Ntp9
Rp10
(dp11
S'hw_addr'
p12
g1
(cpox.lib.addresses
EthAddr
p13
g3
Ntp14
Rp15
(dp16
S'value'
p17
S'\x00\x00\x00\x03\x01\x02'
p18
sbsS'ips'
p19
(lp20
g1
(cpox.lib.addresses
IPAddr
p21
g3
Ntp22
Rp23
(dp24
g17
I33620859
sbasS'name'
p25
S'eth8'
p26
sbsS'packet'
p27
g1
(cpox.lib.packet.ethernet
ethernet
p28
g3
Ntp29
Rp30
(dp31
S'src'
p32
g15
sS'dst'
p33
g1
(g13
g3
Ntp34
Rp35
(dp36
g17
S'\x00\x00\x00\x00\x00\x02'
p37
sbsS'next'
p38
g1
(cpox.lib.packet.ipv4
ipv4
p39
g3
Ntp40
Rp41
(dp42
S'frag'
p43
I0
sS'csum'
p44
I12537
sS'dstip'
p45
g1
(g21
g3
Ntp46
Rp47
(dp48
g17
I33554555
sbsS'protocol'
p49
I1
sS'srcip'
p50
g23
sS'tos'
p51
I0
sS'ttl'
p52
I64
sS'iplen'
p53
I72
sg38
g1
(cpox.lib.packet.icmp
icmp
p54
g3
Ntp55
Rp56
(dp57
S'code'
p58
I0
sg44
I1591
sS'prev'
p59
g41
sS'type'
p60
I8
sg38
S'PingPingPingPingPingPingPingPingPingPingPingPing'
p61
sbsS'raw'
p62
NsS'flags'
p63
I0
sS'hl'
p64
I5
sS'v'
p65
I4
sS'id'
p66
I21173
sg59
g30
sS'parsed'
p67
I00
sbsg62
Nsg59
Nsg60
I2048
sg67
I00
sbsbag1
(g2
g3
Ntp68
Rp69
(dp70
g7
g1
(g8
g3
Ntp71
Rp72
(dp73
g12
g1
(g13
g3
Ntp74
Rp75
(dp76
g17
S'\x00\x00\x00\x02\x01\x01'
p77
sbsg19
(lp78
g1
(g21
g3
Ntp79
Rp80
(dp81
g17
I16843387
sbasg25
S'eth6'
p82
sbsg27
g1
(g28
g3
Ntp83
Rp84
(dp85
g32
g75
sg33
g1
(g13
g3
Ntp86
Rp87
(dp88
g17
S'\x00\x00\x00\x03\x00\x02'
p89
sbsg38
g1
(g39
g3
Ntp90
Rp91
(dp92
g43
I0
sg44
I12535
sg45
g1
(g21
g3
Ntp93
Rp94
(dp95
g17
I33555323
sbsg49
I1
sg50
g80
sg51
I0
sg52
I64
sg53
I72
sg38
g1
(g54
g3
Ntp96
Rp97
(dp98
g58
I0
sg44
I3639
sg59
g91
sg60
I0
sg38
S'PingPingPingPingPingPingPingPingPingPingPingPing'
p99
sbsg62
Nsg63
I0
sg64
I5
sg65
I4
sg66
I21174
sg59
g84
sg67
I00
sbsg62
Nsg59
Nsg60
I2048
sg67
I00
sbsbag1
(g2
g3
Ntp100
Rp101
(dp102
g7
g1
(g8
g3
Ntp103
Rp104
(dp105
g12
g1
(g13
g3
Ntp106
Rp107
(dp108
g17
S'\x00\x00\x00\x03\x01\x01'
p109
sbsg19
(lp110
g1
(g21
g3
Ntp111
Rp112
(dp113
g17
I16843643
sbasg25
S'eth8'
p114
sbsg27
g1
(g28
g3
Ntp115
Rp116
(dp117
g32
g107
sg33
g1
(g13
g3
Ntp118
Rp119
(dp120
g17
S'\x00\x00\x00\x00\x01\x02'
p121
sbsg38
g1
(g39
g3
Ntp122
Rp123
(dp124
g43
I0
sg44
I0
sg45
g1
(g21
g3
Ntp125
Rp126
(dp127
g17
I33620091
sbsg49
I1
sg50
g112
sg51
I0
sg52
I64
sg53
I20
sg38
g1
(g54
g3
Ntp128
Rp129
(dp130
g58
I0
sg44
I0
sg59
g123
sg60
I8
sg38
S'PingPingPingPingPingPingPingPingPingPingPingPing'
p131
sbsg62
Nsg63
I0
sg64
I5
sg65
I4
sg66
I21175
sg59
g116
sg67
I00
sbsg62
Nsg59
Nsg60
I2048
sg67
I00
sbsbag1
(g2
g3
Ntp132
Rp133
(dp134
g7
g1
(g8
g3
Ntp135
Rp136
(dp137
g12
g35
sg19
(lp138
g47
asg25
S'eth1'
p139
sbsg27
g1
(g28
g3
Ntp140
Rp141
(dp142
g32
g35
sg33
g1
(g13
g3
Ntp143
Rp144
(dp145
g17
S'\x00\x00\x00\x03\x00\x01'
p146
sbsg38
g1
(g39
g3
Ntp147
Rp148
(dp149
g43
I0
sg44
I12791
sg45
g1
(g21
g3
Ntp150
Rp151
(dp152
g17
I16778107
sbsg49
I1
sg50
g47
sg51
I0
sg52
I64
sg53
I72
sg38
g1
(g54
g3
Ntp153
Rp154
(dp155
g58
I0
sg44
I1591
sg59
g148
sg60
I8
sg38
S'PingPingPingPingPingPingPingPingPingPingPingPing'
p156
sbsg62
Nsg63
I0
sg64
I5
sg65
I4
sg66
I21176
sg59
g141
sg67
I00
sbsg62
Nsg59
Nsg60
I2048
sg67
I00
sbsbag1
(g2
g3
Ntp157
Rp158
(dp159
g7
g72
sg27
g1
(g28
g3
Ntp160
Rp161
(dp162
g32
g75
sg33
g1
(g13
g3
Ntp163
Rp164
(dp165
g17
S'\x00\x00\x00\x01\x00\x01'
p166
sbsg38
g1
(g39
g3
Ntp167
Rp168
(dp169
g43
I0
sg44
I12535
sg45
g1
(g21
g3
Ntp170
Rp171
(dp172
g17
I16777595
sbsg49
I1
sg50
g80
sg51
I0
sg52
I64
sg53
I72
sg38
g1
(g54
g3
Ntp173
Rp174
(dp175
g58
I0
sg44
I3639
sg59
g168
sg60
I0
sg38
S'PingPingPingPingPingPingPingPingPingPingPingPing'
p176
sbsg62
Nsg63
I0
sg64
I5
sg65
I4
sg66
I21177
sg59
g161
sg67
I00
sbsg62
Nsg59
Nsg60
I2048
sg67
I00
sbsbag1
(g2
g3
Ntp177
Rp178
(dp179
g7
g104
sg27
g1
(g28
g3
Ntp180
Rp181
(dp182
g32
g107
sg33
g1
(g13
g3
Ntp183
Rp184
(dp185
g17
S'\x00\x00\x00\x01\x01\x02'
p186
sbsg38
g1
(g39
g3
Ntp187
Rp188
(dp189
g43
I0
sg44
I12276
sg45
g1
(g21
g3
Ntp190
Rp191
(dp192
g17
I33620347
sbsg49
I1
sg50
g112
sg51
I0
sg52
I64
sg53
I72
sg38
g1
(g54
g3
Ntp193
Rp194
(dp195
g58
I0
sg44
I3639
sg59
g188
sg60
I0
sg38
S'PingPingPingPingPingPingPingPingPingPingPingPing'
p196
sbsg62
Nsg63
I0
sg64
I5
sg65
I4
sg66
I21178
sg59
g181
sg67
I00
sbsg62
Nsg59
Nsg60
I2048
sg67
I00
sbsbag1
(g2
g3
Ntp197
Rp198
(dp199
g7
g1
(g8
g3
Ntp200
Rp201
(dp202
g12
g164
sg19
(lp203
g171
asg25
S'eth3'
p204
sbsg27
g1
(g28
g3
Ntp205
Rp206
(dp207
g32
g164
sg33
g107
sg38
g1
(g39
g3
Ntp208
Rp209
(dp210
g43
I0
sg44
I12532
sg45
g112
sg49
I1
sg50
g171
sg51
I0
sg52
I64
sg53
I72
sg38
g1
(g54
g3
Ntp211
Rp212
(dp213
g58
I0
sg44
I3639
sg59
g209
sg60
I0
sg38
S'PingPingPingPingPingPingPingPingPingPingPingPing'
p214
sbsg62
Nsg63
I0
sg64
I5
sg65
I4
sg66
I21179
sg59
g206
sg67
I00
sbsg62
Nsg59
Nsg60
I2048
sg67
I00
sbsbag1
(g2
g3
Ntp215
Rp216
(dp217
g7
g201
sg27
g1
(g28
g3
Ntp218
Rp219
(dp220
g32
g164
sg33
g35
sg38
g1
(g39
g3
Ntp221
Rp222
(dp223
g43
I0
sg44
I0
sg45
g47
sg49
I1
sg50
g171
sg51
I0
sg52
I64
sg53
I20
sg38
g1
(g54
g3
Ntp224
Rp225
(dp226
g58
I0
sg44
I0
sg59
g222
sg60
I0
sg38
S'PingPingPingPingPingPingPingPingPingPingPingPing'
p227
sbsg62
Nsg63
I0
sg64
I5
sg65
I4
sg66
I21180
sg59
g219
sg67
I00
sbsg62
Nsg59
Nsg60
I2048
sg67
I00
sbsbag1
(g2
g3
Ntp228
Rp229
(dp230
g7
g1
(g8
g3
Ntp231
Rp232
(dp233
g12
g1
(g13
g3
Ntp234
Rp235
(dp236
g17
S'\x00\x00\x00\x02\x01\x02'
p237
sbsg19
(lp238
g1
(g21
g3
Ntp239
Rp240
(dp241
g17
I33620603
sbasg25
S'eth6'
p242
sbsg27
g1
(g28
g3
Ntp243
Rp244
(dp245
g32
g235
sg33
g87
sg38
g1
(g39
g3
Ntp246
Rp247
(dp248
g43
I0
sg44
I0
sg45
g94
sg49
I1
sg50
g240
sg51
I0
sg52
I64
sg53
I20
sg38
g1
(g54
g3
Ntp249
Rp250
(dp251
g58
I0
sg44
I0
sg59
g247
sg60
I0
sg38
S'PingPingPingPingPingPingPingPingPingPingPingPing'
p252
sbsg62
Nsg63
I0
sg64
I5
sg65
I4
sg66
I21181
sg59
g244
sg67
I00
sbsg62
Nsg59
Nsg60
I2048
sg67
I00
sbsbag1
(g2
g3
Ntp253
Rp254
(dp255
g7
g1
(g8
g3
Ntp256
Rp257
(dp258
g12
g1
(g13
g3
Ntp259
Rp260
(dp261
g17
S'\x00\x00\x00\x01\x00\x02'
p262
sbsg19
(lp263
g1
(g21
g3
Ntp264
Rp265
(dp266
g17
I33554811
sbasg25
S'eth3'
p267
sbsg27
g1
(g28
g3
Ntp268
Rp269
(dp270
g32
g260
sg33
g1
(g13
g3
Ntp271
Rp272
(dp273
g17
S'\x00\x00\x00\x02\x00\x02'
p274
sbsg38
g1
(g39
g3
Ntp275
Rp276
(dp277
g43
I0
sg44
I12784
sg45
g1
(g21
g3
Ntp278
Rp279
(dp280
g17
I33555067
sbsg49
I1
sg50
g265
sg51
I0
sg52
I64
sg53
I72
sg38
g1
(g54
g3
Ntp281
Rp282
(dp283
g58
I0
sg44
I1591
sg59
g276
sg60
I8
sg38
S'PingPingPingPingPingPingPingPingPingPingPingPing'
p284
sbsg62
Nsg63
I0
sg64
I5
sg65
I4
sg66
I21182
sg59
g269
sg67
I00
sbsg62
Nsg59
Nsg60
I2048
sg67
I00
sbsbag1
(g2
g3
Ntp285
Rp286
(dp287
g7
g1
(g8
g3
Ntp288
Rp289
(dp290
g12
g1
(g13
g3
Ntp291
Rp292
(dp293
g17
S'\x00\x00\x00\x00\x01\x01'
p294
sbsg19
(lp295
g1
(g21
g3
Ntp296
Rp297
(dp298
g17
I16842875
sbasg25
S'eth2'
p299
sbsg27
g1
(g28
g3
Ntp300
Rp301
(dp302
g32
g292
sg33
g1
(g13
g3
Ntp303
Rp304
(dp305
g17
S'\x00\x00\x00\x02\x00\x01'
p306
sbsg38
g1
(g39
g3
Ntp307
Rp308
(dp309
g43
I0
sg44
I12530
sg45
g1
(g21
g3
Ntp310
Rp311
(dp312
g17
I16777851
sbsg49
I1
sg50
g297
sg51
I0
sg52
I64
sg53
I72
sg38
g1
(g54
g3
Ntp313
Rp314
(dp315
g58
I0
sg44
I3639
sg59
g308
sg60
I0
sg38
S'PingPingPingPingPingPingPingPingPingPingPingPing'
p316
sbsg62
Nsg63
I0
sg64
I5
sg65
I4
sg66
I21183
sg59
g301
sg67
I00
sbsg62
Nsg59
Nsg60
I2048
sg67
I00
sbsbag1
(g2
g3
Ntp317
Rp318
(dp319
g7
g72
sg27
g1
(g28
g3
Ntp320
Rp321
(dp322
g32
g75
sg33
g272
sg38
g1
(g39
g3
Ntp323
Rp324
(dp325
g43
I0
sg44
I12526
sg45
g279
sg49
I1
sg50
g80
sg51
I0
sg52
I64
sg53
I72
sg38
g1
(g54
g3
Ntp326
Rp327
(dp328
g58
I0
sg44
I3639
sg59
g324
sg60
I0
sg38
S'PingPingPingPingPingPingPingPingPingPingPingPing'
p329
sbsg62
Nsg63
I0
sg64
I5
sg65
I4
sg66
I21184
sg59
g321
sg67
I00
sbsg62
Nsg59
Nsg60
I2048
sg67
I00
sbsbag1
(g2
g3
Ntp330
Rp331
(dp332
g7
g289
sg27
g1
(g28
g3
Ntp333
Rp334
(dp335
g32
g292
sg33
g184
sg38
g1
(g39
g3
Ntp336
Rp337
(dp338
g43
I0
sg44
I12272
sg45
g191
sg49
I1
sg50
g297
sg51
I0
sg52
I64
sg53
I72
sg38
g1
(g54
g3
Ntp339
Rp340
(dp341
g58
I0
sg44
I1591
sg59
g337
sg60
I8
sg38
S'PingPingPingPingPingPingPingPingPingPingPingPing'
p342
sbsg62
Nsg63
I0
sg64
I5
sg65
I4
sg66
I21185
sg59
g334
sg67
I00
sbsg62
Nsg59
Nsg60
I2048
sg67
I00
sbsbag1
(g2
g3
Ntp343
Rp344
(dp345
g7
g232
sg27
g1
(g28
g3
Ntp346
Rp347
(dp348
g32
g235
sg33
g1
(g13
g3
Ntp349
Rp350
(dp351
g17
S'\x00\x00\x00\x01\x01\x01'
p352
sbsg38
g1
(g39
g3
Ntp353
Rp354
(dp355
g43
I0
sg44
I12269
sg45
g1
(g21
g3
Ntp356
Rp357
(dp358
g17
I16843131
sbsg49
I1
sg50
g240
sg51
I0
sg52
I64
sg53
I72
sg38
g1
(g54
g3
Ntp359
Rp360
(dp361
g58
I0
sg44
I3639
sg59
g354
sg60
I0
sg38
S'PingPingPingPingPingPingPingPingPingPingPingPing'
p362
sbsg62
Nsg63
I0
sg64
I5
sg65
I4
sg66
I21186
sg59
g347
sg67
I00
sbsg62
Nsg59
Nsg60
I2048
sg67
I00
sbsbag1
(g2
g3
Ntp363
Rp364
(dp365
g7
g1
(g8
g3
Ntp366
Rp367
(dp368
g12
g1
(g13
g3
Ntp369
Rp370
(dp371
g17
S'\x00\x00\x00\x00\x00\x01'
p372
sbsg19
(lp373
g1
(g21
g3
Ntp374
Rp375
(dp376
g17
I16777339
sbasg25
S'eth1'
p377
sbsg27
g1
(g28
g3
Ntp378
Rp379
(dp380
g32
g370
sg33
g164
sg38
g1
(g39
g3
Ntp381
Rp382
(dp383
g43
I0
sg44
I12783
sg45
g171
sg49
I1
sg50
g375
sg51
I0
sg52
I64
sg53
I72
sg38
g1
(g54
g3
Ntp384
Rp385
(dp386
g58
I0
sg44
I3639
sg59
g382
sg60
I0
sg38
S'PingPingPingPingPingPingPingPingPingPingPingPing'
p387
sbsg62
Nsg63
I0
sg64
I5
sg65
I4
sg66
I21187
sg59
g379
sg67
I00
sbsg62
Nsg59
Nsg60
I2048
sg67
I00
sbsbag1
(g2
g3
Ntp388
Rp389
(dp390
g7
g289
sg27
g1
(g28
g3
Ntp391
Rp392
(dp393
g32
g292
sg33
g75
sg38
g1
(g39
g3
Ntp394
Rp395
(dp396
g43
I0
sg44
I12269
sg45
g80
sg49
I1
sg50
g297
sg51
I0
sg52
I64
sg53
I72
sg38
g1
(g54
g3
Ntp397
Rp398
(dp399
g58
I0
sg44
I3639
sg59
g395
sg60
I0
sg38
S'PingPingPingPingPingPingPingPingPingPingPingPing'
p400
sbsg62
Nsg63
I0
sg64
I5
sg65
I4
sg66
I21188
sg59
g392
sg67
I00
sbsg62
Nsg59
Nsg60
I2048
sg67
I00
sbsbag1
(g2
g3
Ntp401
Rp402
(dp403
g7
g201
sg27
g1
(g28
g3
Ntp404
Rp405
(dp406
g32
g164
sg33
g235
sg38
g1
(g39
g3
Ntp407
Rp408
(dp409
g43
I0
sg44
I12522
sg45
g240
sg49
I1
sg50
g171
sg51
I0
sg52
I64
sg53
I72
sg38
g1
(g54
g3
Ntp410
Rp411
(dp412
g58
I0
sg44
I3639
sg59
g408
sg60
I0
sg38
S'PingPingPingPingPingPingPingPingPingPingPingPing'
p413
sbsg62
Nsg63
I0
sg64
I5
sg65
I4
sg66
I21189
sg59
g405
sg67
I00
sbsg62
Nsg59
Nsg60
I2048
sg67
I00
sbsbag1
(g2
g3
Ntp414
Rp415
(dp416
g7
g1
(g8
g3
Ntp417
Rp418
(dp419
g12
g304
sg19
(lp420
g311
asg25
S'eth5'
p421
sbsg27
g1
(g28
g3
Ntp422
Rp423
(dp424
g32
g304
sg33
g144
sg38
g1
(g39
g3
Ntp425
Rp426
(dp427
g43
I0
sg44
I12776
sg45
g151
sg49
I1
sg50
g311
sg51
I0
sg52
I64
sg53
I72
sg38
g1
(g54
g3
Ntp428
Rp429
(dp430
g58
I0
sg44
I3639
sg59
g426
sg60
I0
sg38
S'PingPingPingPingPingPingPingPingPingPingPingPing'
p431
sbsg62
Nsg63
I0
sg64
I5
sg65
I4
sg66
I21190
sg59
g423
sg67
I00
sbsg62
Nsg59
Nsg60
I2048
sg67
I00
sbsbag1
(g2
g3
Ntp432
Rp433
(dp434
g7
g1
(g8
g3
Ntp435
Rp436
(dp437
g12
g272
sg19
(lp438
g279
asg25
S'eth5'
p439
sbsg27
g1
(g28
g3
Ntp440
Rp441
(dp442
g32
g272
sg33
g87
sg38
g1
(g39
g3
Ntp443
Rp444
(dp445
g43
I0
sg44
I12773
sg45
g94
sg49
I1
sg50
g279
sg51
I0
sg52
I64
sg53
I72
sg38
g1
(g54
g3
Ntp446
Rp447
(dp448
g58
I0
sg44
I1591
sg59
g444
sg60
I8
sg38
S'PingPingPingPingPingPingPingPingPingPingPingPing'
p449
sbsg62
Nsg63
I0
sg64
I5
sg65
I4
sg66
I21191
sg59
g441
sg67
I00
sbsg62
Nsg59
Nsg60
I2048
sg67
I00
sbsbag1
(g2
g3
Ntp450
Rp451
(dp452
g7
g1
(g8
g3
Ntp453
Rp454
(dp455
g12
g350
sg19
(lp456
g357
asg25
S'eth4'
p457
sbsg27
g1
(g28
g3
Ntp458
Rp459
(dp460
g32
g350
sg33
g35
sg38
g1
(g39
g3
Ntp461
Rp462
(dp463
g43
I0
sg44
I0
sg45
g47
sg49
I1
sg50
g357
sg51
I0
sg52
I64
sg53
I20
sg38
g1
(g54
g3
Ntp464
Rp465
(dp466
g58
I0
sg44
I0
sg59
g462
sg60
I0
sg38
S'PingPingPingPingPingPingPingPingPingPingPingPing'
p467
sbsg62
Nsg63
I0
sg64
I5
sg65
I4
sg66
I21192
sg59
g459
sg67
I00
sbsg62
Nsg59
Nsg60
I2048
sg67
I00
sbsbag1
(g2
g3
Ntp468
Rp469
(dp470
g7
g10
sg27
g1
(g28
g3
Ntp471
Rp472
(dp473
g32
g15
sg33
g87
sg38
g1
(g39
g3
Ntp474
Rp475
(dp476
g43
I0
sg44
I12514
sg45
g94
sg49
I1
sg50
g23
sg51
I0
sg52
I64
sg53
I72
sg38
g1
(g54
g3
Ntp477
Rp478
(dp479
g58
I0
sg44
I3639
sg59
g475
sg60
I0
sg38
S'PingPingPingPingPingPingPingPingPingPingPingPing'
p480
sbsg62
Nsg63
I0
sg64
I5
sg65
I4
sg66
I21193
sg59
g472
sg67
I00
sbsg62
Nsg59
Nsg60
I2048
sg67
I00
sbsbag1
(g2
g3
Ntp481
Rp482
(dp483
g7
g232
sg27
g1
(g28
g3
Ntp484
Rp485
(dp486
g32
g235
sg33
g87
sg38
g1
(g39
g3
Ntp487
Rp488
(dp489
g43
I0
sg44
I12514
sg45
g94
sg49
I1
sg50
g240
sg51
I0
sg52
I64
sg53
I72
sg38
g1
(g54
g3
Ntp490
Rp491
(dp492
g58
I0
sg44
I3639
sg59
g488
sg60
I0
sg38
S'PingPingPingPingPingPingPingPingPingPingPingPing'
p493
sbsg62
Nsg63
I0
sg64
I5
sg65
I4
sg66
I21194
sg59
g485
sg67
I00
sbsg62
Nsg59
Nsg60
I2048
sg67
I00
sbsbag1
(g2
g3
Ntp494
Rp495
(dp496
g7
g1
(g8
g3
Ntp497
Rp498
(dp499
g12
g87
sg19
(lp500
g94
asg25
S'eth7'
p501
sbsg27
g1
(g28
g3
Ntp502
Rp503
(dp504
g32
g87
sg33
g260
sg38
g1
(g39
g3
Ntp505
Rp506
(dp507
g43
I0
sg44
I12770
sg45
g265
sg49
I1
sg50
g94
sg51
I0
sg52
I64
sg53
I72
sg38
g1
(g54
g3
Ntp508
Rp509
(dp510
g58
I0
sg44
I1591
sg59
g506
sg60
I8
sg38
S'PingPingPingPingPingPingPingPingPingPingPingPing'
p511
sbsg62
Nsg63
I0
sg64
I5
sg65
I4
sg66
I21195
sg59
g503
sg67
I00
sbsg62
Nsg59
Nsg60
I2048
sg67
I00
sbsbag1
(g2
g3
Ntp512
Rp513
(dp514
g7
g418
sg27
g1
(g28
g3
Ntp515
Rp516
(dp517
g32
g304
sg33
g119
sg38
g1
(g39
g3
Ntp518
Rp519
(dp520
g43
I0
sg44
I12516
sg45
g126
sg49
I1
sg50
g311
sg51
I0
sg52
I64
sg53
I72
sg38
g1
(g54
g3
Ntp521
Rp522
(dp523
g58
I0
sg44
I3639
sg59
g519
sg60
I0
sg38
S'PingPingPingPingPingPingPingPingPingPingPingPing'
p524
sbsg62
Nsg63
I0
sg64
I5
sg65
I4
sg66
I21196
sg59
g516
sg67
I00
sbsg62
Nsg59
Nsg60
I2048
sg67
I00
sbsbag1
(g2
g3
Ntp525
Rp526
(dp527
g7
g454
sg27
g1
(g28
g3
Ntp528
Rp529
(dp530
g32
g350
sg33
g184
sg38
g1
(g39
g3
Ntp531
Rp532
(dp533
g43
I0
sg44
I0
sg45
g191
sg49
I1
sg50
g357
sg51
I0
sg52
I64
sg53
I20
sg38
g1
(g54
g3
Ntp534
Rp535
(dp536
g58
I0
sg44
I0
sg59
g532
sg60
I8
sg38
S'PingPingPingPingPingPingPingPingPingPingPingPing'
p537
sbsg62
Nsg63
I0
sg64
I5
sg65
I4
sg66
I21197
sg59
g529
sg67
I00
sbsg62
Nsg59
Nsg60
I2048
sg67
I00
sbsbag1
(g2
g3
Ntp538
Rp539
(dp540
g7
g367
sg27
g1
(g28
g3
Ntp541
Rp542
(dp543
g32
g370
sg33
g144
sg38
g1
(g39
g3
Ntp544
Rp545
(dp546
g43
I0
sg44
I0
sg45
g151
sg49
I1
sg50
g375
sg51
I0
sg52
I64
sg53
I20
sg38
g1
(g54
g3
Ntp547
Rp548
(dp549
g58
I0
sg44
I0
sg59
g545
sg60
I0
sg38
S'PingPingPingPingPingPingPingPingPingPingPingPing'
p550
sbsg62
Nsg63
I0
sg64
I5
sg65
I4
sg66
I21198
sg59
g542
sg67
I00
sbsg62
Nsg59
Nsg60
I2048
sg67
I00
sbsbag1
(g2
g3
Ntp551
Rp552
(dp553
g7
g498
sg27
g1
(g28
g3
Ntp554
Rp555
(dp556
g32
g87
sg33
g272
sg38
g1
(g39
g3
Ntp557
Rp558
(dp559
g43
I0
sg44
I0
sg45
g279
sg49
I1
sg50
g94
sg51
I0
sg52
I64
sg53
I20
sg38
g1
(g54
g3
Ntp560
Rp561
(dp562
g58
I0
sg44
I0
sg59
g558
sg60
I0
sg38
S'PingPingPingPingPingPingPingPingPingPingPingPing'
p563
sbsg62
Nsg63
I0
sg64
I5
sg65
I4
sg66
I21199
sg59
g555
sg67
I00
sbsg62
Nsg59
Nsg60
I2048
sg67
I00
sbsbag1
(g2
g3
Ntp564
Rp565
(dp566
g7
g257
sg27
g1
(g28
g3
Ntp567
Rp568
(dp569
g32
g260
sg33
g119
sg38
g1
(g39
g3
Ntp570
Rp571
(dp572
g43
I0
sg44
I12512
sg45
g126
sg49
I1
sg50
g265
sg51
I0
sg52
I64
sg53
I72
sg38
g1
(g54
g3
Ntp573
Rp574
(dp575
g58
I0
sg44
I1591
sg59
g571
sg60
I8
sg38
S'PingPingPingPingPingPingPingPingPingPingPingPing'
p576
sbsg62
Nsg63
I0
sg64
I5
sg65
I4
sg66
I21200
sg59
g568
sg67
I00
sbsg62
Nsg59
Nsg60
I2048
sg67
I00
sbsbag1
(g2
g3
Ntp577
Rp578
(dp579
g7
g436
sg27
g1
(g28
g3
Ntp580
Rp581
(dp582
g32
g272
sg33
g15
sg38
g1
(g39
g3
Ntp583
Rp584
(dp585
g43
I0
sg44
I12507
sg45
g23
sg49
I1
sg50
g279
sg51
I0
sg52
I64
sg53
I72
sg38
g1
(g54
g3
Ntp586
Rp587
(dp588
g58
I0
sg44
I1591
sg59
g584
sg60
I8
sg38
S'PingPingPingPingPingPingPingPingPingPingPingPing'
p589
sbsg62
Nsg63
I0
sg64
I5
sg65
I4
sg66
I21201
sg59
g581
sg67
I00
sbsg62
Nsg59
Nsg60
I2048
sg67
I00
sbsbag1
(g2
g3
Ntp590
Rp591
(dp592
g7
g104
sg27
g1
(g28
g3
Ntp593
Rp594
(dp595
g32
g107
sg33
g144
sg38
g1
(g39
g3
Ntp596
Rp597
(dp598
g43
I0
sg44
I12507
sg45
g151
sg49
I1
sg50
g112
sg51
I0
sg52
I64
sg53
I72
sg38
g1
(g54
g3
Ntp599
Rp600
(dp601
g58
I0
sg44
I3639
sg59
g597
sg60
I0
sg38
S'PingPingPingPingPingPingPingPingPingPingPingPing'
p602
sbsg62
Nsg63
I0
sg64
I5
sg65
I4
sg66
I21202
sg59
g594
sg67
I00
sbsg62
Nsg59
Nsg60
I2048
sg67
I00
sbsbag1
(g2
g3
Ntp603
Rp604
(dp605
g7
g232
sg27
g1
(g28
g3
Ntp606
Rp607
(dp608
g32
g235
sg33
g370
sg38
g1
(g39
g3
Ntp609
Rp610
(dp611
g43
I0
sg44
I12509
sg45
g375
sg49
I1
sg50
g240
sg51
I0
sg52
I64
sg53
I72
sg38
g1
(g54
g3
Ntp612
Rp613
(dp614
g58
I0
sg44
I3639
sg59
g610
sg60
I0
sg38
S'PingPingPingPingPingPingPingPingPingPingPingPing'
p615
sbsg62
Nsg63
I0
sg64
I5
sg65
I4
sg66
I21203
sg59
g607
sg67
I00
sbsg62
Nsg59
Nsg60
I2048
sg67
I00
sbsbag1
(g2
g3
Ntp616
Rp617
(dp618
g7
g418
sg27
g1
(g28
g3
Ntp619
Rp620
(dp621
g32
g304
sg33
g370
sg38
g1
(g39
g3
Ntp622
Rp623
(dp624
g43
I0
sg44
I12765
sg45
g375
sg49
I1
sg50
g311
sg51
I0
sg52
I64
sg53
I72
sg38
g1
(g54
g3
Ntp625
Rp626
(dp627
g58
I0
sg44
I3639
sg59
g623
sg60
I0
sg38
S'PingPingPingPingPingPingPingPingPingPingPingPing'
p628
sbsg62
Nsg63
I0
sg64
I5
sg65
I4
sg66
I21204
sg59
g620
sg67
I00
sbsg62
Nsg59
Nsg60
I2048
sg67
I00
sbsbag1
(g2
g3
Ntp629
Rp630
(dp631
g7
g257
sg27
g1
(g28
g3
Ntp632
Rp633
(dp634
g32
g260
sg33
g15
sg38
g1
(g39
g3
Ntp635
Rp636
(dp637
g43
I0
sg44
I12504
sg45
g23
sg49
I1
sg50
g265
sg51
I0
sg52
I64
sg53
I72
sg38
g1
(g54
g3
Ntp638
Rp639
(dp640
g58
I0
sg44
I3639
sg59
g636
sg60
I0
sg38
S'PingPingPingPingPingPingPingPingPingPingPingPing'
p641
sbsg62
Nsg63
I0
sg64
I5
sg65
I4
sg66
I21205
sg59
g633
sg67
I00
sbsg62
Nsg59
Nsg60
I2048
sg67
I00
sbsbag1
(g2
g3
Ntp642
Rp643
(dp644
g7
g289
sg27
g1
(g28
g3
Ntp645
Rp646
(dp647
g32
g292
sg33
g164
sg38
g1
(g39
g3
Ntp648
Rp649
(dp650
g43
I0
sg44
I12508
sg45
g171
sg49
I1
sg50
g297
sg51
I0
sg52
I64
sg53
I72
sg38
g1
(g54
g3
Ntp651
Rp652
(dp653
g58
I0
sg44
I3639
sg59
g649
sg60
I0
sg38
S'PingPingPingPingPingPingPingPingPingPingPingPing'
p654
sbsg62
Nsg63
I0
sg64
I5
sg65
I4
sg66
I21206
sg59
g646
sg67
I00
sbsg62
Nsg59
Nsg60
I2048
sg67
I00
sbsbag1
(g2
g3
Ntp655
Rp656
(dp657
g7
g367
sg27
g1
(g28
g3
Ntp658
Rp659
(dp660
g32
g370
sg33
g15
sg38
g1
(g39
g3
Ntp661
Rp662
(dp663
g43
I0
sg44
I0
sg45
g23
sg49
I1
sg50
g375
sg51
I0
sg52
I64
sg53
I20
sg38
g1
(g54
g3
Ntp664
Rp665
(dp666
g58
I0
sg44
I0
sg59
g662
sg60
I0
sg38
S'PingPingPingPingPingPingPingPingPingPingPingPing'
p667
sbsg62
Nsg63
I0
sg64
I5
sg65
I4
sg66
I21207
sg59
g659
sg67
I00
sbsg62
Nsg59
Nsg60
I2048
sg67
I00
sbsbag1
(g2
g3
Ntp668
Rp669
(dp670
g7
g104
sg27
g1
(g28
g3
Ntp671
Rp672
(dp673
g32
g107
sg33
g272
sg38
g1
(g39
g3
Ntp674
Rp675
(dp676
g43
I0
sg44
I0
sg45
g279
sg49
I1
sg50
g112
sg51
I0
sg52
I64
sg53
I20
sg38
g1
(g54
g3
Ntp677
Rp678
(dp679
g58
I0
sg44
I0
sg59
g675
sg60
I8
sg38
S'PingPingPingPingPingPingPingPingPingPingPingPing'
p680
sbsg62
Nsg63
I0
sg64
I5
sg65
I4
sg66
I21208
sg59
g672
sg67
I00
sbsg62
Nsg59
Nsg60
I2048
sg67
I00
sbsbag1
(g2
g3
Ntp681
Rp682
(dp683
g7
g136
sg27
g1
(g28
g3
Ntp684
Rp685
(dp686
g32
g35
sg33
g107
sg38
g1
(g39
g3
Ntp687
Rp688
(dp689
g43
I0
sg44
I0
sg45
g112
sg49
I1
sg50
g47
sg51
I0
sg52
I64
sg53
I20
sg38
g1
(g54
g3
Ntp690
Rp691
(dp692
g58
I0
sg44
I0
sg59
g688
sg60
I8
sg38
S'PingPingPingPingPingPingPingPingPingPingPingPing'
p693
sbsg62
Nsg63
I0
sg64
I5
sg65
I4
sg66
I21209
sg59
g685
sg67
I00
sbsg62
Nsg59
Nsg60
I2048
sg67
I00
sbsbag1
(g2
g3
Ntp694
Rp695
(dp696
g7
g136
sg27
g1
(g28
g3
Ntp697
Rp698
(dp699
g32
g35
sg33
g260
sg38
g1
(g39
g3
Ntp700
Rp701
(dp702
g43
I0
sg44
I0
sg45
g265
sg49
I1
sg50
g47
sg51
I0
sg52
I64
sg53
I20
sg38
g1
(g54
g3
Ntp703
Rp704
(dp705
g58
I0
sg44
I0
sg59
g701
sg60
I0
sg38
S'PingPingPingPingPingPingPingPingPingPingPingPing'
p706
sbsg62
Nsg63
I0
sg64
I5
sg65
I4
sg66
I21210
sg59
g698
sg67
I00
sbsg62
Nsg59
Nsg60
I2048
sg67
I00
sbsbag1
(g2
g3
Ntp707
Rp708
(dp709
g7
g257
sg27
g1
(g28
g3
Ntp710
Rp711
(dp712
g32
g260
sg33
g272
sg38
g1
(g39
g3
Ntp713
Rp714
(dp715
g43
I0
sg44
I12755
sg45
g279
sg49
I1
sg50
g265
sg51
I0
sg52
I64
sg53
I72
sg38
g1
(g54
g3
Ntp716
Rp717
(dp718
g58
I0
sg44
I3639
sg59
g714
sg60
I0
sg38
S'PingPingPingPingPingPingPingPingPingPingPingPing'
p719
sbsg62
Nsg63
I0
sg64
I5
sg65
I4
sg66
I21211
sg59
g711
sg67
I00
sbsg62
Nsg59
Nsg60
I2048
sg67
I00
sbsbag1
(g2
g3
Ntp720
Rp721
(dp722
g7
g1
(g8
g3
Ntp723
Rp724
(dp725
g12
g144
sg19
(lp726
g151
asg25
S'eth7'
p727
sbsg27
g1
(g28
g3
Ntp728
Rp729
(dp730
g32
g144
sg33
g260
sg38
g1
(g39
g3
Ntp731
Rp732
(dp733
g43
I0
sg44
I0
sg45
g265
sg49
I1
sg50
g151
sg51
I0
sg52
I64
sg53
I20
sg38
g1
(g54
g3
Ntp734
Rp735
(dp736
g58
I0
sg44
I0
sg59
g732
sg60
I8
sg38
S'PingPingPingPingPingPingPingPingPingPingPingPing'
p737
sbsg62
Nsg63
I0
sg64
I5
sg65
I4
sg66
I21212
sg59
g729
sg67
I00
sbsg62
Nsg59
Nsg60
I2048
sg67
I00
sbsbag1
(g2
g3
Ntp738
Rp739
(dp740
g7
g104
sg27
g1
(g28
g3
Ntp741
Rp742
(dp743
g32
g107
sg33
g272
sg38
g1
(g39
g3
Ntp744
Rp745
(dp746
g43
I0
sg44
I12496
sg45
g279
sg49
I1
sg50
g112
sg51
I0
sg52
I64
sg53
I72
sg38
g1
(g54
g3
Ntp747
Rp748
(dp749
g58
I0
sg44
I3639
sg59
g745
sg60
I0
sg38
S'PingPingPingPingPingPingPingPingPingPingPingPing'
p750
sbsg62
Nsg63
I0
sg64
I5
sg65
I4
sg66
I21213
sg59
g742
sg67
I00
sbsg62
Nsg59
Nsg60
I2048
sg67
I00
sbsbag1
(g2
g3
Ntp751
Rp752
(dp753
g7
g136
sg27
g1
(g28
g3
Ntp754
Rp755
(dp756
g32
g35
sg33
g235
sg38
g1
(g39
g3
Ntp757
Rp758
(dp759
g43
I0
sg44
I0
sg45
g240
sg49
I1
sg50
g47
sg51
I0
sg52
I64
sg53
I20
sg38
g1
(g54
g3
Ntp760
Rp761
(dp762
g58
I0
sg44
I0
sg59
g758
sg60
I8
sg38
S'PingPingPingPingPingPingPingPingPingPingPingPing'
p763
sbsg62
Nsg63
I0
sg64
I5
sg65
I4
sg66
I21214
sg59
g755
sg67
I00
sbsg62
Nsg59
Nsg60
I2048
sg67
I00
sbsbag1
(g2
g3
Ntp764
Rp765
(dp766
g7
g257
sg27
g1
(g28
g3
Ntp767
Rp768
(dp769
g32
g260
sg33
g119
sg38
g1
(g39
g3
Ntp770
Rp771
(dp772
g43
I0
sg44
I0
sg45
g126
sg49
I1
sg50
g265
sg51
I0
sg52
I64
sg53
I20
sg38
g1
(g54
g3
Ntp773
Rp774
(dp775
g58
I0
sg44
I0
sg59
g771
sg60
I0
sg38
S'PingPingPingPingPingPingPingPingPingPingPingPing'
p776
sbsg62
Nsg63
I0
sg64
I5
sg65
I4
sg66
I21215
sg59
g768
sg67
I00
sbsg62
Nsg59
Nsg60
I2048
sg67
I00
sbsbag1
(g2
g3
Ntp777
Rp778
(dp779
g7
g1
(g8
g3
Ntp780
Rp781
(dp782
g12
g119
sg19
(lp783
g126
asg25
S'eth2'
p784
sbsg27
g1
(g28
g3
Ntp785
Rp786
(dp787
g32
g119
sg33
g350
sg38
g1
(g39
g3
Ntp788
Rp789
(dp790
g43
I0
sg44
I0
sg45
g357
sg49
I1
sg50
g126
sg51
I0
sg52
I64
sg53
I20
sg38
g1
(g54
g3
Ntp791
Rp792
(dp793
g58
I0
sg44
I0
sg59
g789
sg60
I8
sg38
S'PingPingPingPingPingPingPingPingPingPingPingPing'
p794
sbsg62
Nsg63
I0
sg64
I5
sg65
I4
sg66
I21216
sg59
g786
sg67
I00
sbsg62
Nsg59
Nsg60
I2048
sg67
I00
sbsbag1
(g2
g3
Ntp795
Rp796
(dp797
g7
g724
sg27
g1
(g28
g3
Ntp798
Rp799
(dp800
g32
g144
sg33
g107
sg38
g1
(g39
g3
Ntp801
Rp802
(dp803
g43
I0
sg44
I12492
sg45
g112
sg49
I1
sg50
g151
sg51
I0
sg52
I64
sg53
I72
sg38
g1
(g54
g3
Ntp804
Rp805
(dp806
g58
I0
sg44
I1591
sg59
g802
sg60
I8
sg38
S'PingPingPingPingPingPingPingPingPingPingPingPing'
p807
sbsg62
Nsg63
I0
sg64
I5
sg65
I4
sg66
I21217
sg59
g799
sg67
I00
sbsg62
Nsg59
Nsg60
I2048
sg67
I00
sbsbag1
(g2
g3
Ntp808
Rp809
(dp810
g7
g418
sg27
g1
(g28
g3
Ntp811
Rp812
(dp813
g32
g304
sg33
g272
sg38
g1
(g39
g3
Ntp814
Rp815
(dp816
g43
I0
sg44
I0
sg45
g279
sg49
I1
sg50
g311
sg51
I0
sg52
I64
sg53
I20
sg38
g1
(g54
g3
Ntp817
Rp818
(dp819
g58
I0
sg44
I0
sg59
g815
sg60
I0
sg38
S'PingPingPingPingPingPingPingPingPingPingPingPing'
p820
sbsg62
Nsg63
I0
sg64
I5
sg65
I4
sg66
I21218
sg59
g812
sg67
I00
sbsg62
Nsg59
Nsg60
I2048
sg67
I00
sbsbag1
(g2
g3
Ntp821
Rp822
(dp823
g7
g1
(g8
g3
Ntp824
Rp825
(dp826
g12
g184
sg19
(lp827
g191
asg25
S'eth4'
p828
sbsg27
g1
(g28
g3
Ntp829
Rp830
(dp831
g32
g184
sg33
g350
sg38
g1
(g39
g3
Ntp832
Rp833
(dp834
g43
I0
sg44
I0
sg45
g357
sg49
I1
sg50
g191
sg51
I0
sg52
I64
sg53
I20
sg38
g1
(g54
g3
Ntp835
Rp836
(dp837
g58
I0
sg44
I0
sg59
g833
sg60
I0
sg38
S'PingPingPingPingPingPingPingPingPingPingPingPing'
p838
sbsg62
Nsg63
I0
sg64
I5
sg65
I4
sg66
I21219
sg59
g830
sg67
I00
sbsg62
Nsg59
Nsg60
I2048
sg67
I00
sbsbag1
(g2
g3
Ntp839
Rp840
(dp841
g7
g72
sg27
g1
(g28
g3
Ntp842
Rp843
(dp844
g32
g75
sg33
g260
sg38
g1
(g39
g3
Ntp845
Rp846
(dp847
g43
I0
sg44
I12491
sg45
g265
sg49
I1
sg50
g80
sg51
I0
sg52
I64
sg53
I72
sg38
g1
(g54
g3
Ntp848
Rp849
(dp850
g58
I0
sg44
I3639
sg59
g846
sg60
I0
sg38
S'PingPingPingPingPingPingPingPingPingPingPingPing'
p851
sbsg62
Nsg63
I0
sg64
I5
sg65
I4
sg66
I21220
sg59
g843
sg67
I00
sbsg62
Nsg59
Nsg60
I2048
sg67
I00
sbsbag1
(g2
g3
Ntp852
Rp853
(dp854
g7
g781
sg27
g1
(g28
g3
Ntp855
Rp856
(dp857
g32
g119
sg33
g75
sg38
g1
(g39
g3
Ntp858
Rp859
(dp860
g43
I0
sg44
I12235
sg45
g80
sg49
I1
sg50
g126
sg51
I0
sg52
I64
sg53
I72
sg38
g1
(g54
g3
Ntp861
Rp862
(dp863
g58
I0
sg44
I1591
sg59
g859
sg60
I8
sg38
S'PingPingPingPingPingPingPingPingPingPingPingPing'
p864
sbsg62
Nsg63
I0
sg64
I5
sg65
I4
sg66
I21221
sg59
g856
sg67
I00
sbsg62
Nsg59
Nsg60
I2048
sg67
I00
sbsbag1
(g2
g3
Ntp865
Rp866
(dp867
g7
g781
sg27
g1
(g28
g3
Ntp868
Rp869
(dp870
g32
g119
sg33
g370
sg38
g1
(g39
g3
Ntp871
Rp872
(dp873
g43
I0
sg44
I0
sg45
g375
sg49
I1
sg50
g126
sg51
I0
sg52
I64
sg53
I20
sg38
g1
(g54
g3
Ntp874
Rp875
(dp876
g58
I0
sg44
I0
sg59
g872
sg60
I0
sg38
S'PingPingPingPingPingPingPingPingPingPingPingPing'
p877
sbsg62
Nsg63
I0
sg64
I5
sg65
I4
sg66
I21222
sg59
g869
sg67
I00
sbsg62
Nsg59
Nsg60
I2048
sg67
I00
sbsbag1
(g2
g3
Ntp878
Rp879
(dp880
g7
g454
sg27
g1
(g28
g3
Ntp881
Rp882
(dp883
g32
g350
sg33
g370
sg38
g1
(g39
g3
Ntp884
Rp885
(dp886
g43
I0
sg44
I12491
sg45
g375
sg49
I1
sg50
g357
sg51
I0
sg52
I64
sg53
I72
sg38
g1
(g54
g3
Ntp887
Rp888
(dp889
g58
I0
sg44
I3639
sg59
g885
sg60
I0
sg38
S'PingPingPingPingPingPingPingPingPingPingPingPing'
p890
sbsg62
Nsg63
I0
sg64
I5
sg65
I4
sg66
I21223
sg59
g882
sg67
I00
sbsg62
Nsg59
Nsg60
I2048
sg67
I00
sbsbag1
(g2
g3
Ntp891
Rp892
(dp893
g7
g201
sg27
g1
(g28
g3
Ntp894
Rp895
(dp896
g32
g164
sg33
g304
sg38
g1
(g39
g3
Ntp897
Rp898
(dp899
g43
I0
sg44
I12744
sg45
g311
sg49
I1
sg50
g171
sg51
I0
sg52
I64
sg53
I72
sg38
g1
(g54
g3
Ntp900
Rp901
(dp902
g58
I0
sg44
I1591
sg59
g898
sg60
I8
sg38
S'PingPingPingPingPingPingPingPingPingPingPingPing'
p903
sbsg62
Nsg63
I0
sg64
I5
sg65
I4
sg66
I21224
sg59
g895
sg67
I00
sbsg62
Nsg59
Nsg60
I2048
sg67
I00
sbsbag1
(g2
g3
Ntp904
Rp905
(dp906
g7
g454
sg27
g1
(g28
g3
Ntp907
Rp908
(dp909
g32
g350
sg33
g235
sg38
g1
(g39
g3
Ntp910
Rp911
(dp912
g43
I0
sg44
I0
sg45
g240
sg49
I1
sg50
g357
sg51
I0
sg52
I64
sg53
I20
sg38
g1
(g54
g3
Ntp913
Rp914
(dp915
g58
I0
sg44
I0
sg59
g911
sg60
I0
sg38
S'PingPingPingPingPingPingPingPingPingPingPingPing'
p916
sbsg62
Nsg63
I0
sg64
I5
sg65
I4
sg66
I21225
sg59
g908
sg67
I00
sbsg62
Nsg59
Nsg60
I2048
sg67
I00
sbsba.