(lp0
ccopy_reg
_reconstructor
p1
(csts.dataplane_traces.trace
DataplaneEvent
p2
c__builtin__
object
p3
Ntp4
Rp5
(dp6
S'interface'
p7
g1
(csts.entities
HostInterface
p8
g3
Ntp9
Rp10
(dp11
S'hw_addr'
p12
g1
(cpox.lib.addresses
EthAddr
p13
g3
Ntp14
Rp15
(dp16
S'value'
p17
S'\x124Vx\x04\x04'
p18
sbsS'ips'
p19
(lp20
g1
(cpox.lib.addresses
IPAddr
p21
g3
Ntp22
Rp23
(dp24
g17
I67402619
sbasS'name'
p25
S'eth4'
p26
sbsS'packet'
p27
g1
(cpox.lib.packet.ethernet
ethernet
p28
g3
Ntp29
Rp30
(dp31
S'src'
p32
g15
sS'dst'
p33
g1
(g13
g3
Ntp34
Rp35
(dp36
g17
S'\x124Vx\x03\x04'
p37
sbsS'next'
p38
g1
(cpox.lib.packet.ipv4
ipv4
p39
g3
Ntp40
Rp41
(dp42
S'frag'
p43
I0
sS'csum'
p44
I36020
sS'dstip'
p45
g1
(g21
g3
Ntp46
Rp47
(dp48
g17
I67337083
sbsS'protocol'
p49
I1
sS'srcip'
p50
g23
sS'tos'
p51
I0
sS'ttl'
p52
I64
sS'iplen'
p53
I72
sg38
g1
(cpox.lib.packet.icmp
icmp
p54
g3
Ntp55
Rp56
(dp57
S'code'
p58
I0
sg44
I1591
sS'prev'
p59
g41
sS'type'
p60
I8
sg38
S'PingPingPingPingPingPingPingPingPingPingPingPing'
p61
sbsS'raw'
p62
NsS'flags'
p63
I0
sS'hl'
p64
I5
sS'v'
p65
I4
sS'id'
p66
I61442
sg59
g30
sS'parsed'
p67
I00
sbsg62
Nsg59
Nsg60
I2048
sg67
I00
sbsbag1
(g2
g3
Ntp68
Rp69
(dp70
g7
g1
(g8
g3
Ntp71
Rp72
(dp73
g12
g1
(g13
g3
Ntp74
Rp75
(dp76
g17
S'\x124Vx\x01\x04'
p77
sbsg19
(lp78
g1
(g21
g3
Ntp79
Rp80
(dp81
g17
I67206011
sbasg25
S'eth1'
p82
sbsg27
g1
(g28
g3
Ntp83
Rp84
(dp85
g32
g75
sg33
g1
(g13
g3
Ntp86
Rp87
(dp88
g17
S'\x124Vx\x02\x04'
p89
sbsg38
g1
(g39
g3
Ntp90
Rp91
(dp92
g43
I0
sg44
I37043
sg45
g1
(g21
g3
Ntp93
Rp94
(dp95
g17
I67271547
sbsg49
I1
sg50
g80
sg51
I0
sg52
I64
sg53
I72
sg38
g1
(g54
g3
Ntp96
Rp97
(dp98
g58
I0
sg44
I1591
sg59
g91
sg60
I8
sg38
S'PingPingPingPingPingPingPingPingPingPingPingPing'
p99
sbsg62
Nsg63
I0
sg64
I5
sg65
I4
sg66
I61443
sg59
g84
sg67
I00
sbsg62
Nsg59
Nsg60
I2048
sg67
I00
sbsbag1
(g2
g3
Ntp100
Rp101
(dp102
g7
g72
sg27
g1
(g28
g3
Ntp103
Rp104
(dp105
g32
g75
sg33
g87
sg38
g1
(g39
g3
Ntp106
Rp107
(dp108
g43
I0
sg44
I37042
sg45
g94
sg49
I1
sg50
g80
sg51
I0
sg52
I64
sg53
I72
sg38
g1
(g54
g3
Ntp109
Rp110
(dp111
g58
I0
sg44
I3639
sg59
g107
sg60
I0
sg38
S'PingPingPingPingPingPingPingPingPingPingPingPing'
p112
sbsg62
Nsg63
I0
sg64
I5
sg65
I4
sg66
I61444
sg59
g104
sg67
I00
sbsg62
Nsg59
Nsg60
I2048
sg67
I00
sbsbag1
(g2
g3
Ntp113
Rp114
(dp115
g7
g72
sg27
g1
(g28
g3
Ntp116
Rp117
(dp118
g32
g75
sg33
g15
sg38
g1
(g39
g3
Ntp119
Rp120
(dp121
g43
I0
sg44
I36529
sg45
g23
sg49
I1
sg50
g80
sg51
I0
sg52
I64
sg53
I72
sg38
g1
(g54
g3
Ntp122
Rp123
(dp124
g58
I0
sg44
I1591
sg59
g120
sg60
I8
sg38
S'PingPingPingPingPingPingPingPingPingPingPingPing'
p125
sbsg62
Nsg63
I0
sg64
I5
sg65
I4
sg66
I61445
sg59
g117
sg67
I00
sbsg62
Nsg59
Nsg60
I2048
sg67
I00
sbsbag1
(g2
g3
Ntp126
Rp127
(dp128
g7
g10
sg27
g1
(g28
g3
Ntp129
Rp130
(dp131
g32
g15
sg33
g87
sg38
g1
(g39
g3
Ntp132
Rp133
(dp134
g43
I0
sg44
I36272
sg45
g94
sg49
I1
sg50
g23
sg51
I0
sg52
I64
sg53
I72
sg38
g1
(g54
g3
Ntp135
Rp136
(dp137
g58
I0
sg44
I1591
sg59
g133
sg60
I8
sg38
S'PingPingPingPingPingPingPingPingPingPingPingPing'
p138
sbsg62
Nsg63
I0
sg64
I5
sg65
I4
sg66
I61446
sg59
g130
sg67
I00
sbsg62
Nsg59
Nsg60
I2048
sg67
I00
sbsbag1
(g2
g3
Ntp139
Rp140
(dp141
g7
g1
(g8
g3
Ntp142
Rp143
(dp144
g12
g87
sg19
(lp145
g94
asg25
S'eth2'
p146
sbsg27
g1
(g28
g3
Ntp147
Rp148
(dp149
g32
g87
sg33
g75
sg38
g1
(g39
g3
Ntp150
Rp151
(dp152
g43
I0
sg44
I37039
sg45
g80
sg49
I1
sg50
g94
sg51
I0
sg52
I64
sg53
I72
sg38
g1
(g54
g3
Ntp153
Rp154
(dp155
g58
I0
sg44
I3639
sg59
g151
sg60
I0
sg38
S'PingPingPingPingPingPingPingPingPingPingPingPing'
p156
sbsg62
Nsg63
I0
sg64
I5
sg65
I4
sg66
I61447
sg59
g148
sg67
I00
sbsg62
Nsg59
Nsg60
I2048
sg67
I00
sbsbag1
(g2
g3
Ntp157
Rp158
(dp159
g7
g1
(g8
g3
Ntp160
Rp161
(dp162
g12
g35
sg19
(lp163
g47
asg25
S'eth3'
p164
sbsg27
g1
(g28
g3
Ntp165
Rp166
(dp167
g32
g35
sg33
g75
sg38
g1
(g39
g3
Ntp168
Rp169
(dp170
g43
I0
sg44
I36782
sg45
g80
sg49
I1
sg50
g47
sg51
I0
sg52
I64
sg53
I72
sg38
g1
(g54
g3
Ntp171
Rp172
(dp173
g58
I0
sg44
I1591
sg59
g169
sg60
I8
sg38
S'PingPingPingPingPingPingPingPingPingPingPingPing'
p174
sbsg62
Nsg63
I0
sg64
I5
sg65
I4
sg66
I61448
sg59
g166
sg67
I00
sbsg62
Nsg59
Nsg60
I2048
sg67
I00
sbsbag1
(g2
g3
Ntp175
Rp176
(dp177
g7
g143
sg27
g1
(g28
g3
Ntp178
Rp179
(dp180
g32
g87
sg33
g35
sg38
g1
(g39
g3
Ntp181
Rp182
(dp183
g43
I0
sg44
I36525
sg45
g47
sg49
I1
sg50
g94
sg51
I0
sg52
I64
sg53
I72
sg38
g1
(g54
g3
Ntp184
Rp185
(dp186
g58
I0
sg44
I3639
sg59
g182
sg60
I0
sg38
S'PingPingPingPingPingPingPingPingPingPingPingPing'
p187
sbsg62
Nsg63
I0
sg64
I5
sg65
I4
sg66
I61449
sg59
g179
sg67
I00
sbsg62
Nsg59
Nsg60
I2048
sg67
I00
sbsbag1
(g2
g3
Ntp188
Rp189
(dp190
g7
g72
sg27
g1
(g28
g3
Ntp191
Rp192
(dp193
g32
g75
sg33
g87
sg38
g1
(g39
g3
Ntp194
Rp195
(dp196
g43
I0
sg44
I37024
sg45
g94
sg49
I1
sg50
g80
sg51
I0
sg52
I64
sg53
I72
sg38
g1
(g54
g3
Ntp197
Rp198
(dp199
g58
I0
sg44
I1591
sg59
g195
sg60
I8
sg38
S'PingPingPingPingPingPingPingPingPingPingPingPing'
p200
sbsg62
Nsg63
I0
sg64
I5
sg65
I4
sg66
I61462
sg59
g192
sg67
I00
sbsg62
Nsg59
Nsg60
I2048
sg67
I00
sbsbag1
(g2
g3
Ntp201
Rp202
(dp203
g7
g10
sg27
g1
(g28
g3
Ntp204
Rp205
(dp206
g32
g15
sg33
g35
sg38
g1
(g39
g3
Ntp207
Rp208
(dp209
g43
I0
sg44
I35919
sg45
g47
sg49
I1
sg50
g23
sg51
I0
sg52
I64
sg53
I72
sg38
g1
(g54
g3
Ntp210
Rp211
(dp212
g58
I0
sg44
I3639
sg59
g208
sg60
I0
sg38
S'PingPingPingPingPingPingPingPingPingPingPingPing'
p213
sbsg62
Nsg63
I0
sg64
I5
sg65
I4
sg66
I61543
sg59
g205
sg67
I00
sbsg62
Nsg59
Nsg60
I2048
sg67
I00
sbsbag1
(g2
g3
Ntp214
Rp215
(dp216
g7
g72
sg27
g1
(g28
g3
Ntp217
Rp218
(dp219
g32
g75
sg33
g87
sg38
g1
(g39
g3
Ntp220
Rp221
(dp222
g43
I0
sg44
I36926
sg45
g94
sg49
I1
sg50
g80
sg51
I0
sg52
I64
sg53
I72
sg38
g1
(g54
g3
Ntp223
Rp224
(dp225
g58
I0
sg44
I1591
sg59
g221
sg60
I8
sg38
S'PingPingPingPingPingPingPingPingPingPingPingPing'
p226
sbsg62
Nsg63
I0
sg64
I5
sg65
I4
sg66
I61560
sg59
g218
sg67
I00
sbsg62
Nsg59
Nsg60
I2048
sg67
I00
sbsbag1
(g2
g3
Ntp227
Rp228
(dp229
g7
g72
sg27
g1
(g28
g3
Ntp230
Rp231
(dp232
g32
g75
sg33
g35
sg38
g1
(g39
g3
Ntp233
Rp234
(dp235
g43
I0
sg44
I36565
sg45
g47
sg49
I1
sg50
g80
sg51
I0
sg52
I64
sg53
I72
sg38
g1
(g54
g3
Ntp236
Rp237
(dp238
g58
I0
sg44
I1591
sg59
g234
sg60
I8
sg38
S'PingPingPingPingPingPingPingPingPingPingPingPing'
p239
sbsg62
Nsg63
I0
sg64
I5
sg65
I4
sg66
I61665
sg59
g231
sg67
I00
sbsg62
Nsg59
Nsg60
I2048
sg67
I00
sbsbag1
(g2
g3
Ntp240
Rp241
(dp242
g7
g143
sg27
g1
(g28
g3
Ntp243
Rp244
(dp245
g32
g87
sg33
g35
sg38
g1
(g39
g3
Ntp246
Rp247
(dp248
g43
I0
sg44
I36308
sg45
g47
sg49
I1
sg50
g94
sg51
I0
sg52
I64
sg53
I72
sg38
g1
(g54
g3
Ntp249
Rp250
(dp251
g58
I0
sg44
I1591
sg59
g247
sg60
I8
sg38
S'PingPingPingPingPingPingPingPingPingPingPingPing'
p252
sbsg62
Nsg63
I0
sg64
I5
sg65
I4
sg66
I61666
sg59
g244
sg67
I00
sbsg62
Nsg59
Nsg60
I2048
sg67
I00
sbsbag1
(g2
g3
Ntp253
Rp254
(dp255
g7
g143
sg27
g1
(g28
g3
Ntp256
Rp257
(dp258
g32
g87
sg33
g35
sg38
g1
(g39
g3
Ntp259
Rp260
(dp261
g43
I0
sg44
I36285
sg45
g47
sg49
I1
sg50
g94
sg51
I0
sg52
I64
sg53
I72
sg38
g1
(g54
g3
Ntp262
Rp263
(dp264
g58
I0
sg44
I3639
sg59
g260
sg60
I0
sg38
S'PingPingPingPingPingPingPingPingPingPingPingPing'
p265
sbsg62
Nsg63
I0
sg64
I5
sg65
I4
sg66
I61689
sg59
g257
sg67
I00
sbsg62
Nsg59
Nsg60
I2048
sg67
I00
sbsbag1
(g2
g3
Ntp266
Rp267
(dp268
g7
g161
sg27
g1
(g28
g3
Ntp269
Rp270
(dp271
g32
g35
sg33
g87
sg38
g1
(g39
g3
Ntp272
Rp273
(dp274
g43
I0
sg44
I36268
sg45
g94
sg49
I1
sg50
g47
sg51
I0
sg52
I64
sg53
I72
sg38
g1
(g54
g3
Ntp275
Rp276
(dp277
g58
I0
sg44
I1591
sg59
g273
sg60
I8
sg38
S'PingPingPingPingPingPingPingPingPingPingPingPing'
p278
sbsg62
Nsg63
I0
sg64
I5
sg65
I4
sg66
I61706
sg59
g270
sg67
I00
sbsg62
Nsg59
Nsg60
I2048
sg67
I00
sbsba.