(lp0
ccopy_reg
_reconstructor
p1
(csts.dataplane_traces.trace
DataplaneEvent
p2
c__builtin__
object
p3
Ntp4
Rp5
(dp6
S'interface'
p7
g1
(csts.entities
HostInterface
p8
g3
Ntp9
Rp10
(dp11
S'hw_addr'
p12
g1
(cpox.lib.addresses
EthAddr
p13
g3
Ntp14
Rp15
(dp16
S'value'
p17
S'\x124Vx\x01\x02'
p18
sbsS'ips'
p19
(lp20
g1
(cpox.lib.addresses
IPAddr
p21
g3
Ntp22
Rp23
(dp24
g17
I33651579
sbasS'name'
p25
S'eth1'
p26
sbsS'packet'
p27
g1
(cpox.lib.packet.ethernet
ethernet
p28
g3
Ntp29
Rp30
(dp31
S'src'
p32
g15
sS'dst'
p33
g1
(g13
g3
Ntp34
Rp35
(dp36
g17
S'\x124Vx\x02\x02'
p37
sbsS'next'
p38
g1
(cpox.lib.packet.ipv4
ipv4
p39
g3
Ntp40
Rp41
(dp42
S'frag'
p43
I0
sS'csum'
p44
I20990
sS'dstip'
p45
g1
(g21
g3
Ntp46
Rp47
(dp48
g17
I33717115
sbsS'protocol'
p49
I1
sS'srcip'
p50
g23
sS'tos'
p51
I0
sS'ttl'
p52
I64
sS'iplen'
p53
I72
sg38
g1
(cpox.lib.packet.icmp
icmp
p54
g3
Ntp55
Rp56
(dp57
S'code'
p58
I0
sg44
I1591
sS'prev'
p59
g41
sS'type'
p60
I8
sg38
S'PingPingPingPingPingPingPingPingPingPingPingPing'
p61
sbsS'raw'
p62
NsS'flags'
p63
I0
sS'hl'
p64
I5
sS'v'
p65
I4
sS'id'
p66
I11965
sg59
g30
sS'parsed'
p67
I00
sbsg62
Nsg59
Nsg60
I2048
sg67
I00
sbsbag1
(g2
g3
Ntp68
Rp69
(dp70
g7
g1
(g8
g3
Ntp71
Rp72
(dp73
g12
g35
sg19
(lp74
g47
asg25
S'eth2'
p75
sbsg27
g1
(g28
g3
Ntp76
Rp77
(dp78
g32
g35
sg33
g15
sg38
g1
(g39
g3
Ntp79
Rp80
(dp81
g43
I0
sg44
I20989
sg45
g23
sg49
I1
sg50
g47
sg51
I0
sg52
I64
sg53
I72
sg38
g1
(g54
g3
Ntp82
Rp83
(dp84
g58
I0
sg44
I1591
sg59
g80
sg60
I8
sg38
S'PingPingPingPingPingPingPingPingPingPingPingPing'
p85
sbsg62
Nsg63
I0
sg64
I5
sg65
I4
sg66
I11966
sg59
g77
sg67
I00
sbsg62
Nsg59
Nsg60
I2048
sg67
I00
sbsbag1
(g2
g3
Ntp86
Rp87
(dp88
g7
g72
sg27
g1
(g28
g3
Ntp89
Rp90
(dp91
g32
g35
sg33
g15
sg38
g1
(g39
g3
Ntp92
Rp93
(dp94
g43
I0
sg44
I20988
sg45
g23
sg49
I1
sg50
g47
sg51
I0
sg52
I64
sg53
I72
sg38
g1
(g54
g3
Ntp95
Rp96
(dp97
g58
I0
sg44
I1591
sg59
g93
sg60
I8
sg38
S'PingPingPingPingPingPingPingPingPingPingPingPing'
p98
sbsg62
Nsg63
I0
sg64
I5
sg65
I4
sg66
I11967
sg59
g90
sg67
I00
sbsg62
Nsg59
Nsg60
I2048
sg67
I00
sbsbag1
(g2
g3
Ntp99
Rp100
(dp101
g7
g72
sg27
g1
(g28
g3
Ntp102
Rp103
(dp104
g32
g35
sg33
g15
sg38
g1
(g39
g3
Ntp105
Rp106
(dp107
g43
I0
sg44
I0
sg45
g23
sg49
I1
sg50
g47
sg51
I0
sg52
I64
sg53
I20
sg38
g1
(g54
g3
Ntp108
Rp109
(dp110
g58
I0
sg44
I0
sg59
g106
sg60
I8
sg38
S'PingPingPingPingPingPingPingPingPingPingPingPing'
p111
sbsg62
Nsg63
I0
sg64
I5
sg65
I4
sg66
I11968
sg59
g103
sg67
I00
sbsg62
Nsg59
Nsg60
I2048
sg67
I00
sbsbag1
(g2
g3
Ntp112
Rp113
(dp114
g7
g10
sg27
g1
(g28
g3
Ntp115
Rp116
(dp117
g32
g15
sg33
g35
sg38
g1
(g39
g3
Ntp118
Rp119
(dp120
g43
I0
sg44
I20986
sg45
g47
sg49
I1
sg50
g23
sg51
I0
sg52
I64
sg53
I72
sg38
g1
(g54
g3
Ntp121
Rp122
(dp123
g58
I0
sg44
I3639
sg59
g119
sg60
I0
sg38
S'PingPingPingPingPingPingPingPingPingPingPingPing'
p124
sbsg62
Nsg63
I0
sg64
I5
sg65
I4
sg66
I11969
sg59
g116
sg67
I00
sbsg62
Nsg59
Nsg60
I2048
sg67
I00
sbsbag1
(g2
g3
Ntp125
Rp126
(dp127
g7
g72
sg27
g1
(g28
g3
Ntp128
Rp129
(dp130
g32
g35
sg33
g15
sg38
g1
(g39
g3
Ntp131
Rp132
(dp133
g43
I0
sg44
I0
sg45
g23
sg49
I1
sg50
g47
sg51
I0
sg52
I64
sg53
I20
sg38
g1
(g54
g3
Ntp134
Rp135
(dp136
g58
I0
sg44
I0
sg59
g132
sg60
I0
sg38
S'PingPingPingPingPingPingPingPingPingPingPingPing'
p137
sbsg62
Nsg63
I0
sg64
I5
sg65
I4
sg66
I11970
sg59
g129
sg67
I00
sbsg62
Nsg59
Nsg60
I2048
sg67
I00
sbsbag1
(g2
g3
Ntp138
Rp139
(dp140
g7
g10
sg27
g1
(g28
g3
Ntp141
Rp142
(dp143
g32
g15
sg33
g35
sg38
g1
(g39
g3
Ntp144
Rp145
(dp146
g43
I0
sg44
I20984
sg45
g47
sg49
I1
sg50
g23
sg51
I0
sg52
I64
sg53
I72
sg38
g1
(g54
g3
Ntp147
Rp148
(dp149
g58
I0
sg44
I1591
sg59
g145
sg60
I8
sg38
S'PingPingPingPingPingPingPingPingPingPingPingPing'
p150
sbsg62
Nsg63
I0
sg64
I5
sg65
I4
sg66
I11971
sg59
g142
sg67
I00
sbsg62
Nsg59
Nsg60
I2048
sg67
I00
sbsbag1
(g2
g3
Ntp151
Rp152
(dp153
g7
g72
sg27
g1
(g28
g3
Ntp154
Rp155
(dp156
g32
g35
sg33
g15
sg38
g1
(g39
g3
Ntp157
Rp158
(dp159
g43
I0
sg44
I0
sg45
g23
sg49
I1
sg50
g47
sg51
I0
sg52
I64
sg53
I20
sg38
g1
(g54
g3
Ntp160
Rp161
(dp162
g58
I0
sg44
I0
sg59
g158
sg60
I0
sg38
S'PingPingPingPingPingPingPingPingPingPingPingPing'
p163
sbsg62
Nsg63
I0
sg64
I5
sg65
I4
sg66
I11972
sg59
g155
sg67
I00
sbsg62
Nsg59
Nsg60
I2048
sg67
I00
sbsbag1
(g2
g3
Ntp164
Rp165
(dp166
g7
g10
sg27
g1
(g28
g3
Ntp167
Rp168
(dp169
g32
g15
sg33
g35
sg38
g1
(g39
g3
Ntp170
Rp171
(dp172
g43
I0
sg44
I20982
sg45
g47
sg49
I1
sg50
g23
sg51
I0
sg52
I64
sg53
I72
sg38
g1
(g54
g3
Ntp173
Rp174
(dp175
g58
I0
sg44
I1591
sg59
g171
sg60
I8
sg38
S'PingPingPingPingPingPingPingPingPingPingPingPing'
p176
sbsg62
Nsg63
I0
sg64
I5
sg65
I4
sg66
I11973
sg59
g168
sg67
I00
sbsg62
Nsg59
Nsg60
I2048
sg67
I00
sbsbag1
(g2
g3
Ntp177
Rp178
(dp179
g7
g72
sg27
g1
(g28
g3
Ntp180
Rp181
(dp182
g32
g35
sg33
g15
sg38
g1
(g39
g3
Ntp183
Rp184
(dp185
g43
I0
sg44
I20981
sg45
g23
sg49
I1
sg50
g47
sg51
I0
sg52
I64
sg53
I72
sg38
g1
(g54
g3
Ntp186
Rp187
(dp188
g58
I0
sg44
I3639
sg59
g184
sg60
I0
sg38
S'PingPingPingPingPingPingPingPingPingPingPingPing'
p189
sbsg62
Nsg63
I0
sg64
I5
sg65
I4
sg66
I11974
sg59
g181
sg67
I00
sbsg62
Nsg59
Nsg60
I2048
sg67
I00
sbsbag1
(g2
g3
Ntp190
Rp191
(dp192
g7
g10
sg27
g1
(g28
g3
Ntp193
Rp194
(dp195
g32
g15
sg33
g35
sg38
g1
(g39
g3
Ntp196
Rp197
(dp198
g43
I0
sg44
I0
sg45
g47
sg49
I1
sg50
g23
sg51
I0
sg52
I64
sg53
I20
sg38
g1
(g54
g3
Ntp199
Rp200
(dp201
g58
I0
sg44
I0
sg59
g197
sg60
I8
sg38
S'PingPingPingPingPingPingPingPingPingPingPingPing'
p202
sbsg62
Nsg63
I0
sg64
I5
sg65
I4
sg66
I11975
sg59
g194
sg67
I00
sbsg62
Nsg59
Nsg60
I2048
sg67
I00
sbsbag1
(g2
g3
Ntp203
Rp204
(dp205
g7
g72
sg27
g1
(g28
g3
Ntp206
Rp207
(dp208
g32
g35
sg33
g15
sg38
g1
(g39
g3
Ntp209
Rp210
(dp211
g43
I0
sg44
I20979
sg45
g23
sg49
I1
sg50
g47
sg51
I0
sg52
I64
sg53
I72
sg38
g1
(g54
g3
Ntp212
Rp213
(dp214
g58
I0
sg44
I3639
sg59
g210
sg60
I0
sg38
S'PingPingPingPingPingPingPingPingPingPingPingPing'
p215
sbsg62
Nsg63
I0
sg64
I5
sg65
I4
sg66
I11976
sg59
g207
sg67
I00
sbsg62
Nsg59
Nsg60
I2048
sg67
I00
sbsbag1
(g2
g3
Ntp216
Rp217
(dp218
g7
g72
sg27
g1
(g28
g3
Ntp219
Rp220
(dp221
g32
g35
sg33
g15
sg38
g1
(g39
g3
Ntp222
Rp223
(dp224
g43
I0
sg44
I0
sg45
g23
sg49
I1
sg50
g47
sg51
I0
sg52
I64
sg53
I20
sg38
g1
(g54
g3
Ntp225
Rp226
(dp227
g58
I0
sg44
I0
sg59
g223
sg60
I8
sg38
S'PingPingPingPingPingPingPingPingPingPingPingPing'
p228
sbsg62
Nsg63
I0
sg64
I5
sg65
I4
sg66
I11993
sg59
g220
sg67
I00
sbsg62
Nsg59
Nsg60
I2048
sg67
I00
sbsbag1
(g2
g3
Ntp229
Rp230
(dp231
g7
g10
sg27
g1
(g28
g3
Ntp232
Rp233
(dp234
g32
g15
sg33
g35
sg38
g1
(g39
g3
Ntp235
Rp236
(dp237
g43
I0
sg44
I20957
sg45
g47
sg49
I1
sg50
g23
sg51
I0
sg52
I64
sg53
I72
sg38
g1
(g54
g3
Ntp238
Rp239
(dp240
g58
I0
sg44
I1591
sg59
g236
sg60
I8
sg38
S'PingPingPingPingPingPingPingPingPingPingPingPing'
p241
sbsg62
Nsg63
I0
sg64
I5
sg65
I4
sg66
I11998
sg59
g233
sg67
I00
sbsg62
Nsg59
Nsg60
I2048
sg67
I00
sbsbag1
(g2
g3
Ntp242
Rp243
(dp244
g7
g10
sg27
g1
(g28
g3
Ntp245
Rp246
(dp247
g32
g15
sg33
g35
sg38
g1
(g39
g3
Ntp248
Rp249
(dp250
g43
I0
sg44
I20952
sg45
g47
sg49
I1
sg50
g23
sg51
I0
sg52
I64
sg53
I72
sg38
g1
(g54
g3
Ntp251
Rp252
(dp253
g58
I0
sg44
I1591
sg59
g249
sg60
I8
sg38
S'PingPingPingPingPingPingPingPingPingPingPingPing'
p254
sbsg62
Nsg63
I0
sg64
I5
sg65
I4
sg66
I12003
sg59
g246
sg67
I00
sbsg62
Nsg59
Nsg60
I2048
sg67
I00
sbsbag1
(g2
g3
Ntp255
Rp256
(dp257
g7
g72
sg27
g1
(g28
g3
Ntp258
Rp259
(dp260
g32
g35
sg33
g15
sg38
g1
(g39
g3
Ntp261
Rp262
(dp263
g43
I0
sg44
I0
sg45
g23
sg49
I1
sg50
g47
sg51
I0
sg52
I64
sg53
I20
sg38
g1
(g54
g3
Ntp264
Rp265
(dp266
g58
I0
sg44
I0
sg59
g262
sg60
I0
sg38
S'PingPingPingPingPingPingPingPingPingPingPingPing'
p267
sbsg62
Nsg63
I0
sg64
I5
sg65
I4
sg66
I12004
sg59
g259
sg67
I00
sbsg62
Nsg59
Nsg60
I2048
sg67
I00
sbsbag1
(g2
g3
Ntp268
Rp269
(dp270
g7
g10
sg27
g1
(g28
g3
Ntp271
Rp272
(dp273
g32
g15
sg33
g35
sg38
g1
(g39
g3
Ntp274
Rp275
(dp276
g43
I0
sg44
I0
sg45
g47
sg49
I1
sg50
g23
sg51
I0
sg52
I64
sg53
I20
sg38
g1
(g54
g3
Ntp277
Rp278
(dp279
g58
I0
sg44
I0
sg59
g275
sg60
I0
sg38
S'PingPingPingPingPingPingPingPingPingPingPingPing'
p280
sbsg62
Nsg63
I0
sg64
I5
sg65
I4
sg66
I12009
sg59
g272
sg67
I00
sbsg62
Nsg59
Nsg60
I2048
sg67
I00
sbsbag1
(g2
g3
Ntp281
Rp282
(dp283
g7
g10
sg27
g1
(g28
g3
Ntp284
Rp285
(dp286
g32
g15
sg33
g35
sg38
g1
(g39
g3
Ntp287
Rp288
(dp289
g43
I0
sg44
I20945
sg45
g47
sg49
I1
sg50
g23
sg51
I0
sg52
I64
sg53
I72
sg38
g1
(g54
g3
Ntp290
Rp291
(dp292
g58
I0
sg44
I1591
sg59
g288
sg60
I8
sg38
S'PingPingPingPingPingPingPingPingPingPingPingPing'
p293
sbsg62
Nsg63
I0
sg64
I5
sg65
I4
sg66
I12010
sg59
g285
sg67
I00
sbsg62
Nsg59
Nsg60
I2048
sg67
I00
sbsbag1
(g2
g3
Ntp294
Rp295
(dp296
g7
g72
sg27
g1
(g28
g3
Ntp297
Rp298
(dp299
g32
g35
sg33
g15
sg38
g1
(g39
g3
Ntp300
Rp301
(dp302
g43
I0
sg44
I0
sg45
g23
sg49
I1
sg50
g47
sg51
I0
sg52
I64
sg53
I20
sg38
g1
(g54
g3
Ntp303
Rp304
(dp305
g58
I0
sg44
I0
sg59
g301
sg60
I8
sg38
S'PingPingPingPingPingPingPingPingPingPingPingPing'
p306
sbsg62
Nsg63
I0
sg64
I5
sg65
I4
sg66
I12011
sg59
g298
sg67
I00
sbsg62
Nsg59
Nsg60
I2048
sg67
I00
sbsbag1
(g2
g3
Ntp307
Rp308
(dp309
g7
g10
sg27
g1
(g28
g3
Ntp310
Rp311
(dp312
g32
g15
sg33
g35
sg38
g1
(g39
g3
Ntp313
Rp314
(dp315
g43
I0
sg44
I20939
sg45
g47
sg49
I1
sg50
g23
sg51
I0
sg52
I64
sg53
I72
sg38
g1
(g54
g3
Ntp316
Rp317
(dp318
g58
I0
sg44
I3639
sg59
g314
sg60
I0
sg38
S'PingPingPingPingPingPingPingPingPingPingPingPing'
p319
sbsg62
Nsg63
I0
sg64
I5
sg65
I4
sg66
I12016
sg59
g311
sg67
I00
sbsg62
Nsg59
Nsg60
I2048
sg67
I00
sbsbag1
(g2
g3
Ntp320
Rp321
(dp322
g7
g10
sg27
g1
(g28
g3
Ntp323
Rp324
(dp325
g32
g15
sg33
g35
sg38
g1
(g39
g3
Ntp326
Rp327
(dp328
g43
I0
sg44
I0
sg45
g47
sg49
I1
sg50
g23
sg51
I0
sg52
I64
sg53
I20
sg38
g1
(g54
g3
Ntp329
Rp330
(dp331
g58
I0
sg44
I0
sg59
g327
sg60
I8
sg38
S'PingPingPingPingPingPingPingPingPingPingPingPing'
p332
sbsg62
Nsg63
I0
sg64
I5
sg65
I4
sg66
I12017
sg59
g324
sg67
I00
sbsg62
Nsg59
Nsg60
I2048
sg67
I00
sbsbag1
(g2
g3
Ntp333
Rp334
(dp335
g7
g10
sg27
g1
(g28
g3
Ntp336
Rp337
(dp338
g32
g15
sg33
g35
sg38
g1
(g39
g3
Ntp339
Rp340
(dp341
g43
I0
sg44
I20937
sg45
g47
sg49
I1
sg50
g23
sg51
I0
sg52
I64
sg53
I72
sg38
g1
(g54
g3
Ntp342
Rp343
(dp344
g58
I0
sg44
I1591
sg59
g340
sg60
I8
sg38
S'PingPingPingPingPingPingPingPingPingPingPingPing'
p345
sbsg62
Nsg63
I0
sg64
I5
sg65
I4
sg66
I12018
sg59
g337
sg67
I00
sbsg62
Nsg59
Nsg60
I2048
sg67
I00
sbsbag1
(g2
g3
Ntp346
Rp347
(dp348
g7
g10
sg27
g1
(g28
g3
Ntp349
Rp350
(dp351
g32
g15
sg33
g35
sg38
g1
(g39
g3
Ntp352
Rp353
(dp354
g43
I0
sg44
I0
sg45
g47
sg49
I1
sg50
g23
sg51
I0
sg52
I64
sg53
I20
sg38
g1
(g54
g3
Ntp355
Rp356
(dp357
g58
I0
sg44
I0
sg59
g353
sg60
I8
sg38
S'PingPingPingPingPingPingPingPingPingPingPingPing'
p358
sbsg62
Nsg63
I0
sg64
I5
sg65
I4
sg66
I12019
sg59
g350
sg67
I00
sbsg62
Nsg59
Nsg60
I2048
sg67
I00
sbsbag1
(g2
g3
Ntp359
Rp360
(dp361
g7
g10
sg27
g1
(g28
g3
Ntp362
Rp363
(dp364
g32
g15
sg33
g35
sg38
g1
(g39
g3
Ntp365
Rp366
(dp367
g43
I0
sg44
I20935
sg45
g47
sg49
I1
sg50
g23
sg51
I0
sg52
I64
sg53
I72
sg38
g1
(g54
g3
Ntp368
Rp369
(dp370
g58
I0
sg44
I3639
sg59
g366
sg60
I0
sg38
S'PingPingPingPingPingPingPingPingPingPingPingPing'
p371
sbsg62
Nsg63
I0
sg64
I5
sg65
I4
sg66
I12020
sg59
g363
sg67
I00
sbsg62
Nsg59
Nsg60
I2048
sg67
I00
sbsbag1
(g2
g3
Ntp372
Rp373
(dp374
g7
g72
sg27
g1
(g28
g3
Ntp375
Rp376
(dp377
g32
g35
sg33
g15
sg38
g1
(g39
g3
Ntp378
Rp379
(dp380
g43
I0
sg44
I20934
sg45
g23
sg49
I1
sg50
g47
sg51
I0
sg52
I64
sg53
I72
sg38
g1
(g54
g3
Ntp381
Rp382
(dp383
g58
I0
sg44
I3639
sg59
g379
sg60
I0
sg38
S'PingPingPingPingPingPingPingPingPingPingPingPing'
p384
sbsg62
Nsg63
I0
sg64
I5
sg65
I4
sg66
I12021
sg59
g376
sg67
I00
sbsg62
Nsg59
Nsg60
I2048
sg67
I00
sbsbag1
(g2
g3
Ntp385
Rp386
(dp387
g7
g10
sg27
g1
(g28
g3
Ntp388
Rp389
(dp390
g32
g15
sg33
g35
sg38
g1
(g39
g3
Ntp391
Rp392
(dp393
g43
I0
sg44
I20933
sg45
g47
sg49
I1
sg50
g23
sg51
I0
sg52
I64
sg53
I72
sg38
g1
(g54
g3
Ntp394
Rp395
(dp396
g58
I0
sg44
I3639
sg59
g392
sg60
I0
sg38
S'PingPingPingPingPingPingPingPingPingPingPingPing'
p397
sbsg62
Nsg63
I0
sg64
I5
sg65
I4
sg66
I12022
sg59
g389
sg67
I00
sbsg62
Nsg59
Nsg60
I2048
sg67
I00
sbsbag1
(g2
g3
Ntp398
Rp399
(dp400
g7
g10
sg27
g1
(g28
g3
Ntp401
Rp402
(dp403
g32
g15
sg33
g35
sg38
g1
(g39
g3
Ntp404
Rp405
(dp406
g43
I0
sg44
I0
sg45
g47
sg49
I1
sg50
g23
sg51
I0
sg52
I64
sg53
I20
sg38
g1
(g54
g3
Ntp407
Rp408
(dp409
g58
I0
sg44
I0
sg59
g405
sg60
I0
sg38
S'PingPingPingPingPingPingPingPingPingPingPingPing'
p410
sbsg62
Nsg63
I0
sg64
I5
sg65
I4
sg66
I12023
sg59
g402
sg67
I00
sbsg62
Nsg59
Nsg60
I2048
sg67
I00
sbsbag1
(g2
g3
Ntp411
Rp412
(dp413
g7
g72
sg27
g1
(g28
g3
Ntp414
Rp415
(dp416
g32
g35
sg33
g15
sg38
g1
(g39
g3
Ntp417
Rp418
(dp419
g43
I0
sg44
I20931
sg45
g23
sg49
I1
sg50
g47
sg51
I0
sg52
I64
sg53
I72
sg38
g1
(g54
g3
Ntp420
Rp421
(dp422
g58
I0
sg44
I1591
sg59
g418
sg60
I8
sg38
S'PingPingPingPingPingPingPingPingPingPingPingPing'
p423
sbsg62
Nsg63
I0
sg64
I5
sg65
I4
sg66
I12024
sg59
g415
sg67
I00
sbsg62
Nsg59
Nsg60
I2048
sg67
I00
sbsbag1
(g2
g3
Ntp424
Rp425
(dp426
g7
g72
sg27
g1
(g28
g3
Ntp427
Rp428
(dp429
g32
g35
sg33
g15
sg38
g1
(g39
g3
Ntp430
Rp431
(dp432
g43
I0
sg44
I0
sg45
g23
sg49
I1
sg50
g47
sg51
I0
sg52
I64
sg53
I20
sg38
g1
(g54
g3
Ntp433
Rp434
(dp435
g58
I0
sg44
I0
sg59
g431
sg60
I0
sg38
S'PingPingPingPingPingPingPingPingPingPingPingPing'
p436
sbsg62
Nsg63
I0
sg64
I5
sg65
I4
sg66
I12025
sg59
g428
sg67
I00
sbsg62
Nsg59
Nsg60
I2048
sg67
I00
sbsbag1
(g2
g3
Ntp437
Rp438
(dp439
g7
g10
sg27
g1
(g28
g3
Ntp440
Rp441
(dp442
g32
g15
sg33
g35
sg38
g1
(g39
g3
Ntp443
Rp444
(dp445
g43
I0
sg44
I20929
sg45
g47
sg49
I1
sg50
g23
sg51
I0
sg52
I64
sg53
I72
sg38
g1
(g54
g3
Ntp446
Rp447
(dp448
g58
I0
sg44
I3639
sg59
g444
sg60
I0
sg38
S'PingPingPingPingPingPingPingPingPingPingPingPing'
p449
sbsg62
Nsg63
I0
sg64
I5
sg65
I4
sg66
I12026
sg59
g441
sg67
I00
sbsg62
Nsg59
Nsg60
I2048
sg67
I00
sbsbag1
(g2
g3
Ntp450
Rp451
(dp452
g7
g72
sg27
g1
(g28
g3
Ntp453
Rp454
(dp455
g32
g35
sg33
g15
sg38
g1
(g39
g3
Ntp456
Rp457
(dp458
g43
I0
sg44
I0
sg45
g23
sg49
I1
sg50
g47
sg51
I0
sg52
I64
sg53
I20
sg38
g1
(g54
g3
Ntp459
Rp460
(dp461
g58
I0
sg44
I0
sg59
g457
sg60
I8
sg38
S'PingPingPingPingPingPingPingPingPingPingPingPing'
p462
sbsg62
Nsg63
I0
sg64
I5
sg65
I4
sg66
I12027
sg59
g454
sg67
I00
sbsg62
Nsg59
Nsg60
I2048
sg67
I00
sbsbag1
(g2
g3
Ntp463
Rp464
(dp465
g7
g72
sg27
g1
(g28
g3
Ntp466
Rp467
(dp468
g32
g35
sg33
g15
sg38
g1
(g39
g3
Ntp469
Rp470
(dp471
g43
I0
sg44
I20927
sg45
g23
sg49
I1
sg50
g47
sg51
I0
sg52
I64
sg53
I72
sg38
g1
(g54
g3
Ntp472
Rp473
(dp474
g58
I0
sg44
I1591
sg59
g470
sg60
I8
sg38
S'PingPingPingPingPingPingPingPingPingPingPingPing'
p475
sbsg62
Nsg63
I0
sg64
I5
sg65
I4
sg66
I12028
sg59
g467
sg67
I00
sbsg62
Nsg59
Nsg60
I2048
sg67
I00
sbsbag1
(g2
g3
Ntp476
Rp477
(dp478
g7
g10
sg27
g1
(g28
g3
Ntp479
Rp480
(dp481
g32
g15
sg33
g35
sg38
g1
(g39
g3
Ntp482
Rp483
(dp484
g43
I0
sg44
I20926
sg45
g47
sg49
I1
sg50
g23
sg51
I0
sg52
I64
sg53
I72
sg38
g1
(g54
g3
Ntp485
Rp486
(dp487
g58
I0
sg44
I3639
sg59
g483
sg60
I0
sg38
S'PingPingPingPingPingPingPingPingPingPingPingPing'
p488
sbsg62
Nsg63
I0
sg64
I5
sg65
I4
sg66
I12029
sg59
g480
sg67
I00
sbsg62
Nsg59
Nsg60
I2048
sg67
I00
sbsbag1
(g2
g3
Ntp489
Rp490
(dp491
g7
g72
sg27
g1
(g28
g3
Ntp492
Rp493
(dp494
g32
g35
sg33
g15
sg38
g1
(g39
g3
Ntp495
Rp496
(dp497
g43
I0
sg44
I20925
sg45
g23
sg49
I1
sg50
g47
sg51
I0
sg52
I64
sg53
I72
sg38
g1
(g54
g3
Ntp498
Rp499
(dp500
g58
I0
sg44
I1591
sg59
g496
sg60
I8
sg38
S'PingPingPingPingPingPingPingPingPingPingPingPing'
p501
sbsg62
Nsg63
I0
sg64
I5
sg65
I4
sg66
I12030
sg59
g493
sg67
I00
sbsg62
Nsg59
Nsg60
I2048
sg67
I00
sbsbag1
(g2
g3
Ntp502
Rp503
(dp504
g7
g10
sg27
g1
(g28
g3
Ntp505
Rp506
(dp507
g32
g15
sg33
g35
sg38
g1
(g39
g3
Ntp508
Rp509
(dp510
g43
I0
sg44
I20924
sg45
g47
sg49
I1
sg50
g23
sg51
I0
sg52
I64
sg53
I72
sg38
g1
(g54
g3
Ntp511
Rp512
(dp513
g58
I0
sg44
I1591
sg59
g509
sg60
I8
sg38
S'PingPingPingPingPingPingPingPingPingPingPingPing'
p514
sbsg62
Nsg63
I0
sg64
I5
sg65
I4
sg66
I12031
sg59
g506
sg67
I00
sbsg62
Nsg59
Nsg60
I2048
sg67
I00
sbsbag1
(g2
g3
Ntp515
Rp516
(dp517
g7
g72
sg27
g1
(g28
g3
Ntp518
Rp519
(dp520
g32
g35
sg33
g15
sg38
g1
(g39
g3
Ntp521
Rp522
(dp523
g43
I0
sg44
I20923
sg45
g23
sg49
I1
sg50
g47
sg51
I0
sg52
I64
sg53
I72
sg38
g1
(g54
g3
Ntp524
Rp525
(dp526
g58
I0
sg44
I1591
sg59
g522
sg60
I8
sg38
S'PingPingPingPingPingPingPingPingPingPingPingPing'
p527
sbsg62
Nsg63
I0
sg64
I5
sg65
I4
sg66
I12032
sg59
g519
sg67
I00
sbsg62
Nsg59
Nsg60
I2048
sg67
I00
sbsbag1
(g2
g3
Ntp528
Rp529
(dp530
g7
g10
sg27
g1
(g28
g3
Ntp531
Rp532
(dp533
g32
g15
sg33
g35
sg38
g1
(g39
g3
Ntp534
Rp535
(dp536
g43
I0
sg44
I0
sg45
g47
sg49
I1
sg50
g23
sg51
I0
sg52
I64
sg53
I20
sg38
g1
(g54
g3
Ntp537
Rp538
(dp539
g58
I0
sg44
I0
sg59
g535
sg60
I0
sg38
S'PingPingPingPingPingPingPingPingPingPingPingPing'
p540
sbsg62
Nsg63
I0
sg64
I5
sg65
I4
sg66
I12033
sg59
g532
sg67
I00
sbsg62
Nsg59
Nsg60
I2048
sg67
I00
sbsbag1
(g2
g3
Ntp541
Rp542
(dp543
g7
g10
sg27
g1
(g28
g3
Ntp544
Rp545
(dp546
g32
g15
sg33
g35
sg38
g1
(g39
g3
Ntp547
Rp548
(dp549
g43
I0
sg44
I0
sg45
g47
sg49
I1
sg50
g23
sg51
I0
sg52
I64
sg53
I20
sg38
g1
(g54
g3
Ntp550
Rp551
(dp552
g58
I0
sg44
I0
sg59
g548
sg60
I0
sg38
S'PingPingPingPingPingPingPingPingPingPingPingPing'
p553
sbsg62
Nsg63
I0
sg64
I5
sg65
I4
sg66
I12034
sg59
g545
sg67
I00
sbsg62
Nsg59
Nsg60
I2048
sg67
I00
sbsbag1
(g2
g3
Ntp554
Rp555
(dp556
g7
g72
sg27
g1
(g28
g3
Ntp557
Rp558
(dp559
g32
g35
sg33
g15
sg38
g1
(g39
g3
Ntp560
Rp561
(dp562
g43
I0
sg44
I20920
sg45
g23
sg49
I1
sg50
g47
sg51
I0
sg52
I64
sg53
I72
sg38
g1
(g54
g3
Ntp563
Rp564
(dp565
g58
I0
sg44
I3639
sg59
g561
sg60
I0
sg38
S'PingPingPingPingPingPingPingPingPingPingPingPing'
p566
sbsg62
Nsg63
I0
sg64
I5
sg65
I4
sg66
I12035
sg59
g558
sg67
I00
sbsg62
Nsg59
Nsg60
I2048
sg67
I00
sbsbag1
(g2
g3
Ntp567
Rp568
(dp569
g7
g72
sg27
g1
(g28
g3
Ntp570
Rp571
(dp572
g32
g35
sg33
g15
sg38
g1
(g39
g3
Ntp573
Rp574
(dp575
g43
I0
sg44
I20919
sg45
g23
sg49
I1
sg50
g47
sg51
I0
sg52
I64
sg53
I72
sg38
g1
(g54
g3
Ntp576
Rp577
(dp578
g58
I0
sg44
I1591
sg59
g574
sg60
I8
sg38
S'PingPingPingPingPingPingPingPingPingPingPingPing'
p579
sbsg62
Nsg63
I0
sg64
I5
sg65
I4
sg66
I12036
sg59
g571
sg67
I00
sbsg62
Nsg59
Nsg60
I2048
sg67
I00
sbsbag1
(g2
g3
Ntp580
Rp581
(dp582
g7
g72
sg27
g1
(g28
g3
Ntp583
Rp584
(dp585
g32
g35
sg33
g15
sg38
g1
(g39
g3
Ntp586
Rp587
(dp588
g43
I0
sg44
I20918
sg45
g23
sg49
I1
sg50
g47
sg51
I0
sg52
I64
sg53
I72
sg38
g1
(g54
g3
Ntp589
Rp590
(dp591
g58
I0
sg44
I1591
sg59
g587
sg60
I8
sg38
S'PingPingPingPingPingPingPingPingPingPingPingPing'
p592
sbsg62
Nsg63
I0
sg64
I5
sg65
I4
sg66
I12037
sg59
g584
sg67
I00
sbsg62
Nsg59
Nsg60
I2048
sg67
I00
sbsbag1
(g2
g3
Ntp593
Rp594
(dp595
g7
g72
sg27
g1
(g28
g3
Ntp596
Rp597
(dp598
g32
g35
sg33
g15
sg38
g1
(g39
g3
Ntp599
Rp600
(dp601
g43
I0
sg44
I0
sg45
g23
sg49
I1
sg50
g47
sg51
I0
sg52
I64
sg53
I20
sg38
g1
(g54
g3
Ntp602
Rp603
(dp604
g58
I0
sg44
I0
sg59
g600
sg60
I0
sg38
S'PingPingPingPingPingPingPingPingPingPingPingPing'
p605
sbsg62
Nsg63
I0
sg64
I5
sg65
I4
sg66
I12038
sg59
g597
sg67
I00
sbsg62
Nsg59
Nsg60
I2048
sg67
I00
sbsbag1
(g2
g3
Ntp606
Rp607
(dp608
g7
g10
sg27
g1
(g28
g3
Ntp609
Rp610
(dp611
g32
g15
sg33
g35
sg38
g1
(g39
g3
Ntp612
Rp613
(dp614
g43
I0
sg44
I0
sg45
g47
sg49
I1
sg50
g23
sg51
I0
sg52
I64
sg53
I20
sg38
g1
(g54
g3
Ntp615
Rp616
(dp617
g58
I0
sg44
I0
sg59
g613
sg60
I8
sg38
S'PingPingPingPingPingPingPingPingPingPingPingPing'
p618
sbsg62
Nsg63
I0
sg64
I5
sg65
I4
sg66
I12039
sg59
g610
sg67
I00
sbsg62
Nsg59
Nsg60
I2048
sg67
I00
sbsbag1
(g2
g3
Ntp619
Rp620
(dp621
g7
g72
sg27
g1
(g28
g3
Ntp622
Rp623
(dp624
g32
g35
sg33
g15
sg38
g1
(g39
g3
Ntp625
Rp626
(dp627
g43
I0
sg44
I0
sg45
g23
sg49
I1
sg50
g47
sg51
I0
sg52
I64
sg53
I20
sg38
g1
(g54
g3
Ntp628
Rp629
(dp630
g58
I0
sg44
I0
sg59
g626
sg60
I8
sg38
S'PingPingPingPingPingPingPingPingPingPingPingPing'
p631
sbsg62
Nsg63
I0
sg64
I5
sg65
I4
sg66
I12040
sg59
g623
sg67
I00
sbsg62
Nsg59
Nsg60
I2048
sg67
I00
sbsba.