(lp0
ccopy_reg
_reconstructor
p1
(csts.dataplane_traces.trace
DataplaneEvent
p2
c__builtin__
object
p3
Ntp4
Rp5
(dp6
S'interface'
p7
g1
(csts.entities
HostInterface
p8
g3
Ntp9
Rp10
(dp11
S'hw_addr'
p12
g1
(cpox.lib.addresses
EthAddr
p13
g3
Ntp14
Rp15
(dp16
S'value'
p17
S'\x124Vx\x02\x04'
p18
sbsS'ips'
p19
(lp20
g1
(cpox.lib.addresses
IPAddr
p21
g3
Ntp22
Rp23
(dp24
g17
I67271547
sbasS'name'
p25
S'eth2'
p26
sbsS'packet'
p27
g1
(cpox.lib.packet.ethernet
ethernet
p28
g3
Ntp29
Rp30
(dp31
S'src'
p32
g15
sS'dst'
p33
g1
(g13
g3
Ntp34
Rp35
(dp36
g17
S'\x124Vx\x01\x04'
p37
sbsS'next'
p38
g1
(cpox.lib.packet.ipv4
ipv4
p39
g3
Ntp40
Rp41
(dp42
S'frag'
p43
I0
sS'csum'
p44
I38322
sS'dstip'
p45
g1
(g21
g3
Ntp46
Rp47
(dp48
g17
I67206011
sbsS'protocol'
p49
I1
sS'srcip'
p50
g23
sS'tos'
p51
I0
sS'ttl'
p52
I64
sS'iplen'
p53
I72
sg38
g1
(cpox.lib.packet.icmp
icmp
p54
g3
Ntp55
Rp56
(dp57
S'code'
p58
I0
sg44
I1591
sS'prev'
p59
g41
sS'type'
p60
I8
sg38
S'PingPingPingPingPingPingPingPingPingPingPingPing'
p61
sbsS'raw'
p62
NsS'flags'
p63
I0
sS'hl'
p64
I5
sS'v'
p65
I4
sS'id'
p66
I60164
sg59
g30
sS'parsed'
p67
I00
sbsg62
Nsg59
Nsg60
I2048
sg67
I00
sbsbag1
(g2
g3
Ntp68
Rp69
(dp70
g7
g10
sg27
g1
(g28
g3
Ntp71
Rp72
(dp73
g32
g15
sg33
g1
(g13
g3
Ntp74
Rp75
(dp76
g17
S'\x124Vx\x03\x04'
p77
sbsg38
g1
(g39
g3
Ntp78
Rp79
(dp80
g43
I0
sg44
I0
sg45
g1
(g21
g3
Ntp81
Rp82
(dp83
g17
I67337083
sbsg49
I1
sg50
g23
sg51
I0
sg52
I64
sg53
I20
sg38
g1
(g54
g3
Ntp84
Rp85
(dp86
g58
I0
sg44
I0
sg59
g79
sg60
I8
sg38
S'PingPingPingPingPingPingPingPingPingPingPingPing'
p87
sbsg62
Nsg63
I0
sg64
I5
sg65
I4
sg66
I60165
sg59
g72
sg67
I00
sbsg62
Nsg59
Nsg60
I2048
sg67
I00
sbsbag1
(g2
g3
Ntp88
Rp89
(dp90
g7
g10
sg27
g1
(g28
g3
Ntp91
Rp92
(dp93
g32
g15
sg33
g1
(g13
g3
Ntp94
Rp95
(dp96
g17
S'\x124Vx\x04\x04'
p97
sbsg38
g1
(g39
g3
Ntp98
Rp99
(dp100
g43
I0
sg44
I37552
sg45
g1
(g21
g3
Ntp101
Rp102
(dp103
g17
I67402619
sbsg49
I1
sg50
g23
sg51
I0
sg52
I64
sg53
I72
sg38
g1
(g54
g3
Ntp104
Rp105
(dp106
g58
I0
sg44
I1591
sg59
g99
sg60
I8
sg38
S'PingPingPingPingPingPingPingPingPingPingPingPing'
p107
sbsg62
Nsg63
I0
sg64
I5
sg65
I4
sg66
I60166
sg59
g92
sg67
I00
sbsg62
Nsg59
Nsg60
I2048
sg67
I00
sbsbag1
(g2
g3
Ntp108
Rp109
(dp110
g7
g10
sg27
g1
(g28
g3
Ntp111
Rp112
(dp113
g32
g15
sg33
g35
sg38
g1
(g39
g3
Ntp114
Rp115
(dp116
g43
I0
sg44
I38319
sg45
g47
sg49
I1
sg50
g23
sg51
I0
sg52
I64
sg53
I72
sg38
g1
(g54
g3
Ntp117
Rp118
(dp119
g58
I0
sg44
I3639
sg59
g115
sg60
I0
sg38
S'PingPingPingPingPingPingPingPingPingPingPingPing'
p120
sbsg62
Nsg63
I0
sg64
I5
sg65
I4
sg66
I60167
sg59
g112
sg67
I00
sbsg62
Nsg59
Nsg60
I2048
sg67
I00
sbsbag1
(g2
g3
Ntp121
Rp122
(dp123
g7
g1
(g8
g3
Ntp124
Rp125
(dp126
g12
g75
sg19
(lp127
g82
asg25
S'eth3'
p128
sbsg27
g1
(g28
g3
Ntp129
Rp130
(dp131
g32
g75
sg33
g35
sg38
g1
(g39
g3
Ntp132
Rp133
(dp134
g43
I0
sg44
I0
sg45
g47
sg49
I1
sg50
g82
sg51
I0
sg52
I64
sg53
I20
sg38
g1
(g54
g3
Ntp135
Rp136
(dp137
g58
I0
sg44
I0
sg59
g133
sg60
I0
sg38
S'PingPingPingPingPingPingPingPingPingPingPingPing'
p138
sbsg62
Nsg63
I0
sg64
I5
sg65
I4
sg66
I60168
sg59
g130
sg67
I00
sbsg62
Nsg59
Nsg60
I2048
sg67
I00
sbsbag1
(g2
g3
Ntp139
Rp140
(dp141
g7
g125
sg27
g1
(g28
g3
Ntp142
Rp143
(dp144
g32
g75
sg33
g15
sg38
g1
(g39
g3
Ntp145
Rp146
(dp147
g43
I0
sg44
I37805
sg45
g23
sg49
I1
sg50
g82
sg51
I0
sg52
I64
sg53
I72
sg38
g1
(g54
g3
Ntp148
Rp149
(dp150
g58
I0
sg44
I3639
sg59
g146
sg60
I0
sg38
S'PingPingPingPingPingPingPingPingPingPingPingPing'
p151
sbsg62
Nsg63
I0
sg64
I5
sg65
I4
sg66
I60169
sg59
g143
sg67
I00
sbsg62
Nsg59
Nsg60
I2048
sg67
I00
sbsbag1
(g2
g3
Ntp152
Rp153
(dp154
g7
g10
sg27
g1
(g28
g3
Ntp155
Rp156
(dp157
g32
g15
sg33
g75
sg38
g1
(g39
g3
Ntp158
Rp159
(dp160
g43
I0
sg44
I37804
sg45
g82
sg49
I1
sg50
g23
sg51
I0
sg52
I64
sg53
I72
sg38
g1
(g54
g3
Ntp161
Rp162
(dp163
g58
I0
sg44
I1591
sg59
g159
sg60
I8
sg38
S'PingPingPingPingPingPingPingPingPingPingPingPing'
p164
sbsg62
Nsg63
I0
sg64
I5
sg65
I4
sg66
I60170
sg59
g156
sg67
I00
sbsg62
Nsg59
Nsg60
I2048
sg67
I00
sbsbag1
(g2
g3
Ntp165
Rp166
(dp167
g7
g10
sg27
g1
(g28
g3
Ntp168
Rp169
(dp170
g32
g15
sg33
g95
sg38
g1
(g39
g3
Ntp171
Rp172
(dp173
g43
I0
sg44
I37547
sg45
g102
sg49
I1
sg50
g23
sg51
I0
sg52
I64
sg53
I72
sg38
g1
(g54
g3
Ntp174
Rp175
(dp176
g58
I0
sg44
I1591
sg59
g172
sg60
I8
sg38
S'PingPingPingPingPingPingPingPingPingPingPingPing'
p177
sbsg62
Nsg63
I0
sg64
I5
sg65
I4
sg66
I60171
sg59
g169
sg67
I00
sbsg62
Nsg59
Nsg60
I2048
sg67
I00
sbsbag1
(g2
g3
Ntp178
Rp179
(dp180
g7
g125
sg27
g1
(g28
g3
Ntp181
Rp182
(dp183
g32
g75
sg33
g95
sg38
g1
(g39
g3
Ntp184
Rp185
(dp186
g43
I0
sg44
I37290
sg45
g102
sg49
I1
sg50
g82
sg51
I0
sg52
I64
sg53
I72
sg38
g1
(g54
g3
Ntp187
Rp188
(dp189
g58
I0
sg44
I1591
sg59
g185
sg60
I8
sg38
S'PingPingPingPingPingPingPingPingPingPingPingPing'
p190
sbsg62
Nsg63
I0
sg64
I5
sg65
I4
sg66
I60172
sg59
g182
sg67
I00
sbsg62
Nsg59
Nsg60
I2048
sg67
I00
sbsbag1
(g2
g3
Ntp191
Rp192
(dp193
g7
g1
(g8
g3
Ntp194
Rp195
(dp196
g12
g95
sg19
(lp197
g102
asg25
S'eth4'
p198
sbsg27
g1
(g28
g3
Ntp199
Rp200
(dp201
g32
g95
sg33
g35
sg38
g1
(g39
g3
Ntp202
Rp203
(dp204
g43
I0
sg44
I0
sg45
g47
sg49
I1
sg50
g102
sg51
I0
sg52
I64
sg53
I20
sg38
g1
(g54
g3
Ntp205
Rp206
(dp207
g58
I0
sg44
I0
sg59
g203
sg60
I8
sg38
S'PingPingPingPingPingPingPingPingPingPingPingPing'
p208
sbsg62
Nsg63
I0
sg64
I5
sg65
I4
sg66
I60173
sg59
g200
sg67
I00
sbsg62
Nsg59
Nsg60
I2048
sg67
I00
sbsbag1
(g2
g3
Ntp209
Rp210
(dp211
g7
g10
sg27
g1
(g28
g3
Ntp212
Rp213
(dp214
g32
g15
sg33
g35
sg38
g1
(g39
g3
Ntp215
Rp216
(dp217
g43
I0
sg44
I38312
sg45
g47
sg49
I1
sg50
g23
sg51
I0
sg52
I64
sg53
I72
sg38
g1
(g54
g3
Ntp218
Rp219
(dp220
g58
I0
sg44
I1591
sg59
g216
sg60
I8
sg38
S'PingPingPingPingPingPingPingPingPingPingPingPing'
p221
sbsg62
Nsg63
I0
sg64
I5
sg65
I4
sg66
I60174
sg59
g213
sg67
I00
sbsg62
Nsg59
Nsg60
I2048
sg67
I00
sbsbag1
(g2
g3
Ntp222
Rp223
(dp224
g7
g125
sg27
g1
(g28
g3
Ntp225
Rp226
(dp227
g32
g75
sg33
g35
sg38
g1
(g39
g3
Ntp228
Rp229
(dp230
g43
I0
sg44
I38055
sg45
g47
sg49
I1
sg50
g82
sg51
I0
sg52
I64
sg53
I72
sg38
g1
(g54
g3
Ntp231
Rp232
(dp233
g58
I0
sg44
I1591
sg59
g229
sg60
I8
sg38
S'PingPingPingPingPingPingPingPingPingPingPingPing'
p234
sbsg62
Nsg63
I0
sg64
I5
sg65
I4
sg66
I60175
sg59
g226
sg67
I00
sbsg62
Nsg59
Nsg60
I2048
sg67
I00
sbsbag1
(g2
g3
Ntp235
Rp236
(dp237
g7
g195
sg27
g1
(g28
g3
Ntp238
Rp239
(dp240
g32
g95
sg33
g15
sg38
g1
(g39
g3
Ntp241
Rp242
(dp243
g43
I0
sg44
I37542
sg45
g23
sg49
I1
sg50
g102
sg51
I0
sg52
I64
sg53
I72
sg38
g1
(g54
g3
Ntp244
Rp245
(dp246
g58
I0
sg44
I1591
sg59
g242
sg60
I8
sg38
S'PingPingPingPingPingPingPingPingPingPingPingPing'
p247
sbsg62
Nsg63
I0
sg64
I5
sg65
I4
sg66
I60176
sg59
g239
sg67
I00
sbsg62
Nsg59
Nsg60
I2048
sg67
I00
sbsbag1
(g2
g3
Ntp248
Rp249
(dp250
g7
g125
sg27
g1
(g28
g3
Ntp251
Rp252
(dp253
g32
g75
sg33
g15
sg38
g1
(g39
g3
Ntp254
Rp255
(dp256
g43
I0
sg44
I37797
sg45
g23
sg49
I1
sg50
g82
sg51
I0
sg52
I64
sg53
I72
sg38
g1
(g54
g3
Ntp257
Rp258
(dp259
g58
I0
sg44
I1591
sg59
g255
sg60
I8
sg38
S'PingPingPingPingPingPingPingPingPingPingPingPing'
p260
sbsg62
Nsg63
I0
sg64
I5
sg65
I4
sg66
I60177
sg59
g252
sg67
I00
sbsg62
Nsg59
Nsg60
I2048
sg67
I00
sbsbag1
(g2
g3
Ntp261
Rp262
(dp263
g7
g10
sg27
g1
(g28
g3
Ntp264
Rp265
(dp266
g32
g15
sg33
g75
sg38
g1
(g39
g3
Ntp267
Rp268
(dp269
g43
I0
sg44
I37796
sg45
g82
sg49
I1
sg50
g23
sg51
I0
sg52
I64
sg53
I72
sg38
g1
(g54
g3
Ntp270
Rp271
(dp272
g58
I0
sg44
I1591
sg59
g268
sg60
I8
sg38
S'PingPingPingPingPingPingPingPingPingPingPingPing'
p273
sbsg62
Nsg63
I0
sg64
I5
sg65
I4
sg66
I60178
sg59
g265
sg67
I00
sbsg62
Nsg59
Nsg60
I2048
sg67
I00
sbsbag1
(g2
g3
Ntp274
Rp275
(dp276
g7
g10
sg27
g1
(g28
g3
Ntp277
Rp278
(dp279
g32
g15
sg33
g95
sg38
g1
(g39
g3
Ntp280
Rp281
(dp282
g43
I0
sg44
I0
sg45
g102
sg49
I1
sg50
g23
sg51
I0
sg52
I64
sg53
I20
sg38
g1
(g54
g3
Ntp283
Rp284
(dp285
g58
I0
sg44
I0
sg59
g281
sg60
I0
sg38
S'PingPingPingPingPingPingPingPingPingPingPingPing'
p286
sbsg62
Nsg63
I0
sg64
I5
sg65
I4
sg66
I60179
sg59
g278
sg67
I00
sbsg62
Nsg59
Nsg60
I2048
sg67
I00
sbsbag1
(g2
g3
Ntp287
Rp288
(dp289
g7
g195
sg27
g1
(g28
g3
Ntp290
Rp291
(dp292
g32
g95
sg33
g75
sg38
g1
(g39
g3
Ntp293
Rp294
(dp295
g43
I0
sg44
I37282
sg45
g82
sg49
I1
sg50
g102
sg51
I0
sg52
I64
sg53
I72
sg38
g1
(g54
g3
Ntp296
Rp297
(dp298
g58
I0
sg44
I1591
sg59
g294
sg60
I8
sg38
S'PingPingPingPingPingPingPingPingPingPingPingPing'
p299
sbsg62
Nsg63
I0
sg64
I5
sg65
I4
sg66
I60180
sg59
g291
sg67
I00
sbsg62
Nsg59
Nsg60
I2048
sg67
I00
sbsbag1
(g2
g3
Ntp300
Rp301
(dp302
g7
g1
(g8
g3
Ntp303
Rp304
(dp305
g12
g35
sg19
(lp306
g47
asg25
S'eth1'
p307
sbsg27
g1
(g28
g3
Ntp308
Rp309
(dp310
g32
g35
sg33
g15
sg38
g1
(g39
g3
Ntp311
Rp312
(dp313
g43
I0
sg44
I38305
sg45
g23
sg49
I1
sg50
g47
sg51
I0
sg52
I64
sg53
I72
sg38
g1
(g54
g3
Ntp314
Rp315
(dp316
g58
I0
sg44
I1591
sg59
g312
sg60
I8
sg38
S'PingPingPingPingPingPingPingPingPingPingPingPing'
p317
sbsg62
Nsg63
I0
sg64
I5
sg65
I4
sg66
I60181
sg59
g309
sg67
I00
sbsg62
Nsg59
Nsg60
I2048
sg67
I00
sbsbag1
(g2
g3
Ntp318
Rp319
(dp320
g7
g304
sg27
g1
(g28
g3
Ntp321
Rp322
(dp323
g32
g35
sg33
g75
sg38
g1
(g39
g3
Ntp324
Rp325
(dp326
g43
I0
sg44
I38048
sg45
g82
sg49
I1
sg50
g47
sg51
I0
sg52
I64
sg53
I72
sg38
g1
(g54
g3
Ntp327
Rp328
(dp329
g58
I0
sg44
I1591
sg59
g325
sg60
I8
sg38
S'PingPingPingPingPingPingPingPingPingPingPingPing'
p330
sbsg62
Nsg63
I0
sg64
I5
sg65
I4
sg66
I60182
sg59
g322
sg67
I00
sbsg62
Nsg59
Nsg60
I2048
sg67
I00
sbsbag1
(g2
g3
Ntp331
Rp332
(dp333
g7
g304
sg27
g1
(g28
g3
Ntp334
Rp335
(dp336
g32
g35
sg33
g95
sg38
g1
(g39
g3
Ntp337
Rp338
(dp339
g43
I0
sg44
I37791
sg45
g102
sg49
I1
sg50
g47
sg51
I0
sg52
I64
sg53
I72
sg38
g1
(g54
g3
Ntp340
Rp341
(dp342
g58
I0
sg44
I1591
sg59
g338
sg60
I8
sg38
S'PingPingPingPingPingPingPingPingPingPingPingPing'
p343
sbsg62
Nsg63
I0
sg64
I5
sg65
I4
sg66
I60183
sg59
g335
sg67
I00
sbsg62
Nsg59
Nsg60
I2048
sg67
I00
sbsbag1
(g2
g3
Ntp344
Rp345
(dp346
g7
g125
sg27
g1
(g28
g3
Ntp347
Rp348
(dp349
g32
g75
sg33
g95
sg38
g1
(g39
g3
Ntp350
Rp351
(dp352
g43
I0
sg44
I0
sg45
g102
sg49
I1
sg50
g82
sg51
I0
sg52
I64
sg53
I20
sg38
g1
(g54
g3
Ntp353
Rp354
(dp355
g58
I0
sg44
I0
sg59
g351
sg60
I8
sg38
S'PingPingPingPingPingPingPingPingPingPingPingPing'
p356
sbsg62
Nsg63
I0
sg64
I5
sg65
I4
sg66
I60184
sg59
g348
sg67
I00
sbsg62
Nsg59
Nsg60
I2048
sg67
I00
sbsbag1
(g2
g3
Ntp357
Rp358
(dp359
g7
g304
sg27
g1
(g28
g3
Ntp360
Rp361
(dp362
g32
g35
sg33
g15
sg38
g1
(g39
g3
Ntp363
Rp364
(dp365
g43
I0
sg44
I0
sg45
g23
sg49
I1
sg50
g47
sg51
I0
sg52
I64
sg53
I20
sg38
g1
(g54
g3
Ntp366
Rp367
(dp368
g58
I0
sg44
I0
sg59
g364
sg60
I8
sg38
S'PingPingPingPingPingPingPingPingPingPingPingPing'
p369
sbsg62
Nsg63
I0
sg64
I5
sg65
I4
sg66
I60185
sg59
g361
sg67
I00
sbsg62
Nsg59
Nsg60
I2048
sg67
I00
sbsbag1
(g2
g3
Ntp370
Rp371
(dp372
g7
g10
sg27
g1
(g28
g3
Ntp373
Rp374
(dp375
g32
g15
sg33
g35
sg38
g1
(g39
g3
Ntp376
Rp377
(dp378
g43
I0
sg44
I38300
sg45
g47
sg49
I1
sg50
g23
sg51
I0
sg52
I64
sg53
I72
sg38
g1
(g54
g3
Ntp379
Rp380
(dp381
g58
I0
sg44
I1591
sg59
g377
sg60
I8
sg38
S'PingPingPingPingPingPingPingPingPingPingPingPing'
p382
sbsg62
Nsg63
I0
sg64
I5
sg65
I4
sg66
I60186
sg59
g374
sg67
I00
sbsg62
Nsg59
Nsg60
I2048
sg67
I00
sbsbag1
(g2
g3
Ntp383
Rp384
(dp385
g7
g125
sg27
g1
(g28
g3
Ntp386
Rp387
(dp388
g32
g75
sg33
g35
sg38
g1
(g39
g3
Ntp389
Rp390
(dp391
g43
I0
sg44
I38043
sg45
g47
sg49
I1
sg50
g82
sg51
I0
sg52
I64
sg53
I72
sg38
g1
(g54
g3
Ntp392
Rp393
(dp394
g58
I0
sg44
I3639
sg59
g390
sg60
I0
sg38
S'PingPingPingPingPingPingPingPingPingPingPingPing'
p395
sbsg62
Nsg63
I0
sg64
I5
sg65
I4
sg66
I60187
sg59
g387
sg67
I00
sbsg62
Nsg59
Nsg60
I2048
sg67
I00
sbsbag1
(g2
g3
Ntp396
Rp397
(dp398
g7
g125
sg27
g1
(g28
g3
Ntp399
Rp400
(dp401
g32
g75
sg33
g15
sg38
g1
(g39
g3
Ntp402
Rp403
(dp404
g43
I0
sg44
I37786
sg45
g23
sg49
I1
sg50
g82
sg51
I0
sg52
I64
sg53
I72
sg38
g1
(g54
g3
Ntp405
Rp406
(dp407
g58
I0
sg44
I3639
sg59
g403
sg60
I0
sg38
S'PingPingPingPingPingPingPingPingPingPingPingPing'
p408
sbsg62
Nsg63
I0
sg64
I5
sg65
I4
sg66
I60188
sg59
g400
sg67
I00
sbsg62
Nsg59
Nsg60
I2048
sg67
I00
sbsbag1
(g2
g3
Ntp409
Rp410
(dp411
g7
g10
sg27
g1
(g28
g3
Ntp412
Rp413
(dp414
g32
g15
sg33
g75
sg38
g1
(g39
g3
Ntp415
Rp416
(dp417
g43
I0
sg44
I37785
sg45
g82
sg49
I1
sg50
g23
sg51
I0
sg52
I64
sg53
I72
sg38
g1
(g54
g3
Ntp418
Rp419
(dp420
g58
I0
sg44
I1591
sg59
g416
sg60
I8
sg38
S'PingPingPingPingPingPingPingPingPingPingPingPing'
p421
sbsg62
Nsg63
I0
sg64
I5
sg65
I4
sg66
I60189
sg59
g413
sg67
I00
sbsg62
Nsg59
Nsg60
I2048
sg67
I00
sbsbag1
(g2
g3
Ntp422
Rp423
(dp424
g7
g10
sg27
g1
(g28
g3
Ntp425
Rp426
(dp427
g32
g15
sg33
g95
sg38
g1
(g39
g3
Ntp428
Rp429
(dp430
g43
I0
sg44
I0
sg45
g102
sg49
I1
sg50
g23
sg51
I0
sg52
I64
sg53
I20
sg38
g1
(g54
g3
Ntp431
Rp432
(dp433
g58
I0
sg44
I0
sg59
g429
sg60
I8
sg38
S'PingPingPingPingPingPingPingPingPingPingPingPing'
p434
sbsg62
Nsg63
I0
sg64
I5
sg65
I4
sg66
I60190
sg59
g426
sg67
I00
sbsg62
Nsg59
Nsg60
I2048
sg67
I00
sbsbag1
(g2
g3
Ntp435
Rp436
(dp437
g7
g304
sg27
g1
(g28
g3
Ntp438
Rp439
(dp440
g32
g35
sg33
g75
sg38
g1
(g39
g3
Ntp441
Rp442
(dp443
g43
I0
sg44
I38039
sg45
g82
sg49
I1
sg50
g47
sg51
I0
sg52
I64
sg53
I72
sg38
g1
(g54
g3
Ntp444
Rp445
(dp446
g58
I0
sg44
I1591
sg59
g442
sg60
I8
sg38
S'PingPingPingPingPingPingPingPingPingPingPingPing'
p447
sbsg62
Nsg63
I0
sg64
I5
sg65
I4
sg66
I60191
sg59
g439
sg67
I00
sbsg62
Nsg59
Nsg60
I2048
sg67
I00
sbsbag1
(g2
g3
Ntp448
Rp449
(dp450
g7
g10
sg27
g1
(g28
g3
Ntp451
Rp452
(dp453
g32
g15
sg33
g35
sg38
g1
(g39
g3
Ntp454
Rp455
(dp456
g43
I0
sg44
I38294
sg45
g47
sg49
I1
sg50
g23
sg51
I0
sg52
I64
sg53
I72
sg38
g1
(g54
g3
Ntp457
Rp458
(dp459
g58
I0
sg44
I1591
sg59
g455
sg60
I8
sg38
S'PingPingPingPingPingPingPingPingPingPingPingPing'
p460
sbsg62
Nsg63
I0
sg64
I5
sg65
I4
sg66
I60192
sg59
g452
sg67
I00
sbsg62
Nsg59
Nsg60
I2048
sg67
I00
sbsbag1
(g2
g3
Ntp461
Rp462
(dp463
g7
g10
sg27
g1
(g28
g3
Ntp464
Rp465
(dp466
g32
g15
sg33
g75
sg38
g1
(g39
g3
Ntp467
Rp468
(dp469
g43
I0
sg44
I0
sg45
g82
sg49
I1
sg50
g23
sg51
I0
sg52
I64
sg53
I20
sg38
g1
(g54
g3
Ntp470
Rp471
(dp472
g58
I0
sg44
I0
sg59
g468
sg60
I8
sg38
S'PingPingPingPingPingPingPingPingPingPingPingPing'
p473
sbsg62
Nsg63
I0
sg64
I5
sg65
I4
sg66
I60193
sg59
g465
sg67
I00
sbsg62
Nsg59
Nsg60
I2048
sg67
I00
sbsbag1
(g2
g3
Ntp474
Rp475
(dp476
g7
g195
sg27
g1
(g28
g3
Ntp477
Rp478
(dp479
g32
g95
sg33
g35
sg38
g1
(g39
g3
Ntp480
Rp481
(dp482
g43
I0
sg44
I0
sg45
g47
sg49
I1
sg50
g102
sg51
I0
sg52
I64
sg53
I20
sg38
g1
(g54
g3
Ntp483
Rp484
(dp485
g58
I0
sg44
I0
sg59
g481
sg60
I0
sg38
S'PingPingPingPingPingPingPingPingPingPingPingPing'
p486
sbsg62
Nsg63
I0
sg64
I5
sg65
I4
sg66
I60194
sg59
g478
sg67
I00
sbsg62
Nsg59
Nsg60
I2048
sg67
I00
sbsbag1
(g2
g3
Ntp487
Rp488
(dp489
g7
g10
sg27
g1
(g28
g3
Ntp490
Rp491
(dp492
g32
g15
sg33
g95
sg38
g1
(g39
g3
Ntp493
Rp494
(dp495
g43
I0
sg44
I0
sg45
g102
sg49
I1
sg50
g23
sg51
I0
sg52
I64
sg53
I20
sg38
g1
(g54
g3
Ntp496
Rp497
(dp498
g58
I0
sg44
I0
sg59
g494
sg60
I0
sg38
S'PingPingPingPingPingPingPingPingPingPingPingPing'
p499
sbsg62
Nsg63
I0
sg64
I5
sg65
I4
sg66
I60195
sg59
g491
sg67
I00
sbsg62
Nsg59
Nsg60
I2048
sg67
I00
sbsbag1
(g2
g3
Ntp500
Rp501
(dp502
g7
g195
sg27
g1
(g28
g3
Ntp503
Rp504
(dp505
g32
g95
sg33
g15
sg38
g1
(g39
g3
Ntp506
Rp507
(dp508
g43
I0
sg44
I37522
sg45
g23
sg49
I1
sg50
g102
sg51
I0
sg52
I64
sg53
I72
sg38
g1
(g54
g3
Ntp509
Rp510
(dp511
g58
I0
sg44
I1591
sg59
g507
sg60
I8
sg38
S'PingPingPingPingPingPingPingPingPingPingPingPing'
p512
sbsg62
Nsg63
I0
sg64
I5
sg65
I4
sg66
I60196
sg59
g504
sg67
I00
sbsg62
Nsg59
Nsg60
I2048
sg67
I00
sbsbag1
(g2
g3
Ntp513
Rp514
(dp515
g7
g304
sg27
g1
(g28
g3
Ntp516
Rp517
(dp518
g32
g35
sg33
g95
sg38
g1
(g39
g3
Ntp519
Rp520
(dp521
g43
I0
sg44
I37777
sg45
g102
sg49
I1
sg50
g47
sg51
I0
sg52
I64
sg53
I72
sg38
g1
(g54
g3
Ntp522
Rp523
(dp524
g58
I0
sg44
I1591
sg59
g520
sg60
I8
sg38
S'PingPingPingPingPingPingPingPingPingPingPingPing'
p525
sbsg62
Nsg63
I0
sg64
I5
sg65
I4
sg66
I60197
sg59
g517
sg67
I00
sbsg62
Nsg59
Nsg60
I2048
sg67
I00
sbsbag1
(g2
g3
Ntp526
Rp527
(dp528
g7
g10
sg27
g1
(g28
g3
Ntp529
Rp530
(dp531
g32
g15
sg33
g35
sg38
g1
(g39
g3
Ntp532
Rp533
(dp534
g43
I0
sg44
I0
sg45
g47
sg49
I1
sg50
g23
sg51
I0
sg52
I64
sg53
I20
sg38
g1
(g54
g3
Ntp535
Rp536
(dp537
g58
I0
sg44
I0
sg59
g533
sg60
I8
sg38
S'PingPingPingPingPingPingPingPingPingPingPingPing'
p538
sbsg62
Nsg63
I0
sg64
I5
sg65
I4
sg66
I60198
sg59
g530
sg67
I00
sbsg62
Nsg59
Nsg60
I2048
sg67
I00
sbsbag1
(g2
g3
Ntp539
Rp540
(dp541
g7
g195
sg27
g1
(g28
g3
Ntp542
Rp543
(dp544
g32
g95
sg33
g75
sg38
g1
(g39
g3
Ntp545
Rp546
(dp547
g43
I0
sg44
I37263
sg45
g82
sg49
I1
sg50
g102
sg51
I0
sg52
I64
sg53
I72
sg38
g1
(g54
g3
Ntp548
Rp549
(dp550
g58
I0
sg44
I1591
sg59
g546
sg60
I8
sg38
S'PingPingPingPingPingPingPingPingPingPingPingPing'
p551
sbsg62
Nsg63
I0
sg64
I5
sg65
I4
sg66
I60199
sg59
g543
sg67
I00
sbsg62
Nsg59
Nsg60
I2048
sg67
I00
sbsbag1
(g2
g3
Ntp552
Rp553
(dp554
g7
g195
sg27
g1
(g28
g3
Ntp555
Rp556
(dp557
g32
g95
sg33
g35
sg38
g1
(g39
g3
Ntp558
Rp559
(dp560
g43
I0
sg44
I37774
sg45
g47
sg49
I1
sg50
g102
sg51
I0
sg52
I64
sg53
I72
sg38
g1
(g54
g3
Ntp561
Rp562
(dp563
g58
I0
sg44
I3639
sg59
g559
sg60
I0
sg38
S'PingPingPingPingPingPingPingPingPingPingPingPing'
p564
sbsg62
Nsg63
I0
sg64
I5
sg65
I4
sg66
I60200
sg59
g556
sg67
I00
sbsg62
Nsg59
Nsg60
I2048
sg67
I00
sbsbag1
(g2
g3
Ntp565
Rp566
(dp567
g7
g195
sg27
g1
(g28
g3
Ntp568
Rp569
(dp570
g32
g95
sg33
g15
sg38
g1
(g39
g3
Ntp571
Rp572
(dp573
g43
I0
sg44
I0
sg45
g23
sg49
I1
sg50
g102
sg51
I0
sg52
I64
sg53
I20
sg38
g1
(g54
g3
Ntp574
Rp575
(dp576
g58
I0
sg44
I0
sg59
g572
sg60
I0
sg38
S'PingPingPingPingPingPingPingPingPingPingPingPing'
p577
sbsg62
Nsg63
I0
sg64
I5
sg65
I4
sg66
I60201
sg59
g569
sg67
I00
sbsg62
Nsg59
Nsg60
I2048
sg67
I00
sbsbag1
(g2
g3
Ntp578
Rp579
(dp580
g7
g195
sg27
g1
(g28
g3
Ntp581
Rp582
(dp583
g32
g95
sg33
g75
sg38
g1
(g39
g3
Ntp584
Rp585
(dp586
g43
I0
sg44
I37260
sg45
g82
sg49
I1
sg50
g102
sg51
I0
sg52
I64
sg53
I72
sg38
g1
(g54
g3
Ntp587
Rp588
(dp589
g58
I0
sg44
I3639
sg59
g585
sg60
I0
sg38
S'PingPingPingPingPingPingPingPingPingPingPingPing'
p590
sbsg62
Nsg63
I0
sg64
I5
sg65
I4
sg66
I60202
sg59
g582
sg67
I00
sbsg62
Nsg59
Nsg60
I2048
sg67
I00
sbsbag1
(g2
g3
Ntp591
Rp592
(dp593
g7
g10
sg27
g1
(g28
g3
Ntp594
Rp595
(dp596
g32
g15
sg33
g75
sg38
g1
(g39
g3
Ntp597
Rp598
(dp599
g43
I0
sg44
I37771
sg45
g82
sg49
I1
sg50
g23
sg51
I0
sg52
I64
sg53
I72
sg38
g1
(g54
g3
Ntp600
Rp601
(dp602
g58
I0
sg44
I1591
sg59
g598
sg60
I8
sg38
S'PingPingPingPingPingPingPingPingPingPingPingPing'
p603
sbsg62
Nsg63
I0
sg64
I5
sg65
I4
sg66
I60203
sg59
g595
sg67
I00
sbsg62
Nsg59
Nsg60
I2048
sg67
I00
sbsbag1
(g2
g3
Ntp604
Rp605
(dp606
g7
g195
sg27
g1
(g28
g3
Ntp607
Rp608
(dp609
g32
g95
sg33
g35
sg38
g1
(g39
g3
Ntp610
Rp611
(dp612
g43
I0
sg44
I0
sg45
g47
sg49
I1
sg50
g102
sg51
I0
sg52
I64
sg53
I20
sg38
g1
(g54
g3
Ntp613
Rp614
(dp615
g58
I0
sg44
I0
sg59
g611
sg60
I0
sg38
S'PingPingPingPingPingPingPingPingPingPingPingPing'
p616
sbsg62
Nsg63
I0
sg64
I5
sg65
I4
sg66
I60204
sg59
g608
sg67
I00
sbsg62
Nsg59
Nsg60
I2048
sg67
I00
sbsbag1
(g2
g3
Ntp617
Rp618
(dp619
g7
g10
sg27
g1
(g28
g3
Ntp620
Rp621
(dp622
g32
g15
sg33
g95
sg38
g1
(g39
g3
Ntp623
Rp624
(dp625
g43
I0
sg44
I0
sg45
g102
sg49
I1
sg50
g23
sg51
I0
sg52
I64
sg53
I20
sg38
g1
(g54
g3
Ntp626
Rp627
(dp628
g58
I0
sg44
I0
sg59
g624
sg60
I0
sg38
S'PingPingPingPingPingPingPingPingPingPingPingPing'
p629
sbsg62
Nsg63
I0
sg64
I5
sg65
I4
sg66
I60205
sg59
g621
sg67
I00
sbsg62
Nsg59
Nsg60
I2048
sg67
I00
sbsba.