(lp0
ccopy_reg
_reconstructor
p1
(csts.dataplane_traces.trace
DataplaneEvent
p2
c__builtin__
object
p3
Ntp4
Rp5
(dp6
S'interface'
p7
g1
(csts.entities
HostInterface
p8
g3
Ntp9
Rp10
(dp11
S'hw_addr'
p12
g1
(cpox.lib.addresses
EthAddr
p13
g3
Ntp14
Rp15
(dp16
S'value'
p17
S'\x00\x00\x00\x00\x00\x01'
p18
sbsS'ips'
p19
(lp20
g1
(cpox.lib.addresses
IPAddr
p21
g3
Ntp22
Rp23
(dp24
g17
I16777339
sbasS'name'
p25
S'eth1'
p26
sbsS'packet'
p27
g1
(cpox.lib.packet.ethernet
ethernet
p28
g3
Ntp29
Rp30
(dp31
S'src'
p32
g15
sS'dst'
p33
g15
sS'next'
p34
g1
(cpox.lib.packet.ipv4
ipv4
p35
g3
Ntp36
Rp37
(dp38
S'frag'
p39
I0
sS'csum'
p40
I35279
sS'dstip'
p41
g23
sS'protocol'
p42
I1
sS'srcip'
p43
g23
sS'tos'
p44
I0
sS'ttl'
p45
I64
sS'iplen'
p46
I72
sg34
g1
(cpox.lib.packet.icmp
icmp
p47
g3
Ntp48
Rp49
(dp50
S'code'
p51
I0
sg40
I3639
sS'prev'
p52
g37
sS'type'
p53
I0
sg34
S'PingPingPingPingPingPingPingPingPingPingPingPing'
p54
sbsS'raw'
p55
NsS'flags'
p56
I0
sS'hl'
p57
I5
sS'v'
p58
I4
sS'id'
p59
I64227
sg52
g30
sS'parsed'
p60
I00
sbsg55
Nsg52
Nsg53
I2048
sg60
I00
sbsbag1
(g2
g3
Ntp61
Rp62
(dp63
g7
g1
(g8
g3
Ntp64
Rp65
(dp66
g12
g1
(g13
g3
Ntp67
Rp68
(dp69
g17
S'\x00\x00\x00\x00\x00\x02'
p70
sbsg19
(lp71
g1
(g21
g3
Ntp72
Rp73
(dp74
g17
I33554555
sbasg25
S'eth1'
p75
sbsg27
g1
(g28
g3
Ntp76
Rp77
(dp78
g32
g68
sg33
g68
sg34
g1
(g35
g3
Ntp79
Rp80
(dp81
g39
I0
sg40
I35276
sg41
g73
sg42
I1
sg43
g73
sg44
I0
sg45
I64
sg46
I72
sg34
g1
(g47
g3
Ntp82
Rp83
(dp84
g51
I0
sg40
I1591
sg52
g80
sg53
I8
sg34
S'PingPingPingPingPingPingPingPingPingPingPingPing'
p85
sbsg55
Nsg56
I0
sg57
I5
sg58
I4
sg59
I64228
sg52
g77
sg60
I00
sbsg55
Nsg52
Nsg53
I2048
sg60
I00
sbsbag1
(g2
g3
Ntp86
Rp87
(dp88
g7
g1
(g8
g3
Ntp89
Rp90
(dp91
g12
g1
(g13
g3
Ntp92
Rp93
(dp94
g17
S'\x00\x00\x00\x00\x00\x03'
p95
sbsg19
(lp96
g1
(g21
g3
Ntp97
Rp98
(dp99
g17
I50331771
sbasg25
S'eth1'
p100
sbsg27
g1
(g28
g3
Ntp101
Rp102
(dp103
g32
g93
sg33
g93
sg34
g1
(g35
g3
Ntp104
Rp105
(dp106
g39
I0
sg40
I35273
sg41
g98
sg42
I1
sg43
g98
sg44
I0
sg45
I64
sg46
I72
sg34
g1
(g47
g3
Ntp107
Rp108
(dp109
g51
I0
sg40
I3639
sg52
g105
sg53
I0
sg34
S'PingPingPingPingPingPingPingPingPingPingPingPing'
p110
sbsg55
Nsg56
I0
sg57
I5
sg58
I4
sg59
I64229
sg52
g102
sg60
I00
sbsg55
Nsg52
Nsg53
I2048
sg60
I00
sbsbag1
(g2
g3
Ntp111
Rp112
(dp113
g7
g1
(g8
g3
Ntp114
Rp115
(dp116
g12
g1
(g13
g3
Ntp117
Rp118
(dp119
g17
S'\x00\x00\x00\x00\x00\x04'
p120
sbsg19
(lp121
g1
(g21
g3
Ntp122
Rp123
(dp124
g17
I67108987
sbasg25
S'eth1'
p125
sbsg27
g1
(g28
g3
Ntp126
Rp127
(dp128
g32
g118
sg33
g118
sg34
g1
(g35
g3
Ntp129
Rp130
(dp131
g39
I0
sg40
I35270
sg41
g123
sg42
I1
sg43
g123
sg44
I0
sg45
I64
sg46
I72
sg34
g1
(g47
g3
Ntp132
Rp133
(dp134
g51
I0
sg40
I3639
sg52
g130
sg53
I0
sg34
S'PingPingPingPingPingPingPingPingPingPingPingPing'
p135
sbsg55
Nsg56
I0
sg57
I5
sg58
I4
sg59
I64230
sg52
g127
sg60
I00
sbsg55
Nsg52
Nsg53
I2048
sg60
I00
sbsbag1
(g2
g3
Ntp136
Rp137
(dp138
g7
g1
(g8
g3
Ntp139
Rp140
(dp141
g12
g1
(g13
g3
Ntp142
Rp143
(dp144
g17
S'\x00\x00\x00\x00\x01\x01'
p145
sbsg19
(lp146
g1
(g21
g3
Ntp147
Rp148
(dp149
g17
I16842875
sbasg25
S'eth2'
p150
sbsg27
g1
(g28
g3
Ntp151
Rp152
(dp153
g32
g143
sg33
g143
sg34
g1
(g35
g3
Ntp154
Rp155
(dp156
g39
I0
sg40
I34763
sg41
g148
sg42
I1
sg43
g148
sg44
I0
sg45
I64
sg46
I72
sg34
g1
(g47
g3
Ntp157
Rp158
(dp159
g51
I0
sg40
I3639
sg52
g155
sg53
I0
sg34
S'PingPingPingPingPingPingPingPingPingPingPingPing'
p160
sbsg55
Nsg56
I0
sg57
I5
sg58
I4
sg59
I64231
sg52
g152
sg60
I00
sbsg55
Nsg52
Nsg53
I2048
sg60
I00
sbsbag1
(g2
g3
Ntp161
Rp162
(dp163
g7
g1
(g8
g3
Ntp164
Rp165
(dp166
g12
g1
(g13
g3
Ntp167
Rp168
(dp169
g17
S'\x00\x00\x00\x00\x01\x02'
p170
sbsg19
(lp171
g1
(g21
g3
Ntp172
Rp173
(dp174
g17
I33620091
sbasg25
S'eth2'
p175
sbsg27
g1
(g28
g3
Ntp176
Rp177
(dp178
g32
g168
sg33
g168
sg34
g1
(g35
g3
Ntp179
Rp180
(dp181
g39
I0
sg40
I34760
sg41
g173
sg42
I1
sg43
g173
sg44
I0
sg45
I64
sg46
I72
sg34
g1
(g47
g3
Ntp182
Rp183
(dp184
g51
I0
sg40
I1591
sg52
g180
sg53
I8
sg34
S'PingPingPingPingPingPingPingPingPingPingPingPing'
p185
sbsg55
Nsg56
I0
sg57
I5
sg58
I4
sg59
I64232
sg52
g177
sg60
I00
sbsg55
Nsg52
Nsg53
I2048
sg60
I00
sbsbag1
(g2
g3
Ntp186
Rp187
(dp188
g7
g1
(g8
g3
Ntp189
Rp190
(dp191
g12
g1
(g13
g3
Ntp192
Rp193
(dp194
g17
S'\x00\x00\x00\x00\x01\x03'
p195
sbsg19
(lp196
g1
(g21
g3
Ntp197
Rp198
(dp199
g17
I50397307
sbasg25
S'eth2'
p200
sbsg27
g1
(g28
g3
Ntp201
Rp202
(dp203
g32
g193
sg33
g193
sg34
g1
(g35
g3
Ntp204
Rp205
(dp206
g39
I0
sg40
I34757
sg41
g198
sg42
I1
sg43
g198
sg44
I0
sg45
I64
sg46
I72
sg34
g1
(g47
g3
Ntp207
Rp208
(dp209
g51
I0
sg40
I1591
sg52
g205
sg53
I8
sg34
S'PingPingPingPingPingPingPingPingPingPingPingPing'
p210
sbsg55
Nsg56
I0
sg57
I5
sg58
I4
sg59
I64233
sg52
g202
sg60
I00
sbsg55
Nsg52
Nsg53
I2048
sg60
I00
sbsbag1
(g2
g3
Ntp211
Rp212
(dp213
g7
g1
(g8
g3
Ntp214
Rp215
(dp216
g12
g1
(g13
g3
Ntp217
Rp218
(dp219
g17
S'\x00\x00\x00\x00\x01\x04'
p220
sbsg19
(lp221
g1
(g21
g3
Ntp222
Rp223
(dp224
g17
I67174523
sbasg25
S'eth2'
p225
sbsg27
g1
(g28
g3
Ntp226
Rp227
(dp228
g32
g218
sg33
g218
sg34
g1
(g35
g3
Ntp229
Rp230
(dp231
g39
I0
sg40
I34754
sg41
g223
sg42
I1
sg43
g223
sg44
I0
sg45
I64
sg46
I72
sg34
g1
(g47
g3
Ntp232
Rp233
(dp234
g51
I0
sg40
I1591
sg52
g230
sg53
I8
sg34
S'PingPingPingPingPingPingPingPingPingPingPingPing'
p235
sbsg55
Nsg56
I0
sg57
I5
sg58
I4
sg59
I64234
sg52
g227
sg60
I00
sbsg55
Nsg52
Nsg53
I2048
sg60
I00
sbsbag1
(g2
g3
Ntp236
Rp237
(dp238
g7
g1
(g8
g3
Ntp239
Rp240
(dp241
g12
g1
(g13
g3
Ntp242
Rp243
(dp244
g17
S'\x00\x00\x00\x00\x02\x01'
p245
sbsg19
(lp246
g1
(g21
g3
Ntp247
Rp248
(dp249
g17
I16908411
sbasg25
S'eth3'
p250
sbsg27
g1
(g28
g3
Ntp251
Rp252
(dp253
g32
g243
sg33
g243
sg34
g1
(g35
g3
Ntp254
Rp255
(dp256
g39
I0
sg40
I34247
sg41
g248
sg42
I1
sg43
g248
sg44
I0
sg45
I64
sg46
I72
sg34
g1
(g47
g3
Ntp257
Rp258
(dp259
g51
I0
sg40
I3639
sg52
g255
sg53
I0
sg34
S'PingPingPingPingPingPingPingPingPingPingPingPing'
p260
sbsg55
Nsg56
I0
sg57
I5
sg58
I4
sg59
I64235
sg52
g252
sg60
I00
sbsg55
Nsg52
Nsg53
I2048
sg60
I00
sbsbag1
(g2
g3
Ntp261
Rp262
(dp263
g7
g1
(g8
g3
Ntp264
Rp265
(dp266
g12
g1
(g13
g3
Ntp267
Rp268
(dp269
g17
S'\x00\x00\x00\x00\x02\x02'
p270
sbsg19
(lp271
g1
(g21
g3
Ntp272
Rp273
(dp274
g17
I33685627
sbasg25
S'eth3'
p275
sbsg27
g1
(g28
g3
Ntp276
Rp277
(dp278
g32
g268
sg33
g268
sg34
g1
(g35
g3
Ntp279
Rp280
(dp281
g39
I0
sg40
I34244
sg41
g273
sg42
I1
sg43
g273
sg44
I0
sg45
I64
sg46
I72
sg34
g1
(g47
g3
Ntp282
Rp283
(dp284
g51
I0
sg40
I1591
sg52
g280
sg53
I8
sg34
S'PingPingPingPingPingPingPingPingPingPingPingPing'
p285
sbsg55
Nsg56
I0
sg57
I5
sg58
I4
sg59
I64236
sg52
g277
sg60
I00
sbsg55
Nsg52
Nsg53
I2048
sg60
I00
sbsbag1
(g2
g3
Ntp286
Rp287
(dp288
g7
g1
(g8
g3
Ntp289
Rp290
(dp291
g12
g1
(g13
g3
Ntp292
Rp293
(dp294
g17
S'\x00\x00\x00\x00\x02\x03'
p295
sbsg19
(lp296
g1
(g21
g3
Ntp297
Rp298
(dp299
g17
I50462843
sbasg25
S'eth3'
p300
sbsg27
g1
(g28
g3
Ntp301
Rp302
(dp303
g32
g293
sg33
g293
sg34
g1
(g35
g3
Ntp304
Rp305
(dp306
g39
I0
sg40
I34241
sg41
g298
sg42
I1
sg43
g298
sg44
I0
sg45
I64
sg46
I72
sg34
g1
(g47
g3
Ntp307
Rp308
(dp309
g51
I0
sg40
I3639
sg52
g305
sg53
I0
sg34
S'PingPingPingPingPingPingPingPingPingPingPingPing'
p310
sbsg55
Nsg56
I0
sg57
I5
sg58
I4
sg59
I64237
sg52
g302
sg60
I00
sbsg55
Nsg52
Nsg53
I2048
sg60
I00
sbsbag1
(g2
g3
Ntp311
Rp312
(dp313
g7
g1
(g8
g3
Ntp314
Rp315
(dp316
g12
g1
(g13
g3
Ntp317
Rp318
(dp319
g17
S'\x00\x00\x00\x00\x02\x04'
p320
sbsg19
(lp321
g1
(g21
g3
Ntp322
Rp323
(dp324
g17
I67240059
sbasg25
S'eth3'
p325
sbsg27
g1
(g28
g3
Ntp326
Rp327
(dp328
g32
g318
sg33
g318
sg34
g1
(g35
g3
Ntp329
Rp330
(dp331
g39
I0
sg40
I34238
sg41
g323
sg42
I1
sg43
g323
sg44
I0
sg45
I64
sg46
I72
sg34
g1
(g47
g3
Ntp332
Rp333
(dp334
g51
I0
sg40
I3639
sg52
g330
sg53
I0
sg34
S'PingPingPingPingPingPingPingPingPingPingPingPing'
p335
sbsg55
Nsg56
I0
sg57
I5
sg58
I4
sg59
I64238
sg52
g327
sg60
I00
sbsg55
Nsg52
Nsg53
I2048
sg60
I00
sbsbag1
(g2
g3
Ntp336
Rp337
(dp338
g7
g1
(g8
g3
Ntp339
Rp340
(dp341
g12
g1
(g13
g3
Ntp342
Rp343
(dp344
g17
S'\x00\x00\x00\x00\x03\x01'
p345
sbsg19
(lp346
g1
(g21
g3
Ntp347
Rp348
(dp349
g17
I16973947
sbasg25
S'eth4'
p350
sbsg27
g1
(g28
g3
Ntp351
Rp352
(dp353
g32
g343
sg33
g343
sg34
g1
(g35
g3
Ntp354
Rp355
(dp356
g39
I0
sg40
I33731
sg41
g348
sg42
I1
sg43
g348
sg44
I0
sg45
I64
sg46
I72
sg34
g1
(g47
g3
Ntp357
Rp358
(dp359
g51
I0
sg40
I3639
sg52
g355
sg53
I0
sg34
S'PingPingPingPingPingPingPingPingPingPingPingPing'
p360
sbsg55
Nsg56
I0
sg57
I5
sg58
I4
sg59
I64239
sg52
g352
sg60
I00
sbsg55
Nsg52
Nsg53
I2048
sg60
I00
sbsbag1
(g2
g3
Ntp361
Rp362
(dp363
g7
g1
(g8
g3
Ntp364
Rp365
(dp366
g12
g1
(g13
g3
Ntp367
Rp368
(dp369
g17
S'\x00\x00\x00\x00\x03\x02'
p370
sbsg19
(lp371
g1
(g21
g3
Ntp372
Rp373
(dp374
g17
I33751163
sbasg25
S'eth4'
p375
sbsg27
g1
(g28
g3
Ntp376
Rp377
(dp378
g32
g368
sg33
g368
sg34
g1
(g35
g3
Ntp379
Rp380
(dp381
g39
I0
sg40
I33728
sg41
g373
sg42
I1
sg43
g373
sg44
I0
sg45
I64
sg46
I72
sg34
g1
(g47
g3
Ntp382
Rp383
(dp384
g51
I0
sg40
I3639
sg52
g380
sg53
I0
sg34
S'PingPingPingPingPingPingPingPingPingPingPingPing'
p385
sbsg55
Nsg56
I0
sg57
I5
sg58
I4
sg59
I64240
sg52
g377
sg60
I00
sbsg55
Nsg52
Nsg53
I2048
sg60
I00
sbsbag1
(g2
g3
Ntp386
Rp387
(dp388
g7
g1
(g8
g3
Ntp389
Rp390
(dp391
g12
g1
(g13
g3
Ntp392
Rp393
(dp394
g17
S'\x00\x00\x00\x00\x03\x03'
p395
sbsg19
(lp396
g1
(g21
g3
Ntp397
Rp398
(dp399
g17
I50528379
sbasg25
S'eth4'
p400
sbsg27
g1
(g28
g3
Ntp401
Rp402
(dp403
g32
g393
sg33
g393
sg34
g1
(g35
g3
Ntp404
Rp405
(dp406
g39
I0
sg40
I33725
sg41
g398
sg42
I1
sg43
g398
sg44
I0
sg45
I64
sg46
I72
sg34
g1
(g47
g3
Ntp407
Rp408
(dp409
g51
I0
sg40
I3639
sg52
g405
sg53
I0
sg34
S'PingPingPingPingPingPingPingPingPingPingPingPing'
p410
sbsg55
Nsg56
I0
sg57
I5
sg58
I4
sg59
I64241
sg52
g402
sg60
I00
sbsg55
Nsg52
Nsg53
I2048
sg60
I00
sbsbag1
(g2
g3
Ntp411
Rp412
(dp413
g7
g1
(g8
g3
Ntp414
Rp415
(dp416
g12
g1
(g13
g3
Ntp417
Rp418
(dp419
g17
S'\x00\x00\x00\x00\x03\x04'
p420
sbsg19
(lp421
g1
(g21
g3
Ntp422
Rp423
(dp424
g17
I67305595
sbasg25
S'eth4'
p425
sbsg27
g1
(g28
g3
Ntp426
Rp427
(dp428
g32
g418
sg33
g418
sg34
g1
(g35
g3
Ntp429
Rp430
(dp431
g39
I0
sg40
I33722
sg41
g423
sg42
I1
sg43
g423
sg44
I0
sg45
I64
sg46
I72
sg34
g1
(g47
g3
Ntp432
Rp433
(dp434
g51
I0
sg40
I1591
sg52
g430
sg53
I8
sg34
S'PingPingPingPingPingPingPingPingPingPingPingPing'
p435
sbsg55
Nsg56
I0
sg57
I5
sg58
I4
sg59
I64242
sg52
g427
sg60
I00
sbsg55
Nsg52
Nsg53
I2048
sg60
I00
sbsbag1
(g2
g3
Ntp436
Rp437
(dp438
g7
g1
(g8
g3
Ntp439
Rp440
(dp441
g12
g1
(g13
g3
Ntp442
Rp443
(dp444
g17
S'\x00\x00\x00\x01\x00\x01'
p445
sbsg19
(lp446
g1
(g21
g3
Ntp447
Rp448
(dp449
g17
I16777595
sbasg25
S'eth5'
p450
sbsg27
g1
(g28
g3
Ntp451
Rp452
(dp453
g32
g443
sg33
g443
sg34
g1
(g35
g3
Ntp454
Rp455
(dp456
g39
I0
sg40
I35261
sg41
g448
sg42
I1
sg43
g448
sg44
I0
sg45
I64
sg46
I72
sg34
g1
(g47
g3
Ntp457
Rp458
(dp459
g51
I0
sg40
I3639
sg52
g455
sg53
I0
sg34
S'PingPingPingPingPingPingPingPingPingPingPingPing'
p460
sbsg55
Nsg56
I0
sg57
I5
sg58
I4
sg59
I64243
sg52
g452
sg60
I00
sbsg55
Nsg52
Nsg53
I2048
sg60
I00
sbsbag1
(g2
g3
Ntp461
Rp462
(dp463
g7
g1
(g8
g3
Ntp464
Rp465
(dp466
g12
g1
(g13
g3
Ntp467
Rp468
(dp469
g17
S'\x00\x00\x00\x01\x00\x02'
p470
sbsg19
(lp471
g1
(g21
g3
Ntp472
Rp473
(dp474
g17
I33554811
sbasg25
S'eth5'
p475
sbsg27
g1
(g28
g3
Ntp476
Rp477
(dp478
g32
g468
sg33
g468
sg34
g1
(g35
g3
Ntp479
Rp480
(dp481
g39
I0
sg40
I35258
sg41
g473
sg42
I1
sg43
g473
sg44
I0
sg45
I64
sg46
I72
sg34
g1
(g47
g3
Ntp482
Rp483
(dp484
g51
I0
sg40
I1591
sg52
g480
sg53
I8
sg34
S'PingPingPingPingPingPingPingPingPingPingPingPing'
p485
sbsg55
Nsg56
I0
sg57
I5
sg58
I4
sg59
I64244
sg52
g477
sg60
I00
sbsg55
Nsg52
Nsg53
I2048
sg60
I00
sbsbag1
(g2
g3
Ntp486
Rp487
(dp488
g7
g1
(g8
g3
Ntp489
Rp490
(dp491
g12
g1
(g13
g3
Ntp492
Rp493
(dp494
g17
S'\x00\x00\x00\x01\x00\x03'
p495
sbsg19
(lp496
g1
(g21
g3
Ntp497
Rp498
(dp499
g17
I50332027
sbasg25
S'eth5'
p500
sbsg27
g1
(g28
g3
Ntp501
Rp502
(dp503
g32
g493
sg33
g493
sg34
g1
(g35
g3
Ntp504
Rp505
(dp506
g39
I0
sg40
I35255
sg41
g498
sg42
I1
sg43
g498
sg44
I0
sg45
I64
sg46
I72
sg34
g1
(g47
g3
Ntp507
Rp508
(dp509
g51
I0
sg40
I3639
sg52
g505
sg53
I0
sg34
S'PingPingPingPingPingPingPingPingPingPingPingPing'
p510
sbsg55
Nsg56
I0
sg57
I5
sg58
I4
sg59
I64245
sg52
g502
sg60
I00
sbsg55
Nsg52
Nsg53
I2048
sg60
I00
sbsbag1
(g2
g3
Ntp511
Rp512
(dp513
g7
g1
(g8
g3
Ntp514
Rp515
(dp516
g12
g1
(g13
g3
Ntp517
Rp518
(dp519
g17
S'\x00\x00\x00\x01\x00\x04'
p520
sbsg19
(lp521
g1
(g21
g3
Ntp522
Rp523
(dp524
g17
I67109243
sbasg25
S'eth5'
p525
sbsg27
g1
(g28
g3
Ntp526
Rp527
(dp528
g32
g518
sg33
g518
sg34
g1
(g35
g3
Ntp529
Rp530
(dp531
g39
I0
sg40
I35252
sg41
g523
sg42
I1
sg43
g523
sg44
I0
sg45
I64
sg46
I72
sg34
g1
(g47
g3
Ntp532
Rp533
(dp534
g51
I0
sg40
I1591
sg52
g530
sg53
I8
sg34
S'PingPingPingPingPingPingPingPingPingPingPingPing'
p535
sbsg55
Nsg56
I0
sg57
I5
sg58
I4
sg59
I64246
sg52
g527
sg60
I00
sbsg55
Nsg52
Nsg53
I2048
sg60
I00
sbsbag1
(g2
g3
Ntp536
Rp537
(dp538
g7
g1
(g8
g3
Ntp539
Rp540
(dp541
g12
g1
(g13
g3
Ntp542
Rp543
(dp544
g17
S'\x00\x00\x00\x01\x01\x01'
p545
sbsg19
(lp546
g1
(g21
g3
Ntp547
Rp548
(dp549
g17
I16843131
sbasg25
S'eth6'
p550
sbsg27
g1
(g28
g3
Ntp551
Rp552
(dp553
g32
g543
sg33
g543
sg34
g1
(g35
g3
Ntp554
Rp555
(dp556
g39
I0
sg40
I34745
sg41
g548
sg42
I1
sg43
g548
sg44
I0
sg45
I64
sg46
I72
sg34
g1
(g47
g3
Ntp557
Rp558
(dp559
g51
I0
sg40
I1591
sg52
g555
sg53
I8
sg34
S'PingPingPingPingPingPingPingPingPingPingPingPing'
p560
sbsg55
Nsg56
I0
sg57
I5
sg58
I4
sg59
I64247
sg52
g552
sg60
I00
sbsg55
Nsg52
Nsg53
I2048
sg60
I00
sbsbag1
(g2
g3
Ntp561
Rp562
(dp563
g7
g1
(g8
g3
Ntp564
Rp565
(dp566
g12
g1
(g13
g3
Ntp567
Rp568
(dp569
g17
S'\x00\x00\x00\x01\x01\x02'
p570
sbsg19
(lp571
g1
(g21
g3
Ntp572
Rp573
(dp574
g17
I33620347
sbasg25
S'eth6'
p575
sbsg27
g1
(g28
g3
Ntp576
Rp577
(dp578
g32
g568
sg33
g568
sg34
g1
(g35
g3
Ntp579
Rp580
(dp581
g39
I0
sg40
I34742
sg41
g573
sg42
I1
sg43
g573
sg44
I0
sg45
I64
sg46
I72
sg34
g1
(g47
g3
Ntp582
Rp583
(dp584
g51
I0
sg40
I3639
sg52
g580
sg53
I0
sg34
S'PingPingPingPingPingPingPingPingPingPingPingPing'
p585
sbsg55
Nsg56
I0
sg57
I5
sg58
I4
sg59
I64248
sg52
g577
sg60
I00
sbsg55
Nsg52
Nsg53
I2048
sg60
I00
sbsbag1
(g2
g3
Ntp586
Rp587
(dp588
g7
g1
(g8
g3
Ntp589
Rp590
(dp591
g12
g1
(g13
g3
Ntp592
Rp593
(dp594
g17
S'\x00\x00\x00\x01\x01\x03'
p595
sbsg19
(lp596
g1
(g21
g3
Ntp597
Rp598
(dp599
g17
I50397563
sbasg25
S'eth6'
p600
sbsg27
g1
(g28
g3
Ntp601
Rp602
(dp603
g32
g593
sg33
g593
sg34
g1
(g35
g3
Ntp604
Rp605
(dp606
g39
I0
sg40
I34739
sg41
g598
sg42
I1
sg43
g598
sg44
I0
sg45
I64
sg46
I72
sg34
g1
(g47
g3
Ntp607
Rp608
(dp609
g51
I0
sg40
I1591
sg52
g605
sg53
I8
sg34
S'PingPingPingPingPingPingPingPingPingPingPingPing'
p610
sbsg55
Nsg56
I0
sg57
I5
sg58
I4
sg59
I64249
sg52
g602
sg60
I00
sbsg55
Nsg52
Nsg53
I2048
sg60
I00
sbsbag1
(g2
g3
Ntp611
Rp612
(dp613
g7
g1
(g8
g3
Ntp614
Rp615
(dp616
g12
g1
(g13
g3
Ntp617
Rp618
(dp619
g17
S'\x00\x00\x00\x01\x01\x04'
p620
sbsg19
(lp621
g1
(g21
g3
Ntp622
Rp623
(dp624
g17
I67174779
sbasg25
S'eth6'
p625
sbsg27
g1
(g28
g3
Ntp626
Rp627
(dp628
g32
g618
sg33
g618
sg34
g1
(g35
g3
Ntp629
Rp630
(dp631
g39
I0
sg40
I34736
sg41
g623
sg42
I1
sg43
g623
sg44
I0
sg45
I64
sg46
I72
sg34
g1
(g47
g3
Ntp632
Rp633
(dp634
g51
I0
sg40
I1591
sg52
g630
sg53
I8
sg34
S'PingPingPingPingPingPingPingPingPingPingPingPing'
p635
sbsg55
Nsg56
I0
sg57
I5
sg58
I4
sg59
I64250
sg52
g627
sg60
I00
sbsg55
Nsg52
Nsg53
I2048
sg60
I00
sbsbag1
(g2
g3
Ntp636
Rp637
(dp638
g7
g1
(g8
g3
Ntp639
Rp640
(dp641
g12
g1
(g13
g3
Ntp642
Rp643
(dp644
g17
S'\x00\x00\x00\x01\x02\x01'
p645
sbsg19
(lp646
g1
(g21
g3
Ntp647
Rp648
(dp649
g17
I16908667
sbasg25
S'eth7'
p650
sbsg27
g1
(g28
g3
Ntp651
Rp652
(dp653
g32
g643
sg33
g643
sg34
g1
(g35
g3
Ntp654
Rp655
(dp656
g39
I0
sg40
I34229
sg41
g648
sg42
I1
sg43
g648
sg44
I0
sg45
I64
sg46
I72
sg34
g1
(g47
g3
Ntp657
Rp658
(dp659
g51
I0
sg40
I1591
sg52
g655
sg53
I8
sg34
S'PingPingPingPingPingPingPingPingPingPingPingPing'
p660
sbsg55
Nsg56
I0
sg57
I5
sg58
I4
sg59
I64251
sg52
g652
sg60
I00
sbsg55
Nsg52
Nsg53
I2048
sg60
I00
sbsbag1
(g2
g3
Ntp661
Rp662
(dp663
g7
g1
(g8
g3
Ntp664
Rp665
(dp666
g12
g1
(g13
g3
Ntp667
Rp668
(dp669
g17
S'\x00\x00\x00\x01\x02\x02'
p670
sbsg19
(lp671
g1
(g21
g3
Ntp672
Rp673
(dp674
g17
I33685883
sbasg25
S'eth7'
p675
sbsg27
g1
(g28
g3
Ntp676
Rp677
(dp678
g32
g668
sg33
g668
sg34
g1
(g35
g3
Ntp679
Rp680
(dp681
g39
I0
sg40
I34226
sg41
g673
sg42
I1
sg43
g673
sg44
I0
sg45
I64
sg46
I72
sg34
g1
(g47
g3
Ntp682
Rp683
(dp684
g51
I0
sg40
I3639
sg52
g680
sg53
I0
sg34
S'PingPingPingPingPingPingPingPingPingPingPingPing'
p685
sbsg55
Nsg56
I0
sg57
I5
sg58
I4
sg59
I64252
sg52
g677
sg60
I00
sbsg55
Nsg52
Nsg53
I2048
sg60
I00
sbsbag1
(g2
g3
Ntp686
Rp687
(dp688
g7
g1
(g8
g3
Ntp689
Rp690
(dp691
g12
g1
(g13
g3
Ntp692
Rp693
(dp694
g17
S'\x00\x00\x00\x01\x02\x03'
p695
sbsg19
(lp696
g1
(g21
g3
Ntp697
Rp698
(dp699
g17
I50463099
sbasg25
S'eth7'
p700
sbsg27
g1
(g28
g3
Ntp701
Rp702
(dp703
g32
g693
sg33
g693
sg34
g1
(g35
g3
Ntp704
Rp705
(dp706
g39
I0
sg40
I34223
sg41
g698
sg42
I1
sg43
g698
sg44
I0
sg45
I64
sg46
I72
sg34
g1
(g47
g3
Ntp707
Rp708
(dp709
g51
I0
sg40
I1591
sg52
g705
sg53
I8
sg34
S'PingPingPingPingPingPingPingPingPingPingPingPing'
p710
sbsg55
Nsg56
I0
sg57
I5
sg58
I4
sg59
I64253
sg52
g702
sg60
I00
sbsg55
Nsg52
Nsg53
I2048
sg60
I00
sbsbag1
(g2
g3
Ntp711
Rp712
(dp713
g7
g1
(g8
g3
Ntp714
Rp715
(dp716
g12
g1
(g13
g3
Ntp717
Rp718
(dp719
g17
S'\x00\x00\x00\x01\x02\x04'
p720
sbsg19
(lp721
g1
(g21
g3
Ntp722
Rp723
(dp724
g17
I67240315
sbasg25
S'eth7'
p725
sbsg27
g1
(g28
g3
Ntp726
Rp727
(dp728
g32
g718
sg33
g718
sg34
g1
(g35
g3
Ntp729
Rp730
(dp731
g39
I0
sg40
I34220
sg41
g723
sg42
I1
sg43
g723
sg44
I0
sg45
I64
sg46
I72
sg34
g1
(g47
g3
Ntp732
Rp733
(dp734
g51
I0
sg40
I1591
sg52
g730
sg53
I8
sg34
S'PingPingPingPingPingPingPingPingPingPingPingPing'
p735
sbsg55
Nsg56
I0
sg57
I5
sg58
I4
sg59
I64254
sg52
g727
sg60
I00
sbsg55
Nsg52
Nsg53
I2048
sg60
I00
sbsbag1
(g2
g3
Ntp736
Rp737
(dp738
g7
g1
(g8
g3
Ntp739
Rp740
(dp741
g12
g1
(g13
g3
Ntp742
Rp743
(dp744
g17
S'\x00\x00\x00\x01\x03\x01'
p745
sbsg19
(lp746
g1
(g21
g3
Ntp747
Rp748
(dp749
g17
I16974203
sbasg25
S'eth8'
p750
sbsg27
g1
(g28
g3
Ntp751
Rp752
(dp753
g32
g743
sg33
g743
sg34
g1
(g35
g3
Ntp754
Rp755
(dp756
g39
I0
sg40
I33713
sg41
g748
sg42
I1
sg43
g748
sg44
I0
sg45
I64
sg46
I72
sg34
g1
(g47
g3
Ntp757
Rp758
(dp759
g51
I0
sg40
I3639
sg52
g755
sg53
I0
sg34
S'PingPingPingPingPingPingPingPingPingPingPingPing'
p760
sbsg55
Nsg56
I0
sg57
I5
sg58
I4
sg59
I64255
sg52
g752
sg60
I00
sbsg55
Nsg52
Nsg53
I2048
sg60
I00
sbsbag1
(g2
g3
Ntp761
Rp762
(dp763
g7
g1
(g8
g3
Ntp764
Rp765
(dp766
g12
g1
(g13
g3
Ntp767
Rp768
(dp769
g17
S'\x00\x00\x00\x01\x03\x02'
p770
sbsg19
(lp771
g1
(g21
g3
Ntp772
Rp773
(dp774
g17
I33751419
sbasg25
S'eth8'
p775
sbsg27
g1
(g28
g3
Ntp776
Rp777
(dp778
g32
g768
sg33
g768
sg34
g1
(g35
g3
Ntp779
Rp780
(dp781
g39
I0
sg40
I33710
sg41
g773
sg42
I1
sg43
g773
sg44
I0
sg45
I64
sg46
I72
sg34
g1
(g47
g3
Ntp782
Rp783
(dp784
g51
I0
sg40
I1591
sg52
g780
sg53
I8
sg34
S'PingPingPingPingPingPingPingPingPingPingPingPing'
p785
sbsg55
Nsg56
I0
sg57
I5
sg58
I4
sg59
I64256
sg52
g777
sg60
I00
sbsg55
Nsg52
Nsg53
I2048
sg60
I00
sbsbag1
(g2
g3
Ntp786
Rp787
(dp788
g7
g1
(g8
g3
Ntp789
Rp790
(dp791
g12
g1
(g13
g3
Ntp792
Rp793
(dp794
g17
S'\x00\x00\x00\x01\x03\x03'
p795
sbsg19
(lp796
g1
(g21
g3
Ntp797
Rp798
(dp799
g17
I50528635
sbasg25
S'eth8'
p800
sbsg27
g1
(g28
g3
Ntp801
Rp802
(dp803
g32
g793
sg33
g793
sg34
g1
(g35
g3
Ntp804
Rp805
(dp806
g39
I0
sg40
I33707
sg41
g798
sg42
I1
sg43
g798
sg44
I0
sg45
I64
sg46
I72
sg34
g1
(g47
g3
Ntp807
Rp808
(dp809
g51
I0
sg40
I1591
sg52
g805
sg53
I8
sg34
S'PingPingPingPingPingPingPingPingPingPingPingPing'
p810
sbsg55
Nsg56
I0
sg57
I5
sg58
I4
sg59
I64257
sg52
g802
sg60
I00
sbsg55
Nsg52
Nsg53
I2048
sg60
I00
sbsbag1
(g2
g3
Ntp811
Rp812
(dp813
g7
g1
(g8
g3
Ntp814
Rp815
(dp816
g12
g1
(g13
g3
Ntp817
Rp818
(dp819
g17
S'\x00\x00\x00\x01\x03\x04'
p820
sbsg19
(lp821
g1
(g21
g3
Ntp822
Rp823
(dp824
g17
I67305851
sbasg25
S'eth8'
p825
sbsg27
g1
(g28
g3
Ntp826
Rp827
(dp828
g32
g818
sg33
g818
sg34
g1
(g35
g3
Ntp829
Rp830
(dp831
g39
I0
sg40
I33704
sg41
g823
sg42
I1
sg43
g823
sg44
I0
sg45
I64
sg46
I72
sg34
g1
(g47
g3
Ntp832
Rp833
(dp834
g51
I0
sg40
I1591
sg52
g830
sg53
I8
sg34
S'PingPingPingPingPingPingPingPingPingPingPingPing'
p835
sbsg55
Nsg56
I0
sg57
I5
sg58
I4
sg59
I64258
sg52
g827
sg60
I00
sbsg55
Nsg52
Nsg53
I2048
sg60
I00
sbsbag1
(g2
g3
Ntp836
Rp837
(dp838
g7
g1
(g8
g3
Ntp839
Rp840
(dp841
g12
g1
(g13
g3
Ntp842
Rp843
(dp844
g17
S'\x00\x00\x00\x02\x00\x01'
p845
sbsg19
(lp846
g1
(g21
g3
Ntp847
Rp848
(dp849
g17
I16777851
sbasg25
S'eth9'
p850
sbsg27
g1
(g28
g3
Ntp851
Rp852
(dp853
g32
g843
sg33
g843
sg34
g1
(g35
g3
Ntp854
Rp855
(dp856
g39
I0
sg40
I35243
sg41
g848
sg42
I1
sg43
g848
sg44
I0
sg45
I64
sg46
I72
sg34
g1
(g47
g3
Ntp857
Rp858
(dp859
g51
I0
sg40
I3639
sg52
g855
sg53
I0
sg34
S'PingPingPingPingPingPingPingPingPingPingPingPing'
p860
sbsg55
Nsg56
I0
sg57
I5
sg58
I4
sg59
I64259
sg52
g852
sg60
I00
sbsg55
Nsg52
Nsg53
I2048
sg60
I00
sbsbag1
(g2
g3
Ntp861
Rp862
(dp863
g7
g1
(g8
g3
Ntp864
Rp865
(dp866
g12
g1
(g13
g3
Ntp867
Rp868
(dp869
g17
S'\x00\x00\x00\x02\x00\x02'
p870
sbsg19
(lp871
g1
(g21
g3
Ntp872
Rp873
(dp874
g17
I33555067
sbasg25
S'eth9'
p875
sbsg27
g1
(g28
g3
Ntp876
Rp877
(dp878
g32
g868
sg33
g868
sg34
g1
(g35
g3
Ntp879
Rp880
(dp881
g39
I0
sg40
I35240
sg41
g873
sg42
I1
sg43
g873
sg44
I0
sg45
I64
sg46
I72
sg34
g1
(g47
g3
Ntp882
Rp883
(dp884
g51
I0
sg40
I1591
sg52
g880
sg53
I8
sg34
S'PingPingPingPingPingPingPingPingPingPingPingPing'
p885
sbsg55
Nsg56
I0
sg57
I5
sg58
I4
sg59
I64260
sg52
g877
sg60
I00
sbsg55
Nsg52
Nsg53
I2048
sg60
I00
sbsbag1
(g2
g3
Ntp886
Rp887
(dp888
g7
g1
(g8
g3
Ntp889
Rp890
(dp891
g12
g1
(g13
g3
Ntp892
Rp893
(dp894
g17
S'\x00\x00\x00\x02\x00\x03'
p895
sbsg19
(lp896
g1
(g21
g3
Ntp897
Rp898
(dp899
g17
I50332283
sbasg25
S'eth9'
p900
sbsg27
g1
(g28
g3
Ntp901
Rp902
(dp903
g32
g893
sg33
g893
sg34
g1
(g35
g3
Ntp904
Rp905
(dp906
g39
I0
sg40
I35237
sg41
g898
sg42
I1
sg43
g898
sg44
I0
sg45
I64
sg46
I72
sg34
g1
(g47
g3
Ntp907
Rp908
(dp909
g51
I0
sg40
I1591
sg52
g905
sg53
I8
sg34
S'PingPingPingPingPingPingPingPingPingPingPingPing'
p910
sbsg55
Nsg56
I0
sg57
I5
sg58
I4
sg59
I64261
sg52
g902
sg60
I00
sbsg55
Nsg52
Nsg53
I2048
sg60
I00
sbsbag1
(g2
g3
Ntp911
Rp912
(dp913
g7
g1
(g8
g3
Ntp914
Rp915
(dp916
g12
g1
(g13
g3
Ntp917
Rp918
(dp919
g17
S'\x00\x00\x00\x02\x00\x04'
p920
sbsg19
(lp921
g1
(g21
g3
Ntp922
Rp923
(dp924
g17
I67109499
sbasg25
S'eth9'
p925
sbsg27
g1
(g28
g3
Ntp926
Rp927
(dp928
g32
g918
sg33
g918
sg34
g1
(g35
g3
Ntp929
Rp930
(dp931
g39
I0
sg40
I35234
sg41
g923
sg42
I1
sg43
g923
sg44
I0
sg45
I64
sg46
I72
sg34
g1
(g47
g3
Ntp932
Rp933
(dp934
g51
I0
sg40
I1591
sg52
g930
sg53
I8
sg34
S'PingPingPingPingPingPingPingPingPingPingPingPing'
p935
sbsg55
Nsg56
I0
sg57
I5
sg58
I4
sg59
I64262
sg52
g927
sg60
I00
sbsg55
Nsg52
Nsg53
I2048
sg60
I00
sbsbag1
(g2
g3
Ntp936
Rp937
(dp938
g7
g1
(g8
g3
Ntp939
Rp940
(dp941
g12
g1
(g13
g3
Ntp942
Rp943
(dp944
g17
S'\x00\x00\x00\x02\x01\x01'
p945
sbsg19
(lp946
g1
(g21
g3
Ntp947
Rp948
(dp949
g17
I16843387
sbasg25
S'eth10'
p950
sbsg27
g1
(g28
g3
Ntp951
Rp952
(dp953
g32
g943
sg33
g943
sg34
g1
(g35
g3
Ntp954
Rp955
(dp956
g39
I0
sg40
I34727
sg41
g948
sg42
I1
sg43
g948
sg44
I0
sg45
I64
sg46
I72
sg34
g1
(g47
g3
Ntp957
Rp958
(dp959
g51
I0
sg40
I1591
sg52
g955
sg53
I8
sg34
S'PingPingPingPingPingPingPingPingPingPingPingPing'
p960
sbsg55
Nsg56
I0
sg57
I5
sg58
I4
sg59
I64263
sg52
g952
sg60
I00
sbsg55
Nsg52
Nsg53
I2048
sg60
I00
sbsbag1
(g2
g3
Ntp961
Rp962
(dp963
g7
g1
(g8
g3
Ntp964
Rp965
(dp966
g12
g1
(g13
g3
Ntp967
Rp968
(dp969
g17
S'\x00\x00\x00\x02\x01\x02'
p970
sbsg19
(lp971
g1
(g21
g3
Ntp972
Rp973
(dp974
g17
I33620603
sbasg25
S'eth10'
p975
sbsg27
g1
(g28
g3
Ntp976
Rp977
(dp978
g32
g968
sg33
g968
sg34
g1
(g35
g3
Ntp979
Rp980
(dp981
g39
I0
sg40
I34724
sg41
g973
sg42
I1
sg43
g973
sg44
I0
sg45
I64
sg46
I72
sg34
g1
(g47
g3
Ntp982
Rp983
(dp984
g51
I0
sg40
I1591
sg52
g980
sg53
I8
sg34
S'PingPingPingPingPingPingPingPingPingPingPingPing'
p985
sbsg55
Nsg56
I0
sg57
I5
sg58
I4
sg59
I64264
sg52
g977
sg60
I00
sbsg55
Nsg52
Nsg53
I2048
sg60
I00
sbsbag1
(g2
g3
Ntp986
Rp987
(dp988
g7
g1
(g8
g3
Ntp989
Rp990
(dp991
g12
g1
(g13
g3
Ntp992
Rp993
(dp994
g17
S'\x00\x00\x00\x02\x01\x03'
p995
sbsg19
(lp996
g1
(g21
g3
Ntp997
Rp998
(dp999
g17
I50397819
sbasg25
S'eth10'
p1000
sbsg27
g1
(g28
g3
Ntp1001
Rp1002
(dp1003
g32
g993
sg33
g993
sg34
g1
(g35
g3
Ntp1004
Rp1005
(dp1006
g39
I0
sg40
I34721
sg41
g998
sg42
I1
sg43
g998
sg44
I0
sg45
I64
sg46
I72
sg34
g1
(g47
g3
Ntp1007
Rp1008
(dp1009
g51
I0
sg40
I3639
sg52
g1005
sg53
I0
sg34
S'PingPingPingPingPingPingPingPingPingPingPingPing'
p1010
sbsg55
Nsg56
I0
sg57
I5
sg58
I4
sg59
I64265
sg52
g1002
sg60
I00
sbsg55
Nsg52
Nsg53
I2048
sg60
I00
sbsbag1
(g2
g3
Ntp1011
Rp1012
(dp1013
g7
g1
(g8
g3
Ntp1014
Rp1015
(dp1016
g12
g1
(g13
g3
Ntp1017
Rp1018
(dp1019
g17
S'\x00\x00\x00\x02\x01\x04'
p1020
sbsg19
(lp1021
g1
(g21
g3
Ntp1022
Rp1023
(dp1024
g17
I67175035
sbasg25
S'eth10'
p1025
sbsg27
g1
(g28
g3
Ntp1026
Rp1027
(dp1028
g32
g1018
sg33
g1018
sg34
g1
(g35
g3
Ntp1029
Rp1030
(dp1031
g39
I0
sg40
I34718
sg41
g1023
sg42
I1
sg43
g1023
sg44
I0
sg45
I64
sg46
I72
sg34
g1
(g47
g3
Ntp1032
Rp1033
(dp1034
g51
I0
sg40
I1591
sg52
g1030
sg53
I8
sg34
S'PingPingPingPingPingPingPingPingPingPingPingPing'
p1035
sbsg55
Nsg56
I0
sg57
I5
sg58
I4
sg59
I64266
sg52
g1027
sg60
I00
sbsg55
Nsg52
Nsg53
I2048
sg60
I00
sbsbag1
(g2
g3
Ntp1036
Rp1037
(dp1038
g7
g1
(g8
g3
Ntp1039
Rp1040
(dp1041
g12
g1
(g13
g3
Ntp1042
Rp1043
(dp1044
g17
S'\x00\x00\x00\x02\x02\x01'
p1045
sbsg19
(lp1046
g1
(g21
g3
Ntp1047
Rp1048
(dp1049
g17
I16908923
sbasg25
S'eth11'
p1050
sbsg27
g1
(g28
g3
Ntp1051
Rp1052
(dp1053
g32
g1043
sg33
g1043
sg34
g1
(g35
g3
Ntp1054
Rp1055
(dp1056
g39
I0
sg40
I34211
sg41
g1048
sg42
I1
sg43
g1048
sg44
I0
sg45
I64
sg46
I72
sg34
g1
(g47
g3
Ntp1057
Rp1058
(dp1059
g51
I0
sg40
I3639
sg52
g1055
sg53
I0
sg34
S'PingPingPingPingPingPingPingPingPingPingPingPing'
p1060
sbsg55
Nsg56
I0
sg57
I5
sg58
I4
sg59
I64267
sg52
g1052
sg60
I00
sbsg55
Nsg52
Nsg53
I2048
sg60
I00
sbsbag1
(g2
g3
Ntp1061
Rp1062
(dp1063
g7
g1
(g8
g3
Ntp1064
Rp1065
(dp1066
g12
g1
(g13
g3
Ntp1067
Rp1068
(dp1069
g17
S'\x00\x00\x00\x02\x02\x02'
p1070
sbsg19
(lp1071
g1
(g21
g3
Ntp1072
Rp1073
(dp1074
g17
I33686139
sbasg25
S'eth11'
p1075
sbsg27
g1
(g28
g3
Ntp1076
Rp1077
(dp1078
g32
g1068
sg33
g1068
sg34
g1
(g35
g3
Ntp1079
Rp1080
(dp1081
g39
I0
sg40
I34208
sg41
g1073
sg42
I1
sg43
g1073
sg44
I0
sg45
I64
sg46
I72
sg34
g1
(g47
g3
Ntp1082
Rp1083
(dp1084
g51
I0
sg40
I1591
sg52
g1080
sg53
I8
sg34
S'PingPingPingPingPingPingPingPingPingPingPingPing'
p1085
sbsg55
Nsg56
I0
sg57
I5
sg58
I4
sg59
I64268
sg52
g1077
sg60
I00
sbsg55
Nsg52
Nsg53
I2048
sg60
I00
sbsbag1
(g2
g3
Ntp1086
Rp1087
(dp1088
g7
g1
(g8
g3
Ntp1089
Rp1090
(dp1091
g12
g1
(g13
g3
Ntp1092
Rp1093
(dp1094
g17
S'\x00\x00\x00\x02\x02\x03'
p1095
sbsg19
(lp1096
g1
(g21
g3
Ntp1097
Rp1098
(dp1099
g17
I50463355
sbasg25
S'eth11'
p1100
sbsg27
g1
(g28
g3
Ntp1101
Rp1102
(dp1103
g32
g1093
sg33
g1093
sg34
g1
(g35
g3
Ntp1104
Rp1105
(dp1106
g39
I0
sg40
I34205
sg41
g1098
sg42
I1
sg43
g1098
sg44
I0
sg45
I64
sg46
I72
sg34
g1
(g47
g3
Ntp1107
Rp1108
(dp1109
g51
I0
sg40
I3639
sg52
g1105
sg53
I0
sg34
S'PingPingPingPingPingPingPingPingPingPingPingPing'
p1110
sbsg55
Nsg56
I0
sg57
I5
sg58
I4
sg59
I64269
sg52
g1102
sg60
I00
sbsg55
Nsg52
Nsg53
I2048
sg60
I00
sbsbag1
(g2
g3
Ntp1111
Rp1112
(dp1113
g7
g1
(g8
g3
Ntp1114
Rp1115
(dp1116
g12
g1
(g13
g3
Ntp1117
Rp1118
(dp1119
g17
S'\x00\x00\x00\x02\x02\x04'
p1120
sbsg19
(lp1121
g1
(g21
g3
Ntp1122
Rp1123
(dp1124
g17
I67240571
sbasg25
S'eth11'
p1125
sbsg27
g1
(g28
g3
Ntp1126
Rp1127
(dp1128
g32
g1118
sg33
g1118
sg34
g1
(g35
g3
Ntp1129
Rp1130
(dp1131
g39
I0
sg40
I34202
sg41
g1123
sg42
I1
sg43
g1123
sg44
I0
sg45
I64
sg46
I72
sg34
g1
(g47
g3
Ntp1132
Rp1133
(dp1134
g51
I0
sg40
I1591
sg52
g1130
sg53
I8
sg34
S'PingPingPingPingPingPingPingPingPingPingPingPing'
p1135
sbsg55
Nsg56
I0
sg57
I5
sg58
I4
sg59
I64270
sg52
g1127
sg60
I00
sbsg55
Nsg52
Nsg53
I2048
sg60
I00
sbsbag1
(g2
g3
Ntp1136
Rp1137
(dp1138
g7
g1
(g8
g3
Ntp1139
Rp1140
(dp1141
g12
g1
(g13
g3
Ntp1142
Rp1143
(dp1144
g17
S'\x00\x00\x00\x02\x03\x01'
p1145
sbsg19
(lp1146
g1
(g21
g3
Ntp1147
Rp1148
(dp1149
g17
I16974459
sbasg25
S'eth12'
p1150
sbsg27
g1
(g28
g3
Ntp1151
Rp1152
(dp1153
g32
g1143
sg33
g1143
sg34
g1
(g35
g3
Ntp1154
Rp1155
(dp1156
g39
I0
sg40
I33695
sg41
g1148
sg42
I1
sg43
g1148
sg44
I0
sg45
I64
sg46
I72
sg34
g1
(g47
g3
Ntp1157
Rp1158
(dp1159
g51
I0
sg40
I3639
sg52
g1155
sg53
I0
sg34
S'PingPingPingPingPingPingPingPingPingPingPingPing'
p1160
sbsg55
Nsg56
I0
sg57
I5
sg58
I4
sg59
I64271
sg52
g1152
sg60
I00
sbsg55
Nsg52
Nsg53
I2048
sg60
I00
sbsbag1
(g2
g3
Ntp1161
Rp1162
(dp1163
g7
g1
(g8
g3
Ntp1164
Rp1165
(dp1166
g12
g1
(g13
g3
Ntp1167
Rp1168
(dp1169
g17
S'\x00\x00\x00\x02\x03\x02'
p1170
sbsg19
(lp1171
g1
(g21
g3
Ntp1172
Rp1173
(dp1174
g17
I33751675
sbasg25
S'eth12'
p1175
sbsg27
g1
(g28
g3
Ntp1176
Rp1177
(dp1178
g32
g1168
sg33
g1168
sg34
g1
(g35
g3
Ntp1179
Rp1180
(dp1181
g39
I0
sg40
I33692
sg41
g1173
sg42
I1
sg43
g1173
sg44
I0
sg45
I64
sg46
I72
sg34
g1
(g47
g3
Ntp1182
Rp1183
(dp1184
g51
I0
sg40
I3639
sg52
g1180
sg53
I0
sg34
S'PingPingPingPingPingPingPingPingPingPingPingPing'
p1185
sbsg55
Nsg56
I0
sg57
I5
sg58
I4
sg59
I64272
sg52
g1177
sg60
I00
sbsg55
Nsg52
Nsg53
I2048
sg60
I00
sbsbag1
(g2
g3
Ntp1186
Rp1187
(dp1188
g7
g1
(g8
g3
Ntp1189
Rp1190
(dp1191
g12
g1
(g13
g3
Ntp1192
Rp1193
(dp1194
g17
S'\x00\x00\x00\x02\x03\x03'
p1195
sbsg19
(lp1196
g1
(g21
g3
Ntp1197
Rp1198
(dp1199
g17
I50528891
sbasg25
S'eth12'
p1200
sbsg27
g1
(g28
g3
Ntp1201
Rp1202
(dp1203
g32
g1193
sg33
g1193
sg34
g1
(g35
g3
Ntp1204
Rp1205
(dp1206
g39
I0
sg40
I33689
sg41
g1198
sg42
I1
sg43
g1198
sg44
I0
sg45
I64
sg46
I72
sg34
g1
(g47
g3
Ntp1207
Rp1208
(dp1209
g51
I0
sg40
I1591
sg52
g1205
sg53
I8
sg34
S'PingPingPingPingPingPingPingPingPingPingPingPing'
p1210
sbsg55
Nsg56
I0
sg57
I5
sg58
I4
sg59
I64273
sg52
g1202
sg60
I00
sbsg55
Nsg52
Nsg53
I2048
sg60
I00
sbsbag1
(g2
g3
Ntp1211
Rp1212
(dp1213
g7
g1
(g8
g3
Ntp1214
Rp1215
(dp1216
g12
g1
(g13
g3
Ntp1217
Rp1218
(dp1219
g17
S'\x00\x00\x00\x02\x03\x04'
p1220
sbsg19
(lp1221
g1
(g21
g3
Ntp1222
Rp1223
(dp1224
g17
I67306107
sbasg25
S'eth12'
p1225
sbsg27
g1
(g28
g3
Ntp1226
Rp1227
(dp1228
g32
g1218
sg33
g1218
sg34
g1
(g35
g3
Ntp1229
Rp1230
(dp1231
g39
I0
sg40
I33686
sg41
g1223
sg42
I1
sg43
g1223
sg44
I0
sg45
I64
sg46
I72
sg34
g1
(g47
g3
Ntp1232
Rp1233
(dp1234
g51
I0
sg40
I3639
sg52
g1230
sg53
I0
sg34
S'PingPingPingPingPingPingPingPingPingPingPingPing'
p1235
sbsg55
Nsg56
I0
sg57
I5
sg58
I4
sg59
I64274
sg52
g1227
sg60
I00
sbsg55
Nsg52
Nsg53
I2048
sg60
I00
sbsbag1
(g2
g3
Ntp1236
Rp1237
(dp1238
g7
g1
(g8
g3
Ntp1239
Rp1240
(dp1241
g12
g1
(g13
g3
Ntp1242
Rp1243
(dp1244
g17
S'\x00\x00\x00\x03\x00\x01'
p1245
sbsg19
(lp1246
g1
(g21
g3
Ntp1247
Rp1248
(dp1249
g17
I16778107
sbasg25
S'eth13'
p1250
sbsg27
g1
(g28
g3
Ntp1251
Rp1252
(dp1253
g32
g1243
sg33
g1243
sg34
g1
(g35
g3
Ntp1254
Rp1255
(dp1256
g39
I0
sg40
I35225
sg41
g1248
sg42
I1
sg43
g1248
sg44
I0
sg45
I64
sg46
I72
sg34
g1
(g47
g3
Ntp1257
Rp1258
(dp1259
g51
I0
sg40
I1591
sg52
g1255
sg53
I8
sg34
S'PingPingPingPingPingPingPingPingPingPingPingPing'
p1260
sbsg55
Nsg56
I0
sg57
I5
sg58
I4
sg59
I64275
sg52
g1252
sg60
I00
sbsg55
Nsg52
Nsg53
I2048
sg60
I00
sbsbag1
(g2
g3
Ntp1261
Rp1262
(dp1263
g7
g1
(g8
g3
Ntp1264
Rp1265
(dp1266
g12
g1
(g13
g3
Ntp1267
Rp1268
(dp1269
g17
S'\x00\x00\x00\x03\x00\x02'
p1270
sbsg19
(lp1271
g1
(g21
g3
Ntp1272
Rp1273
(dp1274
g17
I33555323
sbasg25
S'eth13'
p1275
sbsg27
g1
(g28
g3
Ntp1276
Rp1277
(dp1278
g32
g1268
sg33
g1268
sg34
g1
(g35
g3
Ntp1279
Rp1280
(dp1281
g39
I0
sg40
I35222
sg41
g1273
sg42
I1
sg43
g1273
sg44
I0
sg45
I64
sg46
I72
sg34
g1
(g47
g3
Ntp1282
Rp1283
(dp1284
g51
I0
sg40
I1591
sg52
g1280
sg53
I8
sg34
S'PingPingPingPingPingPingPingPingPingPingPingPing'
p1285
sbsg55
Nsg56
I0
sg57
I5
sg58
I4
sg59
I64276
sg52
g1277
sg60
I00
sbsg55
Nsg52
Nsg53
I2048
sg60
I00
sbsbag1
(g2
g3
Ntp1286
Rp1287
(dp1288
g7
g1
(g8
g3
Ntp1289
Rp1290
(dp1291
g12
g1
(g13
g3
Ntp1292
Rp1293
(dp1294
g17
S'\x00\x00\x00\x03\x00\x03'
p1295
sbsg19
(lp1296
g1
(g21
g3
Ntp1297
Rp1298
(dp1299
g17
I50332539
sbasg25
S'eth13'
p1300
sbsg27
g1
(g28
g3
Ntp1301
Rp1302
(dp1303
g32
g1293
sg33
g1293
sg34
g1
(g35
g3
Ntp1304
Rp1305
(dp1306
g39
I0
sg40
I35219
sg41
g1298
sg42
I1
sg43
g1298
sg44
I0
sg45
I64
sg46
I72
sg34
g1
(g47
g3
Ntp1307
Rp1308
(dp1309
g51
I0
sg40
I3639
sg52
g1305
sg53
I0
sg34
S'PingPingPingPingPingPingPingPingPingPingPingPing'
p1310
sbsg55
Nsg56
I0
sg57
I5
sg58
I4
sg59
I64277
sg52
g1302
sg60
I00
sbsg55
Nsg52
Nsg53
I2048
sg60
I00
sbsbag1
(g2
g3
Ntp1311
Rp1312
(dp1313
g7
g1
(g8
g3
Ntp1314
Rp1315
(dp1316
g12
g1
(g13
g3
Ntp1317
Rp1318
(dp1319
g17
S'\x00\x00\x00\x03\x00\x04'
p1320
sbsg19
(lp1321
g1
(g21
g3
Ntp1322
Rp1323
(dp1324
g17
I67109755
sbasg25
S'eth13'
p1325
sbsg27
g1
(g28
g3
Ntp1326
Rp1327
(dp1328
g32
g1318
sg33
g1318
sg34
g1
(g35
g3
Ntp1329
Rp1330
(dp1331
g39
I0
sg40
I35216
sg41
g1323
sg42
I1
sg43
g1323
sg44
I0
sg45
I64
sg46
I72
sg34
g1
(g47
g3
Ntp1332
Rp1333
(dp1334
g51
I0
sg40
I1591
sg52
g1330
sg53
I8
sg34
S'PingPingPingPingPingPingPingPingPingPingPingPing'
p1335
sbsg55
Nsg56
I0
sg57
I5
sg58
I4
sg59
I64278
sg52
g1327
sg60
I00
sbsg55
Nsg52
Nsg53
I2048
sg60
I00
sbsbag1
(g2
g3
Ntp1336
Rp1337
(dp1338
g7
g1
(g8
g3
Ntp1339
Rp1340
(dp1341
g12
g1
(g13
g3
Ntp1342
Rp1343
(dp1344
g17
S'\x00\x00\x00\x03\x01\x01'
p1345
sbsg19
(lp1346
g1
(g21
g3
Ntp1347
Rp1348
(dp1349
g17
I16843643
sbasg25
S'eth14'
p1350
sbsg27
g1
(g28
g3
Ntp1351
Rp1352
(dp1353
g32
g1343
sg33
g1343
sg34
g1
(g35
g3
Ntp1354
Rp1355
(dp1356
g39
I0
sg40
I34709
sg41
g1348
sg42
I1
sg43
g1348
sg44
I0
sg45
I64
sg46
I72
sg34
g1
(g47
g3
Ntp1357
Rp1358
(dp1359
g51
I0
sg40
I3639
sg52
g1355
sg53
I0
sg34
S'PingPingPingPingPingPingPingPingPingPingPingPing'
p1360
sbsg55
Nsg56
I0
sg57
I5
sg58
I4
sg59
I64279
sg52
g1352
sg60
I00
sbsg55
Nsg52
Nsg53
I2048
sg60
I00
sbsbag1
(g2
g3
Ntp1361
Rp1362
(dp1363
g7
g1
(g8
g3
Ntp1364
Rp1365
(dp1366
g12
g1
(g13
g3
Ntp1367
Rp1368
(dp1369
g17
S'\x00\x00\x00\x03\x01\x02'
p1370
sbsg19
(lp1371
g1
(g21
g3
Ntp1372
Rp1373
(dp1374
g17
I33620859
sbasg25
S'eth14'
p1375
sbsg27
g1
(g28
g3
Ntp1376
Rp1377
(dp1378
g32
g1368
sg33
g1368
sg34
g1
(g35
g3
Ntp1379
Rp1380
(dp1381
g39
I0
sg40
I34706
sg41
g1373
sg42
I1
sg43
g1373
sg44
I0
sg45
I64
sg46
I72
sg34
g1
(g47
g3
Ntp1382
Rp1383
(dp1384
g51
I0
sg40
I3639
sg52
g1380
sg53
I0
sg34
S'PingPingPingPingPingPingPingPingPingPingPingPing'
p1385
sbsg55
Nsg56
I0
sg57
I5
sg58
I4
sg59
I64280
sg52
g1377
sg60
I00
sbsg55
Nsg52
Nsg53
I2048
sg60
I00
sbsbag1
(g2
g3
Ntp1386
Rp1387
(dp1388
g7
g1
(g8
g3
Ntp1389
Rp1390
(dp1391
g12
g1
(g13
g3
Ntp1392
Rp1393
(dp1394
g17
S'\x00\x00\x00\x03\x01\x03'
p1395
sbsg19
(lp1396
g1
(g21
g3
Ntp1397
Rp1398
(dp1399
g17
I50398075
sbasg25
S'eth14'
p1400
sbsg27
g1
(g28
g3
Ntp1401
Rp1402
(dp1403
g32
g1393
sg33
g1393
sg34
g1
(g35
g3
Ntp1404
Rp1405
(dp1406
g39
I0
sg40
I34703
sg41
g1398
sg42
I1
sg43
g1398
sg44
I0
sg45
I64
sg46
I72
sg34
g1
(g47
g3
Ntp1407
Rp1408
(dp1409
g51
I0
sg40
I3639
sg52
g1405
sg53
I0
sg34
S'PingPingPingPingPingPingPingPingPingPingPingPing'
p1410
sbsg55
Nsg56
I0
sg57
I5
sg58
I4
sg59
I64281
sg52
g1402
sg60
I00
sbsg55
Nsg52
Nsg53
I2048
sg60
I00
sbsbag1
(g2
g3
Ntp1411
Rp1412
(dp1413
g7
g1
(g8
g3
Ntp1414
Rp1415
(dp1416
g12
g1
(g13
g3
Ntp1417
Rp1418
(dp1419
g17
S'\x00\x00\x00\x03\x01\x04'
p1420
sbsg19
(lp1421
g1
(g21
g3
Ntp1422
Rp1423
(dp1424
g17
I67175291
sbasg25
S'eth14'
p1425
sbsg27
g1
(g28
g3
Ntp1426
Rp1427
(dp1428
g32
g1418
sg33
g1418
sg34
g1
(g35
g3
Ntp1429
Rp1430
(dp1431
g39
I0
sg40
I34700
sg41
g1423
sg42
I1
sg43
g1423
sg44
I0
sg45
I64
sg46
I72
sg34
g1
(g47
g3
Ntp1432
Rp1433
(dp1434
g51
I0
sg40
I1591
sg52
g1430
sg53
I8
sg34
S'PingPingPingPingPingPingPingPingPingPingPingPing'
p1435
sbsg55
Nsg56
I0
sg57
I5
sg58
I4
sg59
I64282
sg52
g1427
sg60
I00
sbsg55
Nsg52
Nsg53
I2048
sg60
I00
sbsbag1
(g2
g3
Ntp1436
Rp1437
(dp1438
g7
g1
(g8
g3
Ntp1439
Rp1440
(dp1441
g12
g1
(g13
g3
Ntp1442
Rp1443
(dp1444
g17
S'\x00\x00\x00\x03\x02\x01'
p1445
sbsg19
(lp1446
g1
(g21
g3
Ntp1447
Rp1448
(dp1449
g17
I16909179
sbasg25
S'eth15'
p1450
sbsg27
g1
(g28
g3
Ntp1451
Rp1452
(dp1453
g32
g1443
sg33
g1443
sg34
g1
(g35
g3
Ntp1454
Rp1455
(dp1456
g39
I0
sg40
I34193
sg41
g1448
sg42
I1
sg43
g1448
sg44
I0
sg45
I64
sg46
I72
sg34
g1
(g47
g3
Ntp1457
Rp1458
(dp1459
g51
I0
sg40
I3639
sg52
g1455
sg53
I0
sg34
S'PingPingPingPingPingPingPingPingPingPingPingPing'
p1460
sbsg55
Nsg56
I0
sg57
I5
sg58
I4
sg59
I64283
sg52
g1452
sg60
I00
sbsg55
Nsg52
Nsg53
I2048
sg60
I00
sbsbag1
(g2
g3
Ntp1461
Rp1462
(dp1463
g7
g1
(g8
g3
Ntp1464
Rp1465
(dp1466
g12
g1
(g13
g3
Ntp1467
Rp1468
(dp1469
g17
S'\x00\x00\x00\x03\x02\x02'
p1470
sbsg19
(lp1471
g1
(g21
g3
Ntp1472
Rp1473
(dp1474
g17
I33686395
sbasg25
S'eth15'
p1475
sbsg27
g1
(g28
g3
Ntp1476
Rp1477
(dp1478
g32
g1468
sg33
g1468
sg34
g1
(g35
g3
Ntp1479
Rp1480
(dp1481
g39
I0
sg40
I34190
sg41
g1473
sg42
I1
sg43
g1473
sg44
I0
sg45
I64
sg46
I72
sg34
g1
(g47
g3
Ntp1482
Rp1483
(dp1484
g51
I0
sg40
I3639
sg52
g1480
sg53
I0
sg34
S'PingPingPingPingPingPingPingPingPingPingPingPing'
p1485
sbsg55
Nsg56
I0
sg57
I5
sg58
I4
sg59
I64284
sg52
g1477
sg60
I00
sbsg55
Nsg52
Nsg53
I2048
sg60
I00
sbsbag1
(g2
g3
Ntp1486
Rp1487
(dp1488
g7
g1
(g8
g3
Ntp1489
Rp1490
(dp1491
g12
g1
(g13
g3
Ntp1492
Rp1493
(dp1494
g17
S'\x00\x00\x00\x03\x02\x03'
p1495
sbsg19
(lp1496
g1
(g21
g3
Ntp1497
Rp1498
(dp1499
g17
I50463611
sbasg25
S'eth15'
p1500
sbsg27
g1
(g28
g3
Ntp1501
Rp1502
(dp1503
g32
g1493
sg33
g1493
sg34
g1
(g35
g3
Ntp1504
Rp1505
(dp1506
g39
I0
sg40
I34187
sg41
g1498
sg42
I1
sg43
g1498
sg44
I0
sg45
I64
sg46
I72
sg34
g1
(g47
g3
Ntp1507
Rp1508
(dp1509
g51
I0
sg40
I3639
sg52
g1505
sg53
I0
sg34
S'PingPingPingPingPingPingPingPingPingPingPingPing'
p1510
sbsg55
Nsg56
I0
sg57
I5
sg58
I4
sg59
I64285
sg52
g1502
sg60
I00
sbsg55
Nsg52
Nsg53
I2048
sg60
I00
sbsbag1
(g2
g3
Ntp1511
Rp1512
(dp1513
g7
g1
(g8
g3
Ntp1514
Rp1515
(dp1516
g12
g1
(g13
g3
Ntp1517
Rp1518
(dp1519
g17
S'\x00\x00\x00\x03\x02\x04'
p1520
sbsg19
(lp1521
g1
(g21
g3
Ntp1522
Rp1523
(dp1524
g17
I67240827
sbasg25
S'eth15'
p1525
sbsg27
g1
(g28
g3
Ntp1526
Rp1527
(dp1528
g32
g1518
sg33
g1518
sg34
g1
(g35
g3
Ntp1529
Rp1530
(dp1531
g39
I0
sg40
I34184
sg41
g1523
sg42
I1
sg43
g1523
sg44
I0
sg45
I64
sg46
I72
sg34
g1
(g47
g3
Ntp1532
Rp1533
(dp1534
g51
I0
sg40
I3639
sg52
g1530
sg53
I0
sg34
S'PingPingPingPingPingPingPingPingPingPingPingPing'
p1535
sbsg55
Nsg56
I0
sg57
I5
sg58
I4
sg59
I64286
sg52
g1527
sg60
I00
sbsg55
Nsg52
Nsg53
I2048
sg60
I00
sbsbag1
(g2
g3
Ntp1536
Rp1537
(dp1538
g7
g1
(g8
g3
Ntp1539
Rp1540
(dp1541
g12
g1
(g13
g3
Ntp1542
Rp1543
(dp1544
g17
S'\x00\x00\x00\x03\x03\x01'
p1545
sbsg19
(lp1546
g1
(g21
g3
Ntp1547
Rp1548
(dp1549
g17
I16974715
sbasg25
S'eth16'
p1550
sbsg27
g1
(g28
g3
Ntp1551
Rp1552
(dp1553
g32
g1543
sg33
g1543
sg34
g1
(g35
g3
Ntp1554
Rp1555
(dp1556
g39
I0
sg40
I33677
sg41
g1548
sg42
I1
sg43
g1548
sg44
I0
sg45
I64
sg46
I72
sg34
g1
(g47
g3
Ntp1557
Rp1558
(dp1559
g51
I0
sg40
I1591
sg52
g1555
sg53
I8
sg34
S'PingPingPingPingPingPingPingPingPingPingPingPing'
p1560
sbsg55
Nsg56
I0
sg57
I5
sg58
I4
sg59
I64287
sg52
g1552
sg60
I00
sbsg55
Nsg52
Nsg53
I2048
sg60
I00
sbsbag1
(g2
g3
Ntp1561
Rp1562
(dp1563
g7
g1
(g8
g3
Ntp1564
Rp1565
(dp1566
g12
g1
(g13
g3
Ntp1567
Rp1568
(dp1569
g17
S'\x00\x00\x00\x03\x03\x02'
p1570
sbsg19
(lp1571
g1
(g21
g3
Ntp1572
Rp1573
(dp1574
g17
I33751931
sbasg25
S'eth16'
p1575
sbsg27
g1
(g28
g3
Ntp1576
Rp1577
(dp1578
g32
g1568
sg33
g1568
sg34
g1
(g35
g3
Ntp1579
Rp1580
(dp1581
g39
I0
sg40
I33674
sg41
g1573
sg42
I1
sg43
g1573
sg44
I0
sg45
I64
sg46
I72
sg34
g1
(g47
g3
Ntp1582
Rp1583
(dp1584
g51
I0
sg40
I1591
sg52
g1580
sg53
I8
sg34
S'PingPingPingPingPingPingPingPingPingPingPingPing'
p1585
sbsg55
Nsg56
I0
sg57
I5
sg58
I4
sg59
I64288
sg52
g1577
sg60
I00
sbsg55
Nsg52
Nsg53
I2048
sg60
I00
sbsbag1
(g2
g3
Ntp1586
Rp1587
(dp1588
g7
g1
(g8
g3
Ntp1589
Rp1590
(dp1591
g12
g1
(g13
g3
Ntp1592
Rp1593
(dp1594
g17
S'\x00\x00\x00\x03\x03\x03'
p1595
sbsg19
(lp1596
g1
(g21
g3
Ntp1597
Rp1598
(dp1599
g17
I50529147
sbasg25
S'eth16'
p1600
sbsg27
g1
(g28
g3
Ntp1601
Rp1602
(dp1603
g32
g1593
sg33
g1593
sg34
g1
(g35
g3
Ntp1604
Rp1605
(dp1606
g39
I0
sg40
I33671
sg41
g1598
sg42
I1
sg43
g1598
sg44
I0
sg45
I64
sg46
I72
sg34
g1
(g47
g3
Ntp1607
Rp1608
(dp1609
g51
I0
sg40
I1591
sg52
g1605
sg53
I8
sg34
S'PingPingPingPingPingPingPingPingPingPingPingPing'
p1610
sbsg55
Nsg56
I0
sg57
I5
sg58
I4
sg59
I64289
sg52
g1602
sg60
I00
sbsg55
Nsg52
Nsg53
I2048
sg60
I00
sbsbag1
(g2
g3
Ntp1611
Rp1612
(dp1613
g7
g1
(g8
g3
Ntp1614
Rp1615
(dp1616
g12
g1
(g13
g3
Ntp1617
Rp1618
(dp1619
g17
S'\x00\x00\x00\x03\x03\x04'
p1620
sbsg19
(lp1621
g1
(g21
g3
Ntp1622
Rp1623
(dp1624
g17
I67306363
sbasg25
S'eth16'
p1625
sbsg27
g1
(g28
g3
Ntp1626
Rp1627
(dp1628
g32
g1618
sg33
g1618
sg34
g1
(g35
g3
Ntp1629
Rp1630
(dp1631
g39
I0
sg40
I33668
sg41
g1623
sg42
I1
sg43
g1623
sg44
I0
sg45
I64
sg46
I72
sg34
g1
(g47
g3
Ntp1632
Rp1633
(dp1634
g51
I0
sg40
I3639
sg52
g1630
sg53
I0
sg34
S'PingPingPingPingPingPingPingPingPingPingPingPing'
p1635
sbsg55
Nsg56
I0
sg57
I5
sg58
I4
sg59
I64290
sg52
g1627
sg60
I00
sbsg55
Nsg52
Nsg53
I2048
sg60
I00
sbsbag1
(g2
g3
Ntp1636
Rp1637
(dp1638
g7
g1
(g8
g3
Ntp1639
Rp1640
(dp1641
g12
g1
(g13
g3
Ntp1642
Rp1643
(dp1644
g17
S'\x00\x00\x00\x04\x00\x01'
p1645
sbsg19
(lp1646
g1
(g21
g3
Ntp1647
Rp1648
(dp1649
g17
I16778363
sbasg25
S'eth17'
p1650
sbsg27
g1
(g28
g3
Ntp1651
Rp1652
(dp1653
g32
g1643
sg33
g1643
sg34
g1
(g35
g3
Ntp1654
Rp1655
(dp1656
g39
I0
sg40
I35207
sg41
g1648
sg42
I1
sg43
g1648
sg44
I0
sg45
I64
sg46
I72
sg34
g1
(g47
g3
Ntp1657
Rp1658
(dp1659
g51
I0
sg40
I3639
sg52
g1655
sg53
I0
sg34
S'PingPingPingPingPingPingPingPingPingPingPingPing'
p1660
sbsg55
Nsg56
I0
sg57
I5
sg58
I4
sg59
I64291
sg52
g1652
sg60
I00
sbsg55
Nsg52
Nsg53
I2048
sg60
I00
sbsbag1
(g2
g3
Ntp1661
Rp1662
(dp1663
g7
g1
(g8
g3
Ntp1664
Rp1665
(dp1666
g12
g1
(g13
g3
Ntp1667
Rp1668
(dp1669
g17
S'\x00\x00\x00\x04\x00\x02'
p1670
sbsg19
(lp1671
g1
(g21
g3
Ntp1672
Rp1673
(dp1674
g17
I33555579
sbasg25
S'eth17'
p1675
sbsg27
g1
(g28
g3
Ntp1676
Rp1677
(dp1678
g32
g1668
sg33
g1668
sg34
g1
(g35
g3
Ntp1679
Rp1680
(dp1681
g39
I0
sg40
I35204
sg41
g1673
sg42
I1
sg43
g1673
sg44
I0
sg45
I64
sg46
I72
sg34
g1
(g47
g3
Ntp1682
Rp1683
(dp1684
g51
I0
sg40
I3639
sg52
g1680
sg53
I0
sg34
S'PingPingPingPingPingPingPingPingPingPingPingPing'
p1685
sbsg55
Nsg56
I0
sg57
I5
sg58
I4
sg59
I64292
sg52
g1677
sg60
I00
sbsg55
Nsg52
Nsg53
I2048
sg60
I00
sbsbag1
(g2
g3
Ntp1686
Rp1687
(dp1688
g7
g1
(g8
g3
Ntp1689
Rp1690
(dp1691
g12
g1
(g13
g3
Ntp1692
Rp1693
(dp1694
g17
S'\x00\x00\x00\x04\x00\x03'
p1695
sbsg19
(lp1696
g1
(g21
g3
Ntp1697
Rp1698
(dp1699
g17
I50332795
sbasg25
S'eth17'
p1700
sbsg27
g1
(g28
g3
Ntp1701
Rp1702
(dp1703
g32
g1693
sg33
g1693
sg34
g1
(g35
g3
Ntp1704
Rp1705
(dp1706
g39
I0
sg40
I35201
sg41
g1698
sg42
I1
sg43
g1698
sg44
I0
sg45
I64
sg46
I72
sg34
g1
(g47
g3
Ntp1707
Rp1708
(dp1709
g51
I0
sg40
I1591
sg52
g1705
sg53
I8
sg34
S'PingPingPingPingPingPingPingPingPingPingPingPing'
p1710
sbsg55
Nsg56
I0
sg57
I5
sg58
I4
sg59
I64293
sg52
g1702
sg60
I00
sbsg55
Nsg52
Nsg53
I2048
sg60
I00
sbsbag1
(g2
g3
Ntp1711
Rp1712
(dp1713
g7
g1
(g8
g3
Ntp1714
Rp1715
(dp1716
g12
g1
(g13
g3
Ntp1717
Rp1718
(dp1719
g17
S'\x00\x00\x00\x04\x00\x04'
p1720
sbsg19
(lp1721
g1
(g21
g3
Ntp1722
Rp1723
(dp1724
g17
I67110011
sbasg25
S'eth17'
p1725
sbsg27
g1
(g28
g3
Ntp1726
Rp1727
(dp1728
g32
g1718
sg33
g1718
sg34
g1
(g35
g3
Ntp1729
Rp1730
(dp1731
g39
I0
sg40
I35198
sg41
g1723
sg42
I1
sg43
g1723
sg44
I0
sg45
I64
sg46
I72
sg34
g1
(g47
g3
Ntp1732
Rp1733
(dp1734
g51
I0
sg40
I3639
sg52
g1730
sg53
I0
sg34
S'PingPingPingPingPingPingPingPingPingPingPingPing'
p1735
sbsg55
Nsg56
I0
sg57
I5
sg58
I4
sg59
I64294
sg52
g1727
sg60
I00
sbsg55
Nsg52
Nsg53
I2048
sg60
I00
sbsbag1
(g2
g3
Ntp1736
Rp1737
(dp1738
g7
g1
(g8
g3
Ntp1739
Rp1740
(dp1741
g12
g1
(g13
g3
Ntp1742
Rp1743
(dp1744
g17
S'\x00\x00\x00\x04\x01\x01'
p1745
sbsg19
(lp1746
g1
(g21
g3
Ntp1747
Rp1748
(dp1749
g17
I16843899
sbasg25
S'eth18'
p1750
sbsg27
g1
(g28
g3
Ntp1751
Rp1752
(dp1753
g32
g1743
sg33
g1743
sg34
g1
(g35
g3
Ntp1754
Rp1755
(dp1756
g39
I0
sg40
I34691
sg41
g1748
sg42
I1
sg43
g1748
sg44
I0
sg45
I64
sg46
I72
sg34
g1
(g47
g3
Ntp1757
Rp1758
(dp1759
g51
I0
sg40
I1591
sg52
g1755
sg53
I8
sg34
S'PingPingPingPingPingPingPingPingPingPingPingPing'
p1760
sbsg55
Nsg56
I0
sg57
I5
sg58
I4
sg59
I64295
sg52
g1752
sg60
I00
sbsg55
Nsg52
Nsg53
I2048
sg60
I00
sbsbag1
(g2
g3
Ntp1761
Rp1762
(dp1763
g7
g1
(g8
g3
Ntp1764
Rp1765
(dp1766
g12
g1
(g13
g3
Ntp1767
Rp1768
(dp1769
g17
S'\x00\x00\x00\x04\x01\x02'
p1770
sbsg19
(lp1771
g1
(g21
g3
Ntp1772
Rp1773
(dp1774
g17
I33621115
sbasg25
S'eth18'
p1775
sbsg27
g1
(g28
g3
Ntp1776
Rp1777
(dp1778
g32
g1768
sg33
g1768
sg34
g1
(g35
g3
Ntp1779
Rp1780
(dp1781
g39
I0
sg40
I34688
sg41
g1773
sg42
I1
sg43
g1773
sg44
I0
sg45
I64
sg46
I72
sg34
g1
(g47
g3
Ntp1782
Rp1783
(dp1784
g51
I0
sg40
I3639
sg52
g1780
sg53
I0
sg34
S'PingPingPingPingPingPingPingPingPingPingPingPing'
p1785
sbsg55
Nsg56
I0
sg57
I5
sg58
I4
sg59
I64296
sg52
g1777
sg60
I00
sbsg55
Nsg52
Nsg53
I2048
sg60
I00
sbsbag1
(g2
g3
Ntp1786
Rp1787
(dp1788
g7
g1
(g8
g3
Ntp1789
Rp1790
(dp1791
g12
g1
(g13
g3
Ntp1792
Rp1793
(dp1794
g17
S'\x00\x00\x00\x04\x01\x03'
p1795
sbsg19
(lp1796
g1
(g21
g3
Ntp1797
Rp1798
(dp1799
g17
I50398331
sbasg25
S'eth18'
p1800
sbsg27
g1
(g28
g3
Ntp1801
Rp1802
(dp1803
g32
g1793
sg33
g1793
sg34
g1
(g35
g3
Ntp1804
Rp1805
(dp1806
g39
I0
sg40
I34685
sg41
g1798
sg42
I1
sg43
g1798
sg44
I0
sg45
I64
sg46
I72
sg34
g1
(g47
g3
Ntp1807
Rp1808
(dp1809
g51
I0
sg40
I1591
sg52
g1805
sg53
I8
sg34
S'PingPingPingPingPingPingPingPingPingPingPingPing'
p1810
sbsg55
Nsg56
I0
sg57
I5
sg58
I4
sg59
I64297
sg52
g1802
sg60
I00
sbsg55
Nsg52
Nsg53
I2048
sg60
I00
sbsbag1
(g2
g3
Ntp1811
Rp1812
(dp1813
g7
g1
(g8
g3
Ntp1814
Rp1815
(dp1816
g12
g1
(g13
g3
Ntp1817
Rp1818
(dp1819
g17
S'\x00\x00\x00\x04\x01\x04'
p1820
sbsg19
(lp1821
g1
(g21
g3
Ntp1822
Rp1823
(dp1824
g17
I67175547
sbasg25
S'eth18'
p1825
sbsg27
g1
(g28
g3
Ntp1826
Rp1827
(dp1828
g32
g1818
sg33
g1818
sg34
g1
(g35
g3
Ntp1829
Rp1830
(dp1831
g39
I0
sg40
I34682
sg41
g1823
sg42
I1
sg43
g1823
sg44
I0
sg45
I64
sg46
I72
sg34
g1
(g47
g3
Ntp1832
Rp1833
(dp1834
g51
I0
sg40
I1591
sg52
g1830
sg53
I8
sg34
S'PingPingPingPingPingPingPingPingPingPingPingPing'
p1835
sbsg55
Nsg56
I0
sg57
I5
sg58
I4
sg59
I64298
sg52
g1827
sg60
I00
sbsg55
Nsg52
Nsg53
I2048
sg60
I00
sbsbag1
(g2
g3
Ntp1836
Rp1837
(dp1838
g7
g1
(g8
g3
Ntp1839
Rp1840
(dp1841
g12
g1
(g13
g3
Ntp1842
Rp1843
(dp1844
g17
S'\x00\x00\x00\x04\x02\x01'
p1845
sbsg19
(lp1846
g1
(g21
g3
Ntp1847
Rp1848
(dp1849
g17
I16909435
sbasg25
S'eth19'
p1850
sbsg27
g1
(g28
g3
Ntp1851
Rp1852
(dp1853
g32
g1843
sg33
g1843
sg34
g1
(g35
g3
Ntp1854
Rp1855
(dp1856
g39
I0
sg40
I34175
sg41
g1848
sg42
I1
sg43
g1848
sg44
I0
sg45
I64
sg46
I72
sg34
g1
(g47
g3
Ntp1857
Rp1858
(dp1859
g51
I0
sg40
I3639
sg52
g1855
sg53
I0
sg34
S'PingPingPingPingPingPingPingPingPingPingPingPing'
p1860
sbsg55
Nsg56
I0
sg57
I5
sg58
I4
sg59
I64299
sg52
g1852
sg60
I00
sbsg55
Nsg52
Nsg53
I2048
sg60
I00
sbsbag1
(g2
g3
Ntp1861
Rp1862
(dp1863
g7
g1
(g8
g3
Ntp1864
Rp1865
(dp1866
g12
g1
(g13
g3
Ntp1867
Rp1868
(dp1869
g17
S'\x00\x00\x00\x04\x02\x02'
p1870
sbsg19
(lp1871
g1
(g21
g3
Ntp1872
Rp1873
(dp1874
g17
I33686651
sbasg25
S'eth19'
p1875
sbsg27
g1
(g28
g3
Ntp1876
Rp1877
(dp1878
g32
g1868
sg33
g1868
sg34
g1
(g35
g3
Ntp1879
Rp1880
(dp1881
g39
I0
sg40
I34172
sg41
g1873
sg42
I1
sg43
g1873
sg44
I0
sg45
I64
sg46
I72
sg34
g1
(g47
g3
Ntp1882
Rp1883
(dp1884
g51
I0
sg40
I3639
sg52
g1880
sg53
I0
sg34
S'PingPingPingPingPingPingPingPingPingPingPingPing'
p1885
sbsg55
Nsg56
I0
sg57
I5
sg58
I4
sg59
I64300
sg52
g1877
sg60
I00
sbsg55
Nsg52
Nsg53
I2048
sg60
I00
sbsbag1
(g2
g3
Ntp1886
Rp1887
(dp1888
g7
g1
(g8
g3
Ntp1889
Rp1890
(dp1891
g12
g1
(g13
g3
Ntp1892
Rp1893
(dp1894
g17
S'\x00\x00\x00\x04\x02\x03'
p1895
sbsg19
(lp1896
g1
(g21
g3
Ntp1897
Rp1898
(dp1899
g17
I50463867
sbasg25
S'eth19'
p1900
sbsg27
g1
(g28
g3
Ntp1901
Rp1902
(dp1903
g32
g1893
sg33
g1893
sg34
g1
(g35
g3
Ntp1904
Rp1905
(dp1906
g39
I0
sg40
I34169
sg41
g1898
sg42
I1
sg43
g1898
sg44
I0
sg45
I64
sg46
I72
sg34
g1
(g47
g3
Ntp1907
Rp1908
(dp1909
g51
I0
sg40
I1591
sg52
g1905
sg53
I8
sg34
S'PingPingPingPingPingPingPingPingPingPingPingPing'
p1910
sbsg55
Nsg56
I0
sg57
I5
sg58
I4
sg59
I64301
sg52
g1902
sg60
I00
sbsg55
Nsg52
Nsg53
I2048
sg60
I00
sbsbag1
(g2
g3
Ntp1911
Rp1912
(dp1913
g7
g1
(g8
g3
Ntp1914
Rp1915
(dp1916
g12
g1
(g13
g3
Ntp1917
Rp1918
(dp1919
g17
S'\x00\x00\x00\x04\x02\x04'
p1920
sbsg19
(lp1921
g1
(g21
g3
Ntp1922
Rp1923
(dp1924
g17
I67241083
sbasg25
S'eth19'
p1925
sbsg27
g1
(g28
g3
Ntp1926
Rp1927
(dp1928
g32
g1918
sg33
g1918
sg34
g1
(g35
g3
Ntp1929
Rp1930
(dp1931
g39
I0
sg40
I34166
sg41
g1923
sg42
I1
sg43
g1923
sg44
I0
sg45
I64
sg46
I72
sg34
g1
(g47
g3
Ntp1932
Rp1933
(dp1934
g51
I0
sg40
I3639
sg52
g1930
sg53
I0
sg34
S'PingPingPingPingPingPingPingPingPingPingPingPing'
p1935
sbsg55
Nsg56
I0
sg57
I5
sg58
I4
sg59
I64302
sg52
g1927
sg60
I00
sbsg55
Nsg52
Nsg53
I2048
sg60
I00
sbsbag1
(g2
g3
Ntp1936
Rp1937
(dp1938
g7
g1
(g8
g3
Ntp1939
Rp1940
(dp1941
g12
g1
(g13
g3
Ntp1942
Rp1943
(dp1944
g17
S'\x00\x00\x00\x04\x03\x01'
p1945
sbsg19
(lp1946
g1
(g21
g3
Ntp1947
Rp1948
(dp1949
g17
I16974971
sbasg25
S'eth20'
p1950
sbsg27
g1
(g28
g3
Ntp1951
Rp1952
(dp1953
g32
g1943
sg33
g1943
sg34
g1
(g35
g3
Ntp1954
Rp1955
(dp1956
g39
I0
sg40
I33659
sg41
g1948
sg42
I1
sg43
g1948
sg44
I0
sg45
I64
sg46
I72
sg34
g1
(g47
g3
Ntp1957
Rp1958
(dp1959
g51
I0
sg40
I1591
sg52
g1955
sg53
I8
sg34
S'PingPingPingPingPingPingPingPingPingPingPingPing'
p1960
sbsg55
Nsg56
I0
sg57
I5
sg58
I4
sg59
I64303
sg52
g1952
sg60
I00
sbsg55
Nsg52
Nsg53
I2048
sg60
I00
sbsbag1
(g2
g3
Ntp1961
Rp1962
(dp1963
g7
g1
(g8
g3
Ntp1964
Rp1965
(dp1966
g12
g1
(g13
g3
Ntp1967
Rp1968
(dp1969
g17
S'\x00\x00\x00\x04\x03\x02'
p1970
sbsg19
(lp1971
g1
(g21
g3
Ntp1972
Rp1973
(dp1974
g17
I33752187
sbasg25
S'eth20'
p1975
sbsg27
g1
(g28
g3
Ntp1976
Rp1977
(dp1978
g32
g1968
sg33
g1968
sg34
g1
(g35
g3
Ntp1979
Rp1980
(dp1981
g39
I0
sg40
I33656
sg41
g1973
sg42
I1
sg43
g1973
sg44
I0
sg45
I64
sg46
I72
sg34
g1
(g47
g3
Ntp1982
Rp1983
(dp1984
g51
I0
sg40
I1591
sg52
g1980
sg53
I8
sg34
S'PingPingPingPingPingPingPingPingPingPingPingPing'
p1985
sbsg55
Nsg56
I0
sg57
I5
sg58
I4
sg59
I64304
sg52
g1977
sg60
I00
sbsg55
Nsg52
Nsg53
I2048
sg60
I00
sbsbag1
(g2
g3
Ntp1986
Rp1987
(dp1988
g7
g1
(g8
g3
Ntp1989
Rp1990
(dp1991
g12
g1
(g13
g3
Ntp1992
Rp1993
(dp1994
g17
S'\x00\x00\x00\x04\x03\x03'
p1995
sbsg19
(lp1996
g1
(g21
g3
Ntp1997
Rp1998
(dp1999
g17
I50529403
sbasg25
S'eth20'
p2000
sbsg27
g1
(g28
g3
Ntp2001
Rp2002
(dp2003
g32
g1993
sg33
g1993
sg34
g1
(g35
g3
Ntp2004
Rp2005
(dp2006
g39
I0
sg40
I33653
sg41
g1998
sg42
I1
sg43
g1998
sg44
I0
sg45
I64
sg46
I72
sg34
g1
(g47
g3
Ntp2007
Rp2008
(dp2009
g51
I0
sg40
I3639
sg52
g2005
sg53
I0
sg34
S'PingPingPingPingPingPingPingPingPingPingPingPing'
p2010
sbsg55
Nsg56
I0
sg57
I5
sg58
I4
sg59
I64305
sg52
g2002
sg60
I00
sbsg55
Nsg52
Nsg53
I2048
sg60
I00
sbsbag1
(g2
g3
Ntp2011
Rp2012
(dp2013
g7
g1
(g8
g3
Ntp2014
Rp2015
(dp2016
g12
g1
(g13
g3
Ntp2017
Rp2018
(dp2019
g17
S'\x00\x00\x00\x04\x03\x04'
p2020
sbsg19
(lp2021
g1
(g21
g3
Ntp2022
Rp2023
(dp2024
g17
I67306619
sbasg25
S'eth20'
p2025
sbsg27
g1
(g28
g3
Ntp2026
Rp2027
(dp2028
g32
g2018
sg33
g2018
sg34
g1
(g35
g3
Ntp2029
Rp2030
(dp2031
g39
I0
sg40
I33650
sg41
g2023
sg42
I1
sg43
g2023
sg44
I0
sg45
I64
sg46
I72
sg34
g1
(g47
g3
Ntp2032
Rp2033
(dp2034
g51
I0
sg40
I3639
sg52
g2030
sg53
I0
sg34
S'PingPingPingPingPingPingPingPingPingPingPingPing'
p2035
sbsg55
Nsg56
I0
sg57
I5
sg58
I4
sg59
I64306
sg52
g2027
sg60
I00
sbsg55
Nsg52
Nsg53
I2048
sg60
I00
sbsbag1
(g2
g3
Ntp2036
Rp2037
(dp2038
g7
g1
(g8
g3
Ntp2039
Rp2040
(dp2041
g12
g1
(g13
g3
Ntp2042
Rp2043
(dp2044
g17
S'\x00\x00\x00\x05\x00\x01'
p2045
sbsg19
(lp2046
g1
(g21
g3
Ntp2047
Rp2048
(dp2049
g17
I16778619
sbasg25
S'eth21'
p2050
sbsg27
g1
(g28
g3
Ntp2051
Rp2052
(dp2053
g32
g2043
sg33
g2043
sg34
g1
(g35
g3
Ntp2054
Rp2055
(dp2056
g39
I0
sg40
I35189
sg41
g2048
sg42
I1
sg43
g2048
sg44
I0
sg45
I64
sg46
I72
sg34
g1
(g47
g3
Ntp2057
Rp2058
(dp2059
g51
I0
sg40
I1591
sg52
g2055
sg53
I8
sg34
S'PingPingPingPingPingPingPingPingPingPingPingPing'
p2060
sbsg55
Nsg56
I0
sg57
I5
sg58
I4
sg59
I64307
sg52
g2052
sg60
I00
sbsg55
Nsg52
Nsg53
I2048
sg60
I00
sbsbag1
(g2
g3
Ntp2061
Rp2062
(dp2063
g7
g1
(g8
g3
Ntp2064
Rp2065
(dp2066
g12
g1
(g13
g3
Ntp2067
Rp2068
(dp2069
g17
S'\x00\x00\x00\x05\x00\x02'
p2070
sbsg19
(lp2071
g1
(g21
g3
Ntp2072
Rp2073
(dp2074
g17
I33555835
sbasg25
S'eth21'
p2075
sbsg27
g1
(g28
g3
Ntp2076
Rp2077
(dp2078
g32
g2068
sg33
g2068
sg34
g1
(g35
g3
Ntp2079
Rp2080
(dp2081
g39
I0
sg40
I35186
sg41
g2073
sg42
I1
sg43
g2073
sg44
I0
sg45
I64
sg46
I72
sg34
g1
(g47
g3
Ntp2082
Rp2083
(dp2084
g51
I0
sg40
I1591
sg52
g2080
sg53
I8
sg34
S'PingPingPingPingPingPingPingPingPingPingPingPing'
p2085
sbsg55
Nsg56
I0
sg57
I5
sg58
I4
sg59
I64308
sg52
g2077
sg60
I00
sbsg55
Nsg52
Nsg53
I2048
sg60
I00
sbsbag1
(g2
g3
Ntp2086
Rp2087
(dp2088
g7
g1
(g8
g3
Ntp2089
Rp2090
(dp2091
g12
g1
(g13
g3
Ntp2092
Rp2093
(dp2094
g17
S'\x00\x00\x00\x05\x00\x03'
p2095
sbsg19
(lp2096
g1
(g21
g3
Ntp2097
Rp2098
(dp2099
g17
I50333051
sbasg25
S'eth21'
p2100
sbsg27
g1
(g28
g3
Ntp2101
Rp2102
(dp2103
g32
g2093
sg33
g2093
sg34
g1
(g35
g3
Ntp2104
Rp2105
(dp2106
g39
I0
sg40
I35183
sg41
g2098
sg42
I1
sg43
g2098
sg44
I0
sg45
I64
sg46
I72
sg34
g1
(g47
g3
Ntp2107
Rp2108
(dp2109
g51
I0
sg40
I1591
sg52
g2105
sg53
I8
sg34
S'PingPingPingPingPingPingPingPingPingPingPingPing'
p2110
sbsg55
Nsg56
I0
sg57
I5
sg58
I4
sg59
I64309
sg52
g2102
sg60
I00
sbsg55
Nsg52
Nsg53
I2048
sg60
I00
sbsbag1
(g2
g3
Ntp2111
Rp2112
(dp2113
g7
g1
(g8
g3
Ntp2114
Rp2115
(dp2116
g12
g1
(g13
g3
Ntp2117
Rp2118
(dp2119
g17
S'\x00\x00\x00\x05\x00\x04'
p2120
sbsg19
(lp2121
g1
(g21
g3
Ntp2122
Rp2123
(dp2124
g17
I67110267
sbasg25
S'eth21'
p2125
sbsg27
g1
(g28
g3
Ntp2126
Rp2127
(dp2128
g32
g2118
sg33
g2118
sg34
g1
(g35
g3
Ntp2129
Rp2130
(dp2131
g39
I0
sg40
I35180
sg41
g2123
sg42
I1
sg43
g2123
sg44
I0
sg45
I64
sg46
I72
sg34
g1
(g47
g3
Ntp2132
Rp2133
(dp2134
g51
I0
sg40
I3639
sg52
g2130
sg53
I0
sg34
S'PingPingPingPingPingPingPingPingPingPingPingPing'
p2135
sbsg55
Nsg56
I0
sg57
I5
sg58
I4
sg59
I64310
sg52
g2127
sg60
I00
sbsg55
Nsg52
Nsg53
I2048
sg60
I00
sbsbag1
(g2
g3
Ntp2136
Rp2137
(dp2138
g7
g1
(g8
g3
Ntp2139
Rp2140
(dp2141
g12
g1
(g13
g3
Ntp2142
Rp2143
(dp2144
g17
S'\x00\x00\x00\x05\x01\x01'
p2145
sbsg19
(lp2146
g1
(g21
g3
Ntp2147
Rp2148
(dp2149
g17
I16844155
sbasg25
S'eth22'
p2150
sbsg27
g1
(g28
g3
Ntp2151
Rp2152
(dp2153
g32
g2143
sg33
g2143
sg34
g1
(g35
g3
Ntp2154
Rp2155
(dp2156
g39
I0
sg40
I34673
sg41
g2148
sg42
I1
sg43
g2148
sg44
I0
sg45
I64
sg46
I72
sg34
g1
(g47
g3
Ntp2157
Rp2158
(dp2159
g51
I0
sg40
I3639
sg52
g2155
sg53
I0
sg34
S'PingPingPingPingPingPingPingPingPingPingPingPing'
p2160
sbsg55
Nsg56
I0
sg57
I5
sg58
I4
sg59
I64311
sg52
g2152
sg60
I00
sbsg55
Nsg52
Nsg53
I2048
sg60
I00
sbsbag1
(g2
g3
Ntp2161
Rp2162
(dp2163
g7
g1
(g8
g3
Ntp2164
Rp2165
(dp2166
g12
g1
(g13
g3
Ntp2167
Rp2168
(dp2169
g17
S'\x00\x00\x00\x05\x01\x02'
p2170
sbsg19
(lp2171
g1
(g21
g3
Ntp2172
Rp2173
(dp2174
g17
I33621371
sbasg25
S'eth22'
p2175
sbsg27
g1
(g28
g3
Ntp2176
Rp2177
(dp2178
g32
g2168
sg33
g2168
sg34
g1
(g35
g3
Ntp2179
Rp2180
(dp2181
g39
I0
sg40
I34670
sg41
g2173
sg42
I1
sg43
g2173
sg44
I0
sg45
I64
sg46
I72
sg34
g1
(g47
g3
Ntp2182
Rp2183
(dp2184
g51
I0
sg40
I1591
sg52
g2180
sg53
I8
sg34
S'PingPingPingPingPingPingPingPingPingPingPingPing'
p2185
sbsg55
Nsg56
I0
sg57
I5
sg58
I4
sg59
I64312
sg52
g2177
sg60
I00
sbsg55
Nsg52
Nsg53
I2048
sg60
I00
sbsbag1
(g2
g3
Ntp2186
Rp2187
(dp2188
g7
g1
(g8
g3
Ntp2189
Rp2190
(dp2191
g12
g1
(g13
g3
Ntp2192
Rp2193
(dp2194
g17
S'\x00\x00\x00\x05\x01\x03'
p2195
sbsg19
(lp2196
g1
(g21
g3
Ntp2197
Rp2198
(dp2199
g17
I50398587
sbasg25
S'eth22'
p2200
sbsg27
g1
(g28
g3
Ntp2201
Rp2202
(dp2203
g32
g2193
sg33
g2193
sg34
g1
(g35
g3
Ntp2204
Rp2205
(dp2206
g39
I0
sg40
I34667
sg41
g2198
sg42
I1
sg43
g2198
sg44
I0
sg45
I64
sg46
I72
sg34
g1
(g47
g3
Ntp2207
Rp2208
(dp2209
g51
I0
sg40
I1591
sg52
g2205
sg53
I8
sg34
S'PingPingPingPingPingPingPingPingPingPingPingPing'
p2210
sbsg55
Nsg56
I0
sg57
I5
sg58
I4
sg59
I64313
sg52
g2202
sg60
I00
sbsg55
Nsg52
Nsg53
I2048
sg60
I00
sbsbag1
(g2
g3
Ntp2211
Rp2212
(dp2213
g7
g1
(g8
g3
Ntp2214
Rp2215
(dp2216
g12
g1
(g13
g3
Ntp2217
Rp2218
(dp2219
g17
S'\x00\x00\x00\x05\x01\x04'
p2220
sbsg19
(lp2221
g1
(g21
g3
Ntp2222
Rp2223
(dp2224
g17
I67175803
sbasg25
S'eth22'
p2225
sbsg27
g1
(g28
g3
Ntp2226
Rp2227
(dp2228
g32
g2218
sg33
g2218
sg34
g1
(g35
g3
Ntp2229
Rp2230
(dp2231
g39
I0
sg40
I34664
sg41
g2223
sg42
I1
sg43
g2223
sg44
I0
sg45
I64
sg46
I72
sg34
g1
(g47
g3
Ntp2232
Rp2233
(dp2234
g51
I0
sg40
I1591
sg52
g2230
sg53
I8
sg34
S'PingPingPingPingPingPingPingPingPingPingPingPing'
p2235
sbsg55
Nsg56
I0
sg57
I5
sg58
I4
sg59
I64314
sg52
g2227
sg60
I00
sbsg55
Nsg52
Nsg53
I2048
sg60
I00
sbsbag1
(g2
g3
Ntp2236
Rp2237
(dp2238
g7
g1
(g8
g3
Ntp2239
Rp2240
(dp2241
g12
g1
(g13
g3
Ntp2242
Rp2243
(dp2244
g17
S'\x00\x00\x00\x05\x02\x01'
p2245
sbsg19
(lp2246
g1
(g21
g3
Ntp2247
Rp2248
(dp2249
g17
I16909691
sbasg25
S'eth23'
p2250
sbsg27
g1
(g28
g3
Ntp2251
Rp2252
(dp2253
g32
g2243
sg33
g2243
sg34
g1
(g35
g3
Ntp2254
Rp2255
(dp2256
g39
I0
sg40
I34157
sg41
g2248
sg42
I1
sg43
g2248
sg44
I0
sg45
I64
sg46
I72
sg34
g1
(g47
g3
Ntp2257
Rp2258
(dp2259
g51
I0
sg40
I1591
sg52
g2255
sg53
I8
sg34
S'PingPingPingPingPingPingPingPingPingPingPingPing'
p2260
sbsg55
Nsg56
I0
sg57
I5
sg58
I4
sg59
I64315
sg52
g2252
sg60
I00
sbsg55
Nsg52
Nsg53
I2048
sg60
I00
sbsbag1
(g2
g3
Ntp2261
Rp2262
(dp2263
g7
g1
(g8
g3
Ntp2264
Rp2265
(dp2266
g12
g1
(g13
g3
Ntp2267
Rp2268
(dp2269
g17
S'\x00\x00\x00\x05\x02\x02'
p2270
sbsg19
(lp2271
g1
(g21
g3
Ntp2272
Rp2273
(dp2274
g17
I33686907
sbasg25
S'eth23'
p2275
sbsg27
g1
(g28
g3
Ntp2276
Rp2277
(dp2278
g32
g2268
sg33
g2268
sg34
g1
(g35
g3
Ntp2279
Rp2280
(dp2281
g39
I0
sg40
I34154
sg41
g2273
sg42
I1
sg43
g2273
sg44
I0
sg45
I64
sg46
I72
sg34
g1
(g47
g3
Ntp2282
Rp2283
(dp2284
g51
I0
sg40
I1591
sg52
g2280
sg53
I8
sg34
S'PingPingPingPingPingPingPingPingPingPingPingPing'
p2285
sbsg55
Nsg56
I0
sg57
I5
sg58
I4
sg59
I64316
sg52
g2277
sg60
I00
sbsg55
Nsg52
Nsg53
I2048
sg60
I00
sbsbag1
(g2
g3
Ntp2286
Rp2287
(dp2288
g7
g1
(g8
g3
Ntp2289
Rp2290
(dp2291
g12
g1
(g13
g3
Ntp2292
Rp2293
(dp2294
g17
S'\x00\x00\x00\x05\x02\x03'
p2295
sbsg19
(lp2296
g1
(g21
g3
Ntp2297
Rp2298
(dp2299
g17
I50464123
sbasg25
S'eth23'
p2300
sbsg27
g1
(g28
g3
Ntp2301
Rp2302
(dp2303
g32
g2293
sg33
g2293
sg34
g1
(g35
g3
Ntp2304
Rp2305
(dp2306
g39
I0
sg40
I34151
sg41
g2298
sg42
I1
sg43
g2298
sg44
I0
sg45
I64
sg46
I72
sg34
g1
(g47
g3
Ntp2307
Rp2308
(dp2309
g51
I0
sg40
I1591
sg52
g2305
sg53
I8
sg34
S'PingPingPingPingPingPingPingPingPingPingPingPing'
p2310
sbsg55
Nsg56
I0
sg57
I5
sg58
I4
sg59
I64317
sg52
g2302
sg60
I00
sbsg55
Nsg52
Nsg53
I2048
sg60
I00
sbsbag1
(g2
g3
Ntp2311
Rp2312
(dp2313
g7
g1
(g8
g3
Ntp2314
Rp2315
(dp2316
g12
g1
(g13
g3
Ntp2317
Rp2318
(dp2319
g17
S'\x00\x00\x00\x05\x02\x04'
p2320
sbsg19
(lp2321
g1
(g21
g3
Ntp2322
Rp2323
(dp2324
g17
I67241339
sbasg25
S'eth23'
p2325
sbsg27
g1
(g28
g3
Ntp2326
Rp2327
(dp2328
g32
g2318
sg33
g2318
sg34
g1
(g35
g3
Ntp2329
Rp2330
(dp2331
g39
I0
sg40
I34148
sg41
g2323
sg42
I1
sg43
g2323
sg44
I0
sg45
I64
sg46
I72
sg34
g1
(g47
g3
Ntp2332
Rp2333
(dp2334
g51
I0
sg40
I3639
sg52
g2330
sg53
I0
sg34
S'PingPingPingPingPingPingPingPingPingPingPingPing'
p2335
sbsg55
Nsg56
I0
sg57
I5
sg58
I4
sg59
I64318
sg52
g2327
sg60
I00
sbsg55
Nsg52
Nsg53
I2048
sg60
I00
sbsbag1
(g2
g3
Ntp2336
Rp2337
(dp2338
g7
g1
(g8
g3
Ntp2339
Rp2340
(dp2341
g12
g1
(g13
g3
Ntp2342
Rp2343
(dp2344
g17
S'\x00\x00\x00\x05\x03\x01'
p2345
sbsg19
(lp2346
g1
(g21
g3
Ntp2347
Rp2348
(dp2349
g17
I16975227
sbasg25
S'eth24'
p2350
sbsg27
g1
(g28
g3
Ntp2351
Rp2352
(dp2353
g32
g2343
sg33
g2343
sg34
g1
(g35
g3
Ntp2354
Rp2355
(dp2356
g39
I0
sg40
I33641
sg41
g2348
sg42
I1
sg43
g2348
sg44
I0
sg45
I64
sg46
I72
sg34
g1
(g47
g3
Ntp2357
Rp2358
(dp2359
g51
I0
sg40
I1591
sg52
g2355
sg53
I8
sg34
S'PingPingPingPingPingPingPingPingPingPingPingPing'
p2360
sbsg55
Nsg56
I0
sg57
I5
sg58
I4
sg59
I64319
sg52
g2352
sg60
I00
sbsg55
Nsg52
Nsg53
I2048
sg60
I00
sbsbag1
(g2
g3
Ntp2361
Rp2362
(dp2363
g7
g1
(g8
g3
Ntp2364
Rp2365
(dp2366
g12
g1
(g13
g3
Ntp2367
Rp2368
(dp2369
g17
S'\x00\x00\x00\x05\x03\x02'
p2370
sbsg19
(lp2371
g1
(g21
g3
Ntp2372
Rp2373
(dp2374
g17
I33752443
sbasg25
S'eth24'
p2375
sbsg27
g1
(g28
g3
Ntp2376
Rp2377
(dp2378
g32
g2368
sg33
g2368
sg34
g1
(g35
g3
Ntp2379
Rp2380
(dp2381
g39
I0
sg40
I33638
sg41
g2373
sg42
I1
sg43
g2373
sg44
I0
sg45
I64
sg46
I72
sg34
g1
(g47
g3
Ntp2382
Rp2383
(dp2384
g51
I0
sg40
I3639
sg52
g2380
sg53
I0
sg34
S'PingPingPingPingPingPingPingPingPingPingPingPing'
p2385
sbsg55
Nsg56
I0
sg57
I5
sg58
I4
sg59
I64320
sg52
g2377
sg60
I00
sbsg55
Nsg52
Nsg53
I2048
sg60
I00
sbsbag1
(g2
g3
Ntp2386
Rp2387
(dp2388
g7
g1
(g8
g3
Ntp2389
Rp2390
(dp2391
g12
g1
(g13
g3
Ntp2392
Rp2393
(dp2394
g17
S'\x00\x00\x00\x05\x03\x03'
p2395
sbsg19
(lp2396
g1
(g21
g3
Ntp2397
Rp2398
(dp2399
g17
I50529659
sbasg25
S'eth24'
p2400
sbsg27
g1
(g28
g3
Ntp2401
Rp2402
(dp2403
g32
g2393
sg33
g2393
sg34
g1
(g35
g3
Ntp2404
Rp2405
(dp2406
g39
I0
sg40
I33635
sg41
g2398
sg42
I1
sg43
g2398
sg44
I0
sg45
I64
sg46
I72
sg34
g1
(g47
g3
Ntp2407
Rp2408
(dp2409
g51
I0
sg40
I3639
sg52
g2405
sg53
I0
sg34
S'PingPingPingPingPingPingPingPingPingPingPingPing'
p2410
sbsg55
Nsg56
I0
sg57
I5
sg58
I4
sg59
I64321
sg52
g2402
sg60
I00
sbsg55
Nsg52
Nsg53
I2048
sg60
I00
sbsbag1
(g2
g3
Ntp2411
Rp2412
(dp2413
g7
g1
(g8
g3
Ntp2414
Rp2415
(dp2416
g12
g1
(g13
g3
Ntp2417
Rp2418
(dp2419
g17
S'\x00\x00\x00\x05\x03\x04'
p2420
sbsg19
(lp2421
g1
(g21
g3
Ntp2422
Rp2423
(dp2424
g17
I67306875
sbasg25
S'eth24'
p2425
sbsg27
g1
(g28
g3
Ntp2426
Rp2427
(dp2428
g32
g2418
sg33
g2418
sg34
g1
(g35
g3
Ntp2429
Rp2430
(dp2431
g39
I0
sg40
I33632
sg41
g2423
sg42
I1
sg43
g2423
sg44
I0
sg45
I64
sg46
I72
sg34
g1
(g47
g3
Ntp2432
Rp2433
(dp2434
g51
I0
sg40
I1591
sg52
g2430
sg53
I8
sg34
S'PingPingPingPingPingPingPingPingPingPingPingPing'
p2435
sbsg55
Nsg56
I0
sg57
I5
sg58
I4
sg59
I64322
sg52
g2427
sg60
I00
sbsg55
Nsg52
Nsg53
I2048
sg60
I00
sbsbag1
(g2
g3
Ntp2436
Rp2437
(dp2438
g7
g1
(g8
g3
Ntp2439
Rp2440
(dp2441
g12
g1
(g13
g3
Ntp2442
Rp2443
(dp2444
g17
S'\x00\x00\x00\x06\x00\x01'
p2445
sbsg19
(lp2446
g1
(g21
g3
Ntp2447
Rp2448
(dp2449
g17
I16778875
sbasg25
S'eth25'
p2450
sbsg27
g1
(g28
g3
Ntp2451
Rp2452
(dp2453
g32
g2443
sg33
g2443
sg34
g1
(g35
g3
Ntp2454
Rp2455
(dp2456
g39
I0
sg40
I35171
sg41
g2448
sg42
I1
sg43
g2448
sg44
I0
sg45
I64
sg46
I72
sg34
g1
(g47
g3
Ntp2457
Rp2458
(dp2459
g51
I0
sg40
I3639
sg52
g2455
sg53
I0
sg34
S'PingPingPingPingPingPingPingPingPingPingPingPing'
p2460
sbsg55
Nsg56
I0
sg57
I5
sg58
I4
sg59
I64323
sg52
g2452
sg60
I00
sbsg55
Nsg52
Nsg53
I2048
sg60
I00
sbsbag1
(g2
g3
Ntp2461
Rp2462
(dp2463
g7
g1
(g8
g3
Ntp2464
Rp2465
(dp2466
g12
g1
(g13
g3
Ntp2467
Rp2468
(dp2469
g17
S'\x00\x00\x00\x06\x00\x02'
p2470
sbsg19
(lp2471
g1
(g21
g3
Ntp2472
Rp2473
(dp2474
g17
I33556091
sbasg25
S'eth25'
p2475
sbsg27
g1
(g28
g3
Ntp2476
Rp2477
(dp2478
g32
g2468
sg33
g2468
sg34
g1
(g35
g3
Ntp2479
Rp2480
(dp2481
g39
I0
sg40
I35168
sg41
g2473
sg42
I1
sg43
g2473
sg44
I0
sg45
I64
sg46
I72
sg34
g1
(g47
g3
Ntp2482
Rp2483
(dp2484
g51
I0
sg40
I3639
sg52
g2480
sg53
I0
sg34
S'PingPingPingPingPingPingPingPingPingPingPingPing'
p2485
sbsg55
Nsg56
I0
sg57
I5
sg58
I4
sg59
I64324
sg52
g2477
sg60
I00
sbsg55
Nsg52
Nsg53
I2048
sg60
I00
sbsbag1
(g2
g3
Ntp2486
Rp2487
(dp2488
g7
g1
(g8
g3
Ntp2489
Rp2490
(dp2491
g12
g1
(g13
g3
Ntp2492
Rp2493
(dp2494
g17
S'\x00\x00\x00\x06\x00\x03'
p2495
sbsg19
(lp2496
g1
(g21
g3
Ntp2497
Rp2498
(dp2499
g17
I50333307
sbasg25
S'eth25'
p2500
sbsg27
g1
(g28
g3
Ntp2501
Rp2502
(dp2503
g32
g2493
sg33
g2493
sg34
g1
(g35
g3
Ntp2504
Rp2505
(dp2506
g39
I0
sg40
I35165
sg41
g2498
sg42
I1
sg43
g2498
sg44
I0
sg45
I64
sg46
I72
sg34
g1
(g47
g3
Ntp2507
Rp2508
(dp2509
g51
I0
sg40
I1591
sg52
g2505
sg53
I8
sg34
S'PingPingPingPingPingPingPingPingPingPingPingPing'
p2510
sbsg55
Nsg56
I0
sg57
I5
sg58
I4
sg59
I64325
sg52
g2502
sg60
I00
sbsg55
Nsg52
Nsg53
I2048
sg60
I00
sbsbag1
(g2
g3
Ntp2511
Rp2512
(dp2513
g7
g1
(g8
g3
Ntp2514
Rp2515
(dp2516
g12
g1
(g13
g3
Ntp2517
Rp2518
(dp2519
g17
S'\x00\x00\x00\x06\x00\x04'
p2520
sbsg19
(lp2521
g1
(g21
g3
Ntp2522
Rp2523
(dp2524
g17
I67110523
sbasg25
S'eth25'
p2525
sbsg27
g1
(g28
g3
Ntp2526
Rp2527
(dp2528
g32
g2518
sg33
g2518
sg34
g1
(g35
g3
Ntp2529
Rp2530
(dp2531
g39
I0
sg40
I35162
sg41
g2523
sg42
I1
sg43
g2523
sg44
I0
sg45
I64
sg46
I72
sg34
g1
(g47
g3
Ntp2532
Rp2533
(dp2534
g51
I0
sg40
I3639
sg52
g2530
sg53
I0
sg34
S'PingPingPingPingPingPingPingPingPingPingPingPing'
p2535
sbsg55
Nsg56
I0
sg57
I5
sg58
I4
sg59
I64326
sg52
g2527
sg60
I00
sbsg55
Nsg52
Nsg53
I2048
sg60
I00
sbsbag1
(g2
g3
Ntp2536
Rp2537
(dp2538
g7
g1
(g8
g3
Ntp2539
Rp2540
(dp2541
g12
g1
(g13
g3
Ntp2542
Rp2543
(dp2544
g17
S'\x00\x00\x00\x06\x01\x01'
p2545
sbsg19
(lp2546
g1
(g21
g3
Ntp2547
Rp2548
(dp2549
g17
I16844411
sbasg25
S'eth26'
p2550
sbsg27
g1
(g28
g3
Ntp2551
Rp2552
(dp2553
g32
g2543
sg33
g2543
sg34
g1
(g35
g3
Ntp2554
Rp2555
(dp2556
g39
I0
sg40
I34655
sg41
g2548
sg42
I1
sg43
g2548
sg44
I0
sg45
I64
sg46
I72
sg34
g1
(g47
g3
Ntp2557
Rp2558
(dp2559
g51
I0
sg40
I1591
sg52
g2555
sg53
I8
sg34
S'PingPingPingPingPingPingPingPingPingPingPingPing'
p2560
sbsg55
Nsg56
I0
sg57
I5
sg58
I4
sg59
I64327
sg52
g2552
sg60
I00
sbsg55
Nsg52
Nsg53
I2048
sg60
I00
sbsbag1
(g2
g3
Ntp2561
Rp2562
(dp2563
g7
g1
(g8
g3
Ntp2564
Rp2565
(dp2566
g12
g1
(g13
g3
Ntp2567
Rp2568
(dp2569
g17
S'\x00\x00\x00\x06\x01\x02'
p2570
sbsg19
(lp2571
g1
(g21
g3
Ntp2572
Rp2573
(dp2574
g17
I33621627
sbasg25
S'eth26'
p2575
sbsg27
g1
(g28
g3
Ntp2576
Rp2577
(dp2578
g32
g2568
sg33
g2568
sg34
g1
(g35
g3
Ntp2579
Rp2580
(dp2581
g39
I0
sg40
I34652
sg41
g2573
sg42
I1
sg43
g2573
sg44
I0
sg45
I64
sg46
I72
sg34
g1
(g47
g3
Ntp2582
Rp2583
(dp2584
g51
I0
sg40
I3639
sg52
g2580
sg53
I0
sg34
S'PingPingPingPingPingPingPingPingPingPingPingPing'
p2585
sbsg55
Nsg56
I0
sg57
I5
sg58
I4
sg59
I64328
sg52
g2577
sg60
I00
sbsg55
Nsg52
Nsg53
I2048
sg60
I00
sbsbag1
(g2
g3
Ntp2586
Rp2587
(dp2588
g7
g1
(g8
g3
Ntp2589
Rp2590
(dp2591
g12
g1
(g13
g3
Ntp2592
Rp2593
(dp2594
g17
S'\x00\x00\x00\x06\x01\x03'
p2595
sbsg19
(lp2596
g1
(g21
g3
Ntp2597
Rp2598
(dp2599
g17
I50398843
sbasg25
S'eth26'
p2600
sbsg27
g1
(g28
g3
Ntp2601
Rp2602
(dp2603
g32
g2593
sg33
g2593
sg34
g1
(g35
g3
Ntp2604
Rp2605
(dp2606
g39
I0
sg40
I34649
sg41
g2598
sg42
I1
sg43
g2598
sg44
I0
sg45
I64
sg46
I72
sg34
g1
(g47
g3
Ntp2607
Rp2608
(dp2609
g51
I0
sg40
I3639
sg52
g2605
sg53
I0
sg34
S'PingPingPingPingPingPingPingPingPingPingPingPing'
p2610
sbsg55
Nsg56
I0
sg57
I5
sg58
I4
sg59
I64329
sg52
g2602
sg60
I00
sbsg55
Nsg52
Nsg53
I2048
sg60
I00
sbsbag1
(g2
g3
Ntp2611
Rp2612
(dp2613
g7
g1
(g8
g3
Ntp2614
Rp2615
(dp2616
g12
g1
(g13
g3
Ntp2617
Rp2618
(dp2619
g17
S'\x00\x00\x00\x06\x01\x04'
p2620
sbsg19
(lp2621
g1
(g21
g3
Ntp2622
Rp2623
(dp2624
g17
I67176059
sbasg25
S'eth26'
p2625
sbsg27
g1
(g28
g3
Ntp2626
Rp2627
(dp2628
g32
g2618
sg33
g2618
sg34
g1
(g35
g3
Ntp2629
Rp2630
(dp2631
g39
I0
sg40
I34646
sg41
g2623
sg42
I1
sg43
g2623
sg44
I0
sg45
I64
sg46
I72
sg34
g1
(g47
g3
Ntp2632
Rp2633
(dp2634
g51
I0
sg40
I1591
sg52
g2630
sg53
I8
sg34
S'PingPingPingPingPingPingPingPingPingPingPingPing'
p2635
sbsg55
Nsg56
I0
sg57
I5
sg58
I4
sg59
I64330
sg52
g2627
sg60
I00
sbsg55
Nsg52
Nsg53
I2048
sg60
I00
sbsbag1
(g2
g3
Ntp2636
Rp2637
(dp2638
g7
g1
(g8
g3
Ntp2639
Rp2640
(dp2641
g12
g1
(g13
g3
Ntp2642
Rp2643
(dp2644
g17
S'\x00\x00\x00\x06\x02\x01'
p2645
sbsg19
(lp2646
g1
(g21
g3
Ntp2647
Rp2648
(dp2649
g17
I16909947
sbasg25
S'eth27'
p2650
sbsg27
g1
(g28
g3
Ntp2651
Rp2652
(dp2653
g32
g2643
sg33
g2643
sg34
g1
(g35
g3
Ntp2654
Rp2655
(dp2656
g39
I0
sg40
I34139
sg41
g2648
sg42
I1
sg43
g2648
sg44
I0
sg45
I64
sg46
I72
sg34
g1
(g47
g3
Ntp2657
Rp2658
(dp2659
g51
I0
sg40
I3639
sg52
g2655
sg53
I0
sg34
S'PingPingPingPingPingPingPingPingPingPingPingPing'
p2660
sbsg55
Nsg56
I0
sg57
I5
sg58
I4
sg59
I64331
sg52
g2652
sg60
I00
sbsg55
Nsg52
Nsg53
I2048
sg60
I00
sbsbag1
(g2
g3
Ntp2661
Rp2662
(dp2663
g7
g1
(g8
g3
Ntp2664
Rp2665
(dp2666
g12
g1
(g13
g3
Ntp2667
Rp2668
(dp2669
g17
S'\x00\x00\x00\x06\x02\x02'
p2670
sbsg19
(lp2671
g1
(g21
g3
Ntp2672
Rp2673
(dp2674
g17
I33687163
sbasg25
S'eth27'
p2675
sbsg27
g1
(g28
g3
Ntp2676
Rp2677
(dp2678
g32
g2668
sg33
g2668
sg34
g1
(g35
g3
Ntp2679
Rp2680
(dp2681
g39
I0
sg40
I34136
sg41
g2673
sg42
I1
sg43
g2673
sg44
I0
sg45
I64
sg46
I72
sg34
g1
(g47
g3
Ntp2682
Rp2683
(dp2684
g51
I0
sg40
I3639
sg52
g2680
sg53
I0
sg34
S'PingPingPingPingPingPingPingPingPingPingPingPing'
p2685
sbsg55
Nsg56
I0
sg57
I5
sg58
I4
sg59
I64332
sg52
g2677
sg60
I00
sbsg55
Nsg52
Nsg53
I2048
sg60
I00
sbsbag1
(g2
g3
Ntp2686
Rp2687
(dp2688
g7
g1
(g8
g3
Ntp2689
Rp2690
(dp2691
g12
g1
(g13
g3
Ntp2692
Rp2693
(dp2694
g17
S'\x00\x00\x00\x06\x02\x03'
p2695
sbsg19
(lp2696
g1
(g21
g3
Ntp2697
Rp2698
(dp2699
g17
I50464379
sbasg25
S'eth27'
p2700
sbsg27
g1
(g28
g3
Ntp2701
Rp2702
(dp2703
g32
g2693
sg33
g2693
sg34
g1
(g35
g3
Ntp2704
Rp2705
(dp2706
g39
I0
sg40
I34133
sg41
g2698
sg42
I1
sg43
g2698
sg44
I0
sg45
I64
sg46
I72
sg34
g1
(g47
g3
Ntp2707
Rp2708
(dp2709
g51
I0
sg40
I3639
sg52
g2705
sg53
I0
sg34
S'PingPingPingPingPingPingPingPingPingPingPingPing'
p2710
sbsg55
Nsg56
I0
sg57
I5
sg58
I4
sg59
I64333
sg52
g2702
sg60
I00
sbsg55
Nsg52
Nsg53
I2048
sg60
I00
sbsbag1
(g2
g3
Ntp2711
Rp2712
(dp2713
g7
g1
(g8
g3
Ntp2714
Rp2715
(dp2716
g12
g1
(g13
g3
Ntp2717
Rp2718
(dp2719
g17
S'\x00\x00\x00\x06\x02\x04'
p2720
sbsg19
(lp2721
g1
(g21
g3
Ntp2722
Rp2723
(dp2724
g17
I67241595
sbasg25
S'eth27'
p2725
sbsg27
g1
(g28
g3
Ntp2726
Rp2727
(dp2728
g32
g2718
sg33
g2718
sg34
g1
(g35
g3
Ntp2729
Rp2730
(dp2731
g39
I0
sg40
I34130
sg41
g2723
sg42
I1
sg43
g2723
sg44
I0
sg45
I64
sg46
I72
sg34
g1
(g47
g3
Ntp2732
Rp2733
(dp2734
g51
I0
sg40
I1591
sg52
g2730
sg53
I8
sg34
S'PingPingPingPingPingPingPingPingPingPingPingPing'
p2735
sbsg55
Nsg56
I0
sg57
I5
sg58
I4
sg59
I64334
sg52
g2727
sg60
I00
sbsg55
Nsg52
Nsg53
I2048
sg60
I00
sbsbag1
(g2
g3
Ntp2736
Rp2737
(dp2738
g7
g1
(g8
g3
Ntp2739
Rp2740
(dp2741
g12
g1
(g13
g3
Ntp2742
Rp2743
(dp2744
g17
S'\x00\x00\x00\x06\x03\x01'
p2745
sbsg19
(lp2746
g1
(g21
g3
Ntp2747
Rp2748
(dp2749
g17
I16975483
sbasg25
S'eth28'
p2750
sbsg27
g1
(g28
g3
Ntp2751
Rp2752
(dp2753
g32
g2743
sg33
g2743
sg34
g1
(g35
g3
Ntp2754
Rp2755
(dp2756
g39
I0
sg40
I33623
sg41
g2748
sg42
I1
sg43
g2748
sg44
I0
sg45
I64
sg46
I72
sg34
g1
(g47
g3
Ntp2757
Rp2758
(dp2759
g51
I0
sg40
I3639
sg52
g2755
sg53
I0
sg34
S'PingPingPingPingPingPingPingPingPingPingPingPing'
p2760
sbsg55
Nsg56
I0
sg57
I5
sg58
I4
sg59
I64335
sg52
g2752
sg60
I00
sbsg55
Nsg52
Nsg53
I2048
sg60
I00
sbsbag1
(g2
g3
Ntp2761
Rp2762
(dp2763
g7
g1
(g8
g3
Ntp2764
Rp2765
(dp2766
g12
g1
(g13
g3
Ntp2767
Rp2768
(dp2769
g17
S'\x00\x00\x00\x06\x03\x02'
p2770
sbsg19
(lp2771
g1
(g21
g3
Ntp2772
Rp2773
(dp2774
g17
I33752699
sbasg25
S'eth28'
p2775
sbsg27
g1
(g28
g3
Ntp2776
Rp2777
(dp2778
g32
g2768
sg33
g2768
sg34
g1
(g35
g3
Ntp2779
Rp2780
(dp2781
g39
I0
sg40
I33620
sg41
g2773
sg42
I1
sg43
g2773
sg44
I0
sg45
I64
sg46
I72
sg34
g1
(g47
g3
Ntp2782
Rp2783
(dp2784
g51
I0
sg40
I1591
sg52
g2780
sg53
I8
sg34
S'PingPingPingPingPingPingPingPingPingPingPingPing'
p2785
sbsg55
Nsg56
I0
sg57
I5
sg58
I4
sg59
I64336
sg52
g2777
sg60
I00
sbsg55
Nsg52
Nsg53
I2048
sg60
I00
sbsbag1
(g2
g3
Ntp2786
Rp2787
(dp2788
g7
g1
(g8
g3
Ntp2789
Rp2790
(dp2791
g12
g1
(g13
g3
Ntp2792
Rp2793
(dp2794
g17
S'\x00\x00\x00\x06\x03\x03'
p2795
sbsg19
(lp2796
g1
(g21
g3
Ntp2797
Rp2798
(dp2799
g17
I50529915
sbasg25
S'eth28'
p2800
sbsg27
g1
(g28
g3
Ntp2801
Rp2802
(dp2803
g32
g2793
sg33
g2793
sg34
g1
(g35
g3
Ntp2804
Rp2805
(dp2806
g39
I0
sg40
I33617
sg41
g2798
sg42
I1
sg43
g2798
sg44
I0
sg45
I64
sg46
I72
sg34
g1
(g47
g3
Ntp2807
Rp2808
(dp2809
g51
I0
sg40
I3639
sg52
g2805
sg53
I0
sg34
S'PingPingPingPingPingPingPingPingPingPingPingPing'
p2810
sbsg55
Nsg56
I0
sg57
I5
sg58
I4
sg59
I64337
sg52
g2802
sg60
I00
sbsg55
Nsg52
Nsg53
I2048
sg60
I00
sbsbag1
(g2
g3
Ntp2811
Rp2812
(dp2813
g7
g1
(g8
g3
Ntp2814
Rp2815
(dp2816
g12
g1
(g13
g3
Ntp2817
Rp2818
(dp2819
g17
S'\x00\x00\x00\x06\x03\x04'
p2820
sbsg19
(lp2821
g1
(g21
g3
Ntp2822
Rp2823
(dp2824
g17
I67307131
sbasg25
S'eth28'
p2825
sbsg27
g1
(g28
g3
Ntp2826
Rp2827
(dp2828
g32
g2818
sg33
g2818
sg34
g1
(g35
g3
Ntp2829
Rp2830
(dp2831
g39
I0
sg40
I33614
sg41
g2823
sg42
I1
sg43
g2823
sg44
I0
sg45
I64
sg46
I72
sg34
g1
(g47
g3
Ntp2832
Rp2833
(dp2834
g51
I0
sg40
I1591
sg52
g2830
sg53
I8
sg34
S'PingPingPingPingPingPingPingPingPingPingPingPing'
p2835
sbsg55
Nsg56
I0
sg57
I5
sg58
I4
sg59
I64338
sg52
g2827
sg60
I00
sbsg55
Nsg52
Nsg53
I2048
sg60
I00
sbsbag1
(g2
g3
Ntp2836
Rp2837
(dp2838
g7
g1
(g8
g3
Ntp2839
Rp2840
(dp2841
g12
g1
(g13
g3
Ntp2842
Rp2843
(dp2844
g17
S'\x00\x00\x00\x07\x00\x01'
p2845
sbsg19
(lp2846
g1
(g21
g3
Ntp2847
Rp2848
(dp2849
g17
I16779131
sbasg25
S'eth29'
p2850
sbsg27
g1
(g28
g3
Ntp2851
Rp2852
(dp2853
g32
g2843
sg33
g2843
sg34
g1
(g35
g3
Ntp2854
Rp2855
(dp2856
g39
I0
sg40
I35153
sg41
g2848
sg42
I1
sg43
g2848
sg44
I0
sg45
I64
sg46
I72
sg34
g1
(g47
g3
Ntp2857
Rp2858
(dp2859
g51
I0
sg40
I3639
sg52
g2855
sg53
I0
sg34
S'PingPingPingPingPingPingPingPingPingPingPingPing'
p2860
sbsg55
Nsg56
I0
sg57
I5
sg58
I4
sg59
I64339
sg52
g2852
sg60
I00
sbsg55
Nsg52
Nsg53
I2048
sg60
I00
sbsbag1
(g2
g3
Ntp2861
Rp2862
(dp2863
g7
g1
(g8
g3
Ntp2864
Rp2865
(dp2866
g12
g1
(g13
g3
Ntp2867
Rp2868
(dp2869
g17
S'\x00\x00\x00\x07\x00\x02'
p2870
sbsg19
(lp2871
g1
(g21
g3
Ntp2872
Rp2873
(dp2874
g17
I33556347
sbasg25
S'eth29'
p2875
sbsg27
g1
(g28
g3
Ntp2876
Rp2877
(dp2878
g32
g2868
sg33
g2868
sg34
g1
(g35
g3
Ntp2879
Rp2880
(dp2881
g39
I0
sg40
I35150
sg41
g2873
sg42
I1
sg43
g2873
sg44
I0
sg45
I64
sg46
I72
sg34
g1
(g47
g3
Ntp2882
Rp2883
(dp2884
g51
I0
sg40
I3639
sg52
g2880
sg53
I0
sg34
S'PingPingPingPingPingPingPingPingPingPingPingPing'
p2885
sbsg55
Nsg56
I0
sg57
I5
sg58
I4
sg59
I64340
sg52
g2877
sg60
I00
sbsg55
Nsg52
Nsg53
I2048
sg60
I00
sbsbag1
(g2
g3
Ntp2886
Rp2887
(dp2888
g7
g1
(g8
g3
Ntp2889
Rp2890
(dp2891
g12
g1
(g13
g3
Ntp2892
Rp2893
(dp2894
g17
S'\x00\x00\x00\x07\x00\x03'
p2895
sbsg19
(lp2896
g1
(g21
g3
Ntp2897
Rp2898
(dp2899
g17
I50333563
sbasg25
S'eth29'
p2900
sbsg27
g1
(g28
g3
Ntp2901
Rp2902
(dp2903
g32
g2893
sg33
g2893
sg34
g1
(g35
g3
Ntp2904
Rp2905
(dp2906
g39
I0
sg40
I35147
sg41
g2898
sg42
I1
sg43
g2898
sg44
I0
sg45
I64
sg46
I72
sg34
g1
(g47
g3
Ntp2907
Rp2908
(dp2909
g51
I0
sg40
I1591
sg52
g2905
sg53
I8
sg34
S'PingPingPingPingPingPingPingPingPingPingPingPing'
p2910
sbsg55
Nsg56
I0
sg57
I5
sg58
I4
sg59
I64341
sg52
g2902
sg60
I00
sbsg55
Nsg52
Nsg53
I2048
sg60
I00
sbsbag1
(g2
g3
Ntp2911
Rp2912
(dp2913
g7
g1
(g8
g3
Ntp2914
Rp2915
(dp2916
g12
g1
(g13
g3
Ntp2917
Rp2918
(dp2919
g17
S'\x00\x00\x00\x07\x00\x04'
p2920
sbsg19
(lp2921
g1
(g21
g3
Ntp2922
Rp2923
(dp2924
g17
I67110779
sbasg25
S'eth29'
p2925
sbsg27
g1
(g28
g3
Ntp2926
Rp2927
(dp2928
g32
g2918
sg33
g2918
sg34
g1
(g35
g3
Ntp2929
Rp2930
(dp2931
g39
I0
sg40
I35144
sg41
g2923
sg42
I1
sg43
g2923
sg44
I0
sg45
I64
sg46
I72
sg34
g1
(g47
g3
Ntp2932
Rp2933
(dp2934
g51
I0
sg40
I1591
sg52
g2930
sg53
I8
sg34
S'PingPingPingPingPingPingPingPingPingPingPingPing'
p2935
sbsg55
Nsg56
I0
sg57
I5
sg58
I4
sg59
I64342
sg52
g2927
sg60
I00
sbsg55
Nsg52
Nsg53
I2048
sg60
I00
sbsbag1
(g2
g3
Ntp2936
Rp2937
(dp2938
g7
g1
(g8
g3
Ntp2939
Rp2940
(dp2941
g12
g1
(g13
g3
Ntp2942
Rp2943
(dp2944
g17
S'\x00\x00\x00\x07\x01\x01'
p2945
sbsg19
(lp2946
g1
(g21
g3
Ntp2947
Rp2948
(dp2949
g17
I16844667
sbasg25
S'eth30'
p2950
sbsg27
g1
(g28
g3
Ntp2951
Rp2952
(dp2953
g32
g2943
sg33
g2943
sg34
g1
(g35
g3
Ntp2954
Rp2955
(dp2956
g39
I0
sg40
I34637
sg41
g2948
sg42
I1
sg43
g2948
sg44
I0
sg45
I64
sg46
I72
sg34
g1
(g47
g3
Ntp2957
Rp2958
(dp2959
g51
I0
sg40
I3639
sg52
g2955
sg53
I0
sg34
S'PingPingPingPingPingPingPingPingPingPingPingPing'
p2960
sbsg55
Nsg56
I0
sg57
I5
sg58
I4
sg59
I64343
sg52
g2952
sg60
I00
sbsg55
Nsg52
Nsg53
I2048
sg60
I00
sbsbag1
(g2
g3
Ntp2961
Rp2962
(dp2963
g7
g1
(g8
g3
Ntp2964
Rp2965
(dp2966
g12
g1
(g13
g3
Ntp2967
Rp2968
(dp2969
g17
S'\x00\x00\x00\x07\x01\x02'
p2970
sbsg19
(lp2971
g1
(g21
g3
Ntp2972
Rp2973
(dp2974
g17
I33621883
sbasg25
S'eth30'
p2975
sbsg27
g1
(g28
g3
Ntp2976
Rp2977
(dp2978
g32
g2968
sg33
g2968
sg34
g1
(g35
g3
Ntp2979
Rp2980
(dp2981
g39
I0
sg40
I34634
sg41
g2973
sg42
I1
sg43
g2973
sg44
I0
sg45
I64
sg46
I72
sg34
g1
(g47
g3
Ntp2982
Rp2983
(dp2984
g51
I0
sg40
I1591
sg52
g2980
sg53
I8
sg34
S'PingPingPingPingPingPingPingPingPingPingPingPing'
p2985
sbsg55
Nsg56
I0
sg57
I5
sg58
I4
sg59
I64344
sg52
g2977
sg60
I00
sbsg55
Nsg52
Nsg53
I2048
sg60
I00
sbsbag1
(g2
g3
Ntp2986
Rp2987
(dp2988
g7
g1
(g8
g3
Ntp2989
Rp2990
(dp2991
g12
g1
(g13
g3
Ntp2992
Rp2993
(dp2994
g17
S'\x00\x00\x00\x07\x01\x03'
p2995
sbsg19
(lp2996
g1
(g21
g3
Ntp2997
Rp2998
(dp2999
g17
I50399099
sbasg25
S'eth30'
p3000
sbsg27
g1
(g28
g3
Ntp3001
Rp3002
(dp3003
g32
g2993
sg33
g2993
sg34
g1
(g35
g3
Ntp3004
Rp3005
(dp3006
g39
I0
sg40
I34631
sg41
g2998
sg42
I1
sg43
g2998
sg44
I0
sg45
I64
sg46
I72
sg34
g1
(g47
g3
Ntp3007
Rp3008
(dp3009
g51
I0
sg40
I1591
sg52
g3005
sg53
I8
sg34
S'PingPingPingPingPingPingPingPingPingPingPingPing'
p3010
sbsg55
Nsg56
I0
sg57
I5
sg58
I4
sg59
I64345
sg52
g3002
sg60
I00
sbsg55
Nsg52
Nsg53
I2048
sg60
I00
sbsbag1
(g2
g3
Ntp3011
Rp3012
(dp3013
g7
g1
(g8
g3
Ntp3014
Rp3015
(dp3016
g12
g1
(g13
g3
Ntp3017
Rp3018
(dp3019
g17
S'\x00\x00\x00\x07\x01\x04'
p3020
sbsg19
(lp3021
g1
(g21
g3
Ntp3022
Rp3023
(dp3024
g17
I67176315
sbasg25
S'eth30'
p3025
sbsg27
g1
(g28
g3
Ntp3026
Rp3027
(dp3028
g32
g3018
sg33
g3018
sg34
g1
(g35
g3
Ntp3029
Rp3030
(dp3031
g39
I0
sg40
I34628
sg41
g3023
sg42
I1
sg43
g3023
sg44
I0
sg45
I64
sg46
I72
sg34
g1
(g47
g3
Ntp3032
Rp3033
(dp3034
g51
I0
sg40
I3639
sg52
g3030
sg53
I0
sg34
S'PingPingPingPingPingPingPingPingPingPingPingPing'
p3035
sbsg55
Nsg56
I0
sg57
I5
sg58
I4
sg59
I64346
sg52
g3027
sg60
I00
sbsg55
Nsg52
Nsg53
I2048
sg60
I00
sbsbag1
(g2
g3
Ntp3036
Rp3037
(dp3038
g7
g1
(g8
g3
Ntp3039
Rp3040
(dp3041
g12
g1
(g13
g3
Ntp3042
Rp3043
(dp3044
g17
S'\x00\x00\x00\x07\x02\x01'
p3045
sbsg19
(lp3046
g1
(g21
g3
Ntp3047
Rp3048
(dp3049
g17
I16910203
sbasg25
S'eth31'
p3050
sbsg27
g1
(g28
g3
Ntp3051
Rp3052
(dp3053
g32
g3043
sg33
g3043
sg34
g1
(g35
g3
Ntp3054
Rp3055
(dp3056
g39
I0
sg40
I34121
sg41
g3048
sg42
I1
sg43
g3048
sg44
I0
sg45
I64
sg46
I72
sg34
g1
(g47
g3
Ntp3057
Rp3058
(dp3059
g51
I0
sg40
I3639
sg52
g3055
sg53
I0
sg34
S'PingPingPingPingPingPingPingPingPingPingPingPing'
p3060
sbsg55
Nsg56
I0
sg57
I5
sg58
I4
sg59
I64347
sg52
g3052
sg60
I00
sbsg55
Nsg52
Nsg53
I2048
sg60
I00
sbsbag1
(g2
g3
Ntp3061
Rp3062
(dp3063
g7
g1
(g8
g3
Ntp3064
Rp3065
(dp3066
g12
g1
(g13
g3
Ntp3067
Rp3068
(dp3069
g17
S'\x00\x00\x00\x07\x02\x02'
p3070
sbsg19
(lp3071
g1
(g21
g3
Ntp3072
Rp3073
(dp3074
g17
I33687419
sbasg25
S'eth31'
p3075
sbsg27
g1
(g28
g3
Ntp3076
Rp3077
(dp3078
g32
g3068
sg33
g3068
sg34
g1
(g35
g3
Ntp3079
Rp3080
(dp3081
g39
I0
sg40
I34118
sg41
g3073
sg42
I1
sg43
g3073
sg44
I0
sg45
I64
sg46
I72
sg34
g1
(g47
g3
Ntp3082
Rp3083
(dp3084
g51
I0
sg40
I1591
sg52
g3080
sg53
I8
sg34
S'PingPingPingPingPingPingPingPingPingPingPingPing'
p3085
sbsg55
Nsg56
I0
sg57
I5
sg58
I4
sg59
I64348
sg52
g3077
sg60
I00
sbsg55
Nsg52
Nsg53
I2048
sg60
I00
sbsbag1
(g2
g3
Ntp3086
Rp3087
(dp3088
g7
g1
(g8
g3
Ntp3089
Rp3090
(dp3091
g12
g1
(g13
g3
Ntp3092
Rp3093
(dp3094
g17
S'\x00\x00\x00\x07\x02\x03'
p3095
sbsg19
(lp3096
g1
(g21
g3
Ntp3097
Rp3098
(dp3099
g17
I50464635
sbasg25
S'eth31'
p3100
sbsg27
g1
(g28
g3
Ntp3101
Rp3102
(dp3103
g32
g3093
sg33
g3093
sg34
g1
(g35
g3
Ntp3104
Rp3105
(dp3106
g39
I0
sg40
I34115
sg41
g3098
sg42
I1
sg43
g3098
sg44
I0
sg45
I64
sg46
I72
sg34
g1
(g47
g3
Ntp3107
Rp3108
(dp3109
g51
I0
sg40
I3639
sg52
g3105
sg53
I0
sg34
S'PingPingPingPingPingPingPingPingPingPingPingPing'
p3110
sbsg55
Nsg56
I0
sg57
I5
sg58
I4
sg59
I64349
sg52
g3102
sg60
I00
sbsg55
Nsg52
Nsg53
I2048
sg60
I00
sbsbag1
(g2
g3
Ntp3111
Rp3112
(dp3113
g7
g1
(g8
g3
Ntp3114
Rp3115
(dp3116
g12
g1
(g13
g3
Ntp3117
Rp3118
(dp3119
g17
S'\x00\x00\x00\x07\x02\x04'
p3120
sbsg19
(lp3121
g1
(g21
g3
Ntp3122
Rp3123
(dp3124
g17
I67241851
sbasg25
S'eth31'
p3125
sbsg27
g1
(g28
g3
Ntp3126
Rp3127
(dp3128
g32
g3118
sg33
g3118
sg34
g1
(g35
g3
Ntp3129
Rp3130
(dp3131
g39
I0
sg40
I34112
sg41
g3123
sg42
I1
sg43
g3123
sg44
I0
sg45
I64
sg46
I72
sg34
g1
(g47
g3
Ntp3132
Rp3133
(dp3134
g51
I0
sg40
I1591
sg52
g3130
sg53
I8
sg34
S'PingPingPingPingPingPingPingPingPingPingPingPing'
p3135
sbsg55
Nsg56
I0
sg57
I5
sg58
I4
sg59
I64350
sg52
g3127
sg60
I00
sbsg55
Nsg52
Nsg53
I2048
sg60
I00
sbsbag1
(g2
g3
Ntp3136
Rp3137
(dp3138
g7
g1
(g8
g3
Ntp3139
Rp3140
(dp3141
g12
g1
(g13
g3
Ntp3142
Rp3143
(dp3144
g17
S'\x00\x00\x00\x07\x03\x01'
p3145
sbsg19
(lp3146
g1
(g21
g3
Ntp3147
Rp3148
(dp3149
g17
I16975739
sbasg25
S'eth32'
p3150
sbsg27
g1
(g28
g3
Ntp3151
Rp3152
(dp3153
g32
g3143
sg33
g3143
sg34
g1
(g35
g3
Ntp3154
Rp3155
(dp3156
g39
I0
sg40
I33605
sg41
g3148
sg42
I1
sg43
g3148
sg44
I0
sg45
I64
sg46
I72
sg34
g1
(g47
g3
Ntp3157
Rp3158
(dp3159
g51
I0
sg40
I1591
sg52
g3155
sg53
I8
sg34
S'PingPingPingPingPingPingPingPingPingPingPingPing'
p3160
sbsg55
Nsg56
I0
sg57
I5
sg58
I4
sg59
I64351
sg52
g3152
sg60
I00
sbsg55
Nsg52
Nsg53
I2048
sg60
I00
sbsbag1
(g2
g3
Ntp3161
Rp3162
(dp3163
g7
g1
(g8
g3
Ntp3164
Rp3165
(dp3166
g12
g1
(g13
g3
Ntp3167
Rp3168
(dp3169
g17
S'\x00\x00\x00\x07\x03\x02'
p3170
sbsg19
(lp3171
g1
(g21
g3
Ntp3172
Rp3173
(dp3174
g17
I33752955
sbasg25
S'eth32'
p3175
sbsg27
g1
(g28
g3
Ntp3176
Rp3177
(dp3178
g32
g3168
sg33
g3168
sg34
g1
(g35
g3
Ntp3179
Rp3180
(dp3181
g39
I0
sg40
I33602
sg41
g3173
sg42
I1
sg43
g3173
sg44
I0
sg45
I64
sg46
I72
sg34
g1
(g47
g3
Ntp3182
Rp3183
(dp3184
g51
I0
sg40
I3639
sg52
g3180
sg53
I0
sg34
S'PingPingPingPingPingPingPingPingPingPingPingPing'
p3185
sbsg55
Nsg56
I0
sg57
I5
sg58
I4
sg59
I64352
sg52
g3177
sg60
I00
sbsg55
Nsg52
Nsg53
I2048
sg60
I00
sbsbag1
(g2
g3
Ntp3186
Rp3187
(dp3188
g7
g1
(g8
g3
Ntp3189
Rp3190
(dp3191
g12
g1
(g13
g3
Ntp3192
Rp3193
(dp3194
g17
S'\x00\x00\x00\x07\x03\x03'
p3195
sbsg19
(lp3196
g1
(g21
g3
Ntp3197
Rp3198
(dp3199
g17
I50530171
sbasg25
S'eth32'
p3200
sbsg27
g1
(g28
g3
Ntp3201
Rp3202
(dp3203
g32
g3193
sg33
g3193
sg34
g1
(g35
g3
Ntp3204
Rp3205
(dp3206
g39
I0
sg40
I33599
sg41
g3198
sg42
I1
sg43
g3198
sg44
I0
sg45
I64
sg46
I72
sg34
g1
(g47
g3
Ntp3207
Rp3208
(dp3209
g51
I0
sg40
I3639
sg52
g3205
sg53
I0
sg34
S'PingPingPingPingPingPingPingPingPingPingPingPing'
p3210
sbsg55
Nsg56
I0
sg57
I5
sg58
I4
sg59
I64353
sg52
g3202
sg60
I00
sbsg55
Nsg52
Nsg53
I2048
sg60
I00
sbsbag1
(g2
g3
Ntp3211
Rp3212
(dp3213
g7
g1
(g8
g3
Ntp3214
Rp3215
(dp3216
g12
g1
(g13
g3
Ntp3217
Rp3218
(dp3219
g17
S'\x00\x00\x00\x07\x03\x04'
p3220
sbsg19
(lp3221
g1
(g21
g3
Ntp3222
Rp3223
(dp3224
g17
I67307387
sbasg25
S'eth32'
p3225
sbsg27
g1
(g28
g3
Ntp3226
Rp3227
(dp3228
g32
g3218
sg33
g3218
sg34
g1
(g35
g3
Ntp3229
Rp3230
(dp3231
g39
I0
sg40
I33596
sg41
g3223
sg42
I1
sg43
g3223
sg44
I0
sg45
I64
sg46
I72
sg34
g1
(g47
g3
Ntp3232
Rp3233
(dp3234
g51
I0
sg40
I3639
sg52
g3230
sg53
I0
sg34
S'PingPingPingPingPingPingPingPingPingPingPingPing'
p3235
sbsg55
Nsg56
I0
sg57
I5
sg58
I4
sg59
I64354
sg52
g3227
sg60
I00
sbsg55
Nsg52
Nsg53
I2048
sg60
I00
sbsbag1
(g2
g3
Ntp3236
Rp3237
(dp3238
g7
g10
sg27
g1
(g28
g3
Ntp3239
Rp3240
(dp3241
g32
g15
sg33
g68
sg34
g1
(g35
g3
Ntp3242
Rp3243
(dp3244
g39
I0
sg40
I35022
sg41
g73
sg42
I1
sg43
g23
sg44
I0
sg45
I64
sg46
I72
sg34
g1
(g47
g3
Ntp3245
Rp3246
(dp3247
g51
I0
sg40
I3639
sg52
g3243
sg53
I0
sg34
S'PingPingPingPingPingPingPingPingPingPingPingPing'
p3248
sbsg55
Nsg56
I0
sg57
I5
sg58
I4
sg59
I64483
sg52
g3240
sg60
I00
sbsg55
Nsg52
Nsg53
I2048
sg60
I00
sbsbag1
(g2
g3
Ntp3249
Rp3250
(dp3251
g7
g65
sg27
g1
(g28
g3
Ntp3252
Rp3253
(dp3254
g32
g68
sg33
g15
sg34
g1
(g35
g3
Ntp3255
Rp3256
(dp3257
g39
I0
sg40
I35021
sg41
g23
sg42
I1
sg43
g73
sg44
I0
sg45
I64
sg46
I72
sg34
g1
(g47
g3
Ntp3258
Rp3259
(dp3260
g51
I0
sg40
I1591
sg52
g3256
sg53
I8
sg34
S'PingPingPingPingPingPingPingPingPingPingPingPing'
p3261
sbsg55
Nsg56
I0
sg57
I5
sg58
I4
sg59
I64484
sg52
g3253
sg60
I00
sbsg55
Nsg52
Nsg53
I2048
sg60
I00
sbsbag1
(g2
g3
Ntp3262
Rp3263
(dp3264
g7
g90
sg27
g1
(g28
g3
Ntp3265
Rp3266
(dp3267
g32
g93
sg33
g15
sg34
g1
(g35
g3
Ntp3268
Rp3269
(dp3270
g39
I0
sg40
I35019
sg41
g23
sg42
I1
sg43
g98
sg44
I0
sg45
I64
sg46
I72
sg34
g1
(g47
g3
Ntp3271
Rp3272
(dp3273
g51
I0
sg40
I1591
sg52
g3269
sg53
I8
sg34
S'PingPingPingPingPingPingPingPingPingPingPingPing'
p3274
sbsg55
Nsg56
I0
sg57
I5
sg58
I4
sg59
I64485
sg52
g3266
sg60
I00
sbsg55
Nsg52
Nsg53
I2048
sg60
I00
sbsbag1
(g2
g3
Ntp3275
Rp3276
(dp3277
g7
g115
sg27
g1
(g28
g3
Ntp3278
Rp3279
(dp3280
g32
g118
sg33
g15
sg34
g1
(g35
g3
Ntp3281
Rp3282
(dp3283
g39
I0
sg40
I35017
sg41
g23
sg42
I1
sg43
g123
sg44
I0
sg45
I64
sg46
I72
sg34
g1
(g47
g3
Ntp3284
Rp3285
(dp3286
g51
I0
sg40
I1591
sg52
g3282
sg53
I8
sg34
S'PingPingPingPingPingPingPingPingPingPingPingPing'
p3287
sbsg55
Nsg56
I0
sg57
I5
sg58
I4
sg59
I64486
sg52
g3279
sg60
I00
sbsg55
Nsg52
Nsg53
I2048
sg60
I00
sbsbag1
(g2
g3
Ntp3288
Rp3289
(dp3290
g7
g140
sg27
g1
(g28
g3
Ntp3291
Rp3292
(dp3293
g32
g143
sg33
g15
sg34
g1
(g35
g3
Ntp3294
Rp3295
(dp3296
g39
I0
sg40
I34763
sg41
g23
sg42
I1
sg43
g148
sg44
I0
sg45
I64
sg46
I72
sg34
g1
(g47
g3
Ntp3297
Rp3298
(dp3299
g51
I0
sg40
I3639
sg52
g3295
sg53
I0
sg34
S'PingPingPingPingPingPingPingPingPingPingPingPing'
p3300
sbsg55
Nsg56
I0
sg57
I5
sg58
I4
sg59
I64487
sg52
g3292
sg60
I00
sbsg55
Nsg52
Nsg53
I2048
sg60
I00
sbsbag1
(g2
g3
Ntp3301
Rp3302
(dp3303
g7
g165
sg27
g1
(g28
g3
Ntp3304
Rp3305
(dp3306
g32
g168
sg33
g15
sg34
g1
(g35
g3
Ntp3307
Rp3308
(dp3309
g39
I0
sg40
I34761
sg41
g23
sg42
I1
sg43
g173
sg44
I0
sg45
I64
sg46
I72
sg34
g1
(g47
g3
Ntp3310
Rp3311
(dp3312
g51
I0
sg40
I1591
sg52
g3308
sg53
I8
sg34
S'PingPingPingPingPingPingPingPingPingPingPingPing'
p3313
sbsg55
Nsg56
I0
sg57
I5
sg58
I4
sg59
I64488
sg52
g3305
sg60
I00
sbsg55
Nsg52
Nsg53
I2048
sg60
I00
sbsbag1
(g2
g3
Ntp3314
Rp3315
(dp3316
g7
g190
sg27
g1
(g28
g3
Ntp3317
Rp3318
(dp3319
g32
g193
sg33
g15
sg34
g1
(g35
g3
Ntp3320
Rp3321
(dp3322
g39
I0
sg40
I34759
sg41
g23
sg42
I1
sg43
g198
sg44
I0
sg45
I64
sg46
I72
sg34
g1
(g47
g3
Ntp3323
Rp3324
(dp3325
g51
I0
sg40
I3639
sg52
g3321
sg53
I0
sg34
S'PingPingPingPingPingPingPingPingPingPingPingPing'
p3326
sbsg55
Nsg56
I0
sg57
I5
sg58
I4
sg59
I64489
sg52
g3318
sg60
I00
sbsg55
Nsg52
Nsg53
I2048
sg60
I00
sbsbag1
(g2
g3
Ntp3327
Rp3328
(dp3329
g7
g215
sg27
g1
(g28
g3
Ntp3330
Rp3331
(dp3332
g32
g218
sg33
g15
sg34
g1
(g35
g3
Ntp3333
Rp3334
(dp3335
g39
I0
sg40
I34757
sg41
g23
sg42
I1
sg43
g223
sg44
I0
sg45
I64
sg46
I72
sg34
g1
(g47
g3
Ntp3336
Rp3337
(dp3338
g51
I0
sg40
I3639
sg52
g3334
sg53
I0
sg34
S'PingPingPingPingPingPingPingPingPingPingPingPing'
p3339
sbsg55
Nsg56
I0
sg57
I5
sg58
I4
sg59
I64490
sg52
g3331
sg60
I00
sbsg55
Nsg52
Nsg53
I2048
sg60
I00
sbsbag1
(g2
g3
Ntp3340
Rp3341
(dp3342
g7
g240
sg27
g1
(g28
g3
Ntp3343
Rp3344
(dp3345
g32
g243
sg33
g15
sg34
g1
(g35
g3
Ntp3346
Rp3347
(dp3348
g39
I0
sg40
I34503
sg41
g23
sg42
I1
sg43
g248
sg44
I0
sg45
I64
sg46
I72
sg34
g1
(g47
g3
Ntp3349
Rp3350
(dp3351
g51
I0
sg40
I3639
sg52
g3347
sg53
I0
sg34
S'PingPingPingPingPingPingPingPingPingPingPingPing'
p3352
sbsg55
Nsg56
I0
sg57
I5
sg58
I4
sg59
I64491
sg52
g3344
sg60
I00
sbsg55
Nsg52
Nsg53
I2048
sg60
I00
sbsbag1
(g2
g3
Ntp3353
Rp3354
(dp3355
g7
g265
sg27
g1
(g28
g3
Ntp3356
Rp3357
(dp3358
g32
g268
sg33
g15
sg34
g1
(g35
g3
Ntp3359
Rp3360
(dp3361
g39
I0
sg40
I34501
sg41
g23
sg42
I1
sg43
g273
sg44
I0
sg45
I64
sg46
I72
sg34
g1
(g47
g3
Ntp3362
Rp3363
(dp3364
g51
I0
sg40
I3639
sg52
g3360
sg53
I0
sg34
S'PingPingPingPingPingPingPingPingPingPingPingPing'
p3365
sbsg55
Nsg56
I0
sg57
I5
sg58
I4
sg59
I64492
sg52
g3357
sg60
I00
sbsg55
Nsg52
Nsg53
I2048
sg60
I00
sbsbag1
(g2
g3
Ntp3366
Rp3367
(dp3368
g7
g290
sg27
g1
(g28
g3
Ntp3369
Rp3370
(dp3371
g32
g293
sg33
g15
sg34
g1
(g35
g3
Ntp3372
Rp3373
(dp3374
g39
I0
sg40
I34499
sg41
g23
sg42
I1
sg43
g298
sg44
I0
sg45
I64
sg46
I72
sg34
g1
(g47
g3
Ntp3375
Rp3376
(dp3377
g51
I0
sg40
I3639
sg52
g3373
sg53
I0
sg34
S'PingPingPingPingPingPingPingPingPingPingPingPing'
p3378
sbsg55
Nsg56
I0
sg57
I5
sg58
I4
sg59
I64493
sg52
g3370
sg60
I00
sbsg55
Nsg52
Nsg53
I2048
sg60
I00
sbsbag1
(g2
g3
Ntp3379
Rp3380
(dp3381
g7
g315
sg27
g1
(g28
g3
Ntp3382
Rp3383
(dp3384
g32
g318
sg33
g15
sg34
g1
(g35
g3
Ntp3385
Rp3386
(dp3387
g39
I0
sg40
I34497
sg41
g23
sg42
I1
sg43
g323
sg44
I0
sg45
I64
sg46
I72
sg34
g1
(g47
g3
Ntp3388
Rp3389
(dp3390
g51
I0
sg40
I1591
sg52
g3386
sg53
I8
sg34
S'PingPingPingPingPingPingPingPingPingPingPingPing'
p3391
sbsg55
Nsg56
I0
sg57
I5
sg58
I4
sg59
I64494
sg52
g3383
sg60
I00
sbsg55
Nsg52
Nsg53
I2048
sg60
I00
sbsbag1
(g2
g3
Ntp3392
Rp3393
(dp3394
g7
g340
sg27
g1
(g28
g3
Ntp3395
Rp3396
(dp3397
g32
g343
sg33
g15
sg34
g1
(g35
g3
Ntp3398
Rp3399
(dp3400
g39
I0
sg40
I34243
sg41
g23
sg42
I1
sg43
g348
sg44
I0
sg45
I64
sg46
I72
sg34
g1
(g47
g3
Ntp3401
Rp3402
(dp3403
g51
I0
sg40
I3639
sg52
g3399
sg53
I0
sg34
S'PingPingPingPingPingPingPingPingPingPingPingPing'
p3404
sbsg55
Nsg56
I0
sg57
I5
sg58
I4
sg59
I64495
sg52
g3396
sg60
I00
sbsg55
Nsg52
Nsg53
I2048
sg60
I00
sbsbag1
(g2
g3
Ntp3405
Rp3406
(dp3407
g7
g365
sg27
g1
(g28
g3
Ntp3408
Rp3409
(dp3410
g32
g368
sg33
g15
sg34
g1
(g35
g3
Ntp3411
Rp3412
(dp3413
g39
I0
sg40
I34241
sg41
g23
sg42
I1
sg43
g373
sg44
I0
sg45
I64
sg46
I72
sg34
g1
(g47
g3
Ntp3414
Rp3415
(dp3416
g51
I0
sg40
I1591
sg52
g3412
sg53
I8
sg34
S'PingPingPingPingPingPingPingPingPingPingPingPing'
p3417
sbsg55
Nsg56
I0
sg57
I5
sg58
I4
sg59
I64496
sg52
g3409
sg60
I00
sbsg55
Nsg52
Nsg53
I2048
sg60
I00
sbsbag1
(g2
g3
Ntp3418
Rp3419
(dp3420
g7
g390
sg27
g1
(g28
g3
Ntp3421
Rp3422
(dp3423
g32
g393
sg33
g15
sg34
g1
(g35
g3
Ntp3424
Rp3425
(dp3426
g39
I0
sg40
I34239
sg41
g23
sg42
I1
sg43
g398
sg44
I0
sg45
I64
sg46
I72
sg34
g1
(g47
g3
Ntp3427
Rp3428
(dp3429
g51
I0
sg40
I1591
sg52
g3425
sg53
I8
sg34
S'PingPingPingPingPingPingPingPingPingPingPingPing'
p3430
sbsg55
Nsg56
I0
sg57
I5
sg58
I4
sg59
I64497
sg52
g3422
sg60
I00
sbsg55
Nsg52
Nsg53
I2048
sg60
I00
sbsbag1
(g2
g3
Ntp3431
Rp3432
(dp3433
g7
g415
sg27
g1
(g28
g3
Ntp3434
Rp3435
(dp3436
g32
g418
sg33
g15
sg34
g1
(g35
g3
Ntp3437
Rp3438
(dp3439
g39
I0
sg40
I34237
sg41
g23
sg42
I1
sg43
g423
sg44
I0
sg45
I64
sg46
I72
sg34
g1
(g47
g3
Ntp3440
Rp3441
(dp3442
g51
I0
sg40
I3639
sg52
g3438
sg53
I0
sg34
S'PingPingPingPingPingPingPingPingPingPingPingPing'
p3443
sbsg55
Nsg56
I0
sg57
I5
sg58
I4
sg59
I64498
sg52
g3435
sg60
I00
sbsg55
Nsg52
Nsg53
I2048
sg60
I00
sbsbag1
(g2
g3
Ntp3444
Rp3445
(dp3446
g7
g440
sg27
g1
(g28
g3
Ntp3447
Rp3448
(dp3449
g32
g443
sg33
g15
sg34
g1
(g35
g3
Ntp3450
Rp3451
(dp3452
g39
I0
sg40
I35006
sg41
g23
sg42
I1
sg43
g448
sg44
I0
sg45
I64
sg46
I72
sg34
g1
(g47
g3
Ntp3453
Rp3454
(dp3455
g51
I0
sg40
I3639
sg52
g3451
sg53
I0
sg34
S'PingPingPingPingPingPingPingPingPingPingPingPing'
p3456
sbsg55
Nsg56
I0
sg57
I5
sg58
I4
sg59
I64499
sg52
g3448
sg60
I00
sbsg55
Nsg52
Nsg53
I2048
sg60
I00
sbsbag1
(g2
g3
Ntp3457
Rp3458
(dp3459
g7
g465
sg27
g1
(g28
g3
Ntp3460
Rp3461
(dp3462
g32
g468
sg33
g15
sg34
g1
(g35
g3
Ntp3463
Rp3464
(dp3465
g39
I0
sg40
I35004
sg41
g23
sg42
I1
sg43
g473
sg44
I0
sg45
I64
sg46
I72
sg34
g1
(g47
g3
Ntp3466
Rp3467
(dp3468
g51
I0
sg40
I1591
sg52
g3464
sg53
I8
sg34
S'PingPingPingPingPingPingPingPingPingPingPingPing'
p3469
sbsg55
Nsg56
I0
sg57
I5
sg58
I4
sg59
I64500
sg52
g3461
sg60
I00
sbsg55
Nsg52
Nsg53
I2048
sg60
I00
sbsbag1
(g2
g3
Ntp3470
Rp3471
(dp3472
g7
g490
sg27
g1
(g28
g3
Ntp3473
Rp3474
(dp3475
g32
g493
sg33
g15
sg34
g1
(g35
g3
Ntp3476
Rp3477
(dp3478
g39
I0
sg40
I35002
sg41
g23
sg42
I1
sg43
g498
sg44
I0
sg45
I64
sg46
I72
sg34
g1
(g47
g3
Ntp3479
Rp3480
(dp3481
g51
I0
sg40
I1591
sg52
g3477
sg53
I8
sg34
S'PingPingPingPingPingPingPingPingPingPingPingPing'
p3482
sbsg55
Nsg56
I0
sg57
I5
sg58
I4
sg59
I64501
sg52
g3474
sg60
I00
sbsg55
Nsg52
Nsg53
I2048
sg60
I00
sbsbag1
(g2
g3
Ntp3483
Rp3484
(dp3485
g7
g515
sg27
g1
(g28
g3
Ntp3486
Rp3487
(dp3488
g32
g518
sg33
g15
sg34
g1
(g35
g3
Ntp3489
Rp3490
(dp3491
g39
I0
sg40
I35000
sg41
g23
sg42
I1
sg43
g523
sg44
I0
sg45
I64
sg46
I72
sg34
g1
(g47
g3
Ntp3492
Rp3493
(dp3494
g51
I0
sg40
I1591
sg52
g3490
sg53
I8
sg34
S'PingPingPingPingPingPingPingPingPingPingPingPing'
p3495
sbsg55
Nsg56
I0
sg57
I5
sg58
I4
sg59
I64502
sg52
g3487
sg60
I00
sbsg55
Nsg52
Nsg53
I2048
sg60
I00
sbsbag1
(g2
g3
Ntp3496
Rp3497
(dp3498
g7
g540
sg27
g1
(g28
g3
Ntp3499
Rp3500
(dp3501
g32
g543
sg33
g15
sg34
g1
(g35
g3
Ntp3502
Rp3503
(dp3504
g39
I0
sg40
I34746
sg41
g23
sg42
I1
sg43
g548
sg44
I0
sg45
I64
sg46
I72
sg34
g1
(g47
g3
Ntp3505
Rp3506
(dp3507
g51
I0
sg40
I1591
sg52
g3503
sg53
I8
sg34
S'PingPingPingPingPingPingPingPingPingPingPingPing'
p3508
sbsg55
Nsg56
I0
sg57
I5
sg58
I4
sg59
I64503
sg52
g3500
sg60
I00
sbsg55
Nsg52
Nsg53
I2048
sg60
I00
sbsbag1
(g2
g3
Ntp3509
Rp3510
(dp3511
g7
g565
sg27
g1
(g28
g3
Ntp3512
Rp3513
(dp3514
g32
g568
sg33
g15
sg34
g1
(g35
g3
Ntp3515
Rp3516
(dp3517
g39
I0
sg40
I34744
sg41
g23
sg42
I1
sg43
g573
sg44
I0
sg45
I64
sg46
I72
sg34
g1
(g47
g3
Ntp3518
Rp3519
(dp3520
g51
I0
sg40
I3639
sg52
g3516
sg53
I0
sg34
S'PingPingPingPingPingPingPingPingPingPingPingPing'
p3521
sbsg55
Nsg56
I0
sg57
I5
sg58
I4
sg59
I64504
sg52
g3513
sg60
I00
sbsg55
Nsg52
Nsg53
I2048
sg60
I00
sbsbag1
(g2
g3
Ntp3522
Rp3523
(dp3524
g7
g590
sg27
g1
(g28
g3
Ntp3525
Rp3526
(dp3527
g32
g593
sg33
g15
sg34
g1
(g35
g3
Ntp3528
Rp3529
(dp3530
g39
I0
sg40
I34742
sg41
g23
sg42
I1
sg43
g598
sg44
I0
sg45
I64
sg46
I72
sg34
g1
(g47
g3
Ntp3531
Rp3532
(dp3533
g51
I0
sg40
I3639
sg52
g3529
sg53
I0
sg34
S'PingPingPingPingPingPingPingPingPingPingPingPing'
p3534
sbsg55
Nsg56
I0
sg57
I5
sg58
I4
sg59
I64505
sg52
g3526
sg60
I00
sbsg55
Nsg52
Nsg53
I2048
sg60
I00
sbsbag1
(g2
g3
Ntp3535
Rp3536
(dp3537
g7
g615
sg27
g1
(g28
g3
Ntp3538
Rp3539
(dp3540
g32
g618
sg33
g15
sg34
g1
(g35
g3
Ntp3541
Rp3542
(dp3543
g39
I0
sg40
I34740
sg41
g23
sg42
I1
sg43
g623
sg44
I0
sg45
I64
sg46
I72
sg34
g1
(g47
g3
Ntp3544
Rp3545
(dp3546
g51
I0
sg40
I1591
sg52
g3542
sg53
I8
sg34
S'PingPingPingPingPingPingPingPingPingPingPingPing'
p3547
sbsg55
Nsg56
I0
sg57
I5
sg58
I4
sg59
I64506
sg52
g3539
sg60
I00
sbsg55
Nsg52
Nsg53
I2048
sg60
I00
sbsbag1
(g2
g3
Ntp3548
Rp3549
(dp3550
g7
g640
sg27
g1
(g28
g3
Ntp3551
Rp3552
(dp3553
g32
g643
sg33
g15
sg34
g1
(g35
g3
Ntp3554
Rp3555
(dp3556
g39
I0
sg40
I34486
sg41
g23
sg42
I1
sg43
g648
sg44
I0
sg45
I64
sg46
I72
sg34
g1
(g47
g3
Ntp3557
Rp3558
(dp3559
g51
I0
sg40
I1591
sg52
g3555
sg53
I8
sg34
S'PingPingPingPingPingPingPingPingPingPingPingPing'
p3560
sbsg55
Nsg56
I0
sg57
I5
sg58
I4
sg59
I64507
sg52
g3552
sg60
I00
sbsg55
Nsg52
Nsg53
I2048
sg60
I00
sbsbag1
(g2
g3
Ntp3561
Rp3562
(dp3563
g7
g665
sg27
g1
(g28
g3
Ntp3564
Rp3565
(dp3566
g32
g668
sg33
g15
sg34
g1
(g35
g3
Ntp3567
Rp3568
(dp3569
g39
I0
sg40
I34484
sg41
g23
sg42
I1
sg43
g673
sg44
I0
sg45
I64
sg46
I72
sg34
g1
(g47
g3
Ntp3570
Rp3571
(dp3572
g51
I0
sg40
I1591
sg52
g3568
sg53
I8
sg34
S'PingPingPingPingPingPingPingPingPingPingPingPing'
p3573
sbsg55
Nsg56
I0
sg57
I5
sg58
I4
sg59
I64508
sg52
g3565
sg60
I00
sbsg55
Nsg52
Nsg53
I2048
sg60
I00
sbsbag1
(g2
g3
Ntp3574
Rp3575
(dp3576
g7
g690
sg27
g1
(g28
g3
Ntp3577
Rp3578
(dp3579
g32
g693
sg33
g15
sg34
g1
(g35
g3
Ntp3580
Rp3581
(dp3582
g39
I0
sg40
I34482
sg41
g23
sg42
I1
sg43
g698
sg44
I0
sg45
I64
sg46
I72
sg34
g1
(g47
g3
Ntp3583
Rp3584
(dp3585
g51
I0
sg40
I1591
sg52
g3581
sg53
I8
sg34
S'PingPingPingPingPingPingPingPingPingPingPingPing'
p3586
sbsg55
Nsg56
I0
sg57
I5
sg58
I4
sg59
I64509
sg52
g3578
sg60
I00
sbsg55
Nsg52
Nsg53
I2048
sg60
I00
sbsbag1
(g2
g3
Ntp3587
Rp3588
(dp3589
g7
g715
sg27
g1
(g28
g3
Ntp3590
Rp3591
(dp3592
g32
g718
sg33
g15
sg34
g1
(g35
g3
Ntp3593
Rp3594
(dp3595
g39
I0
sg40
I34480
sg41
g23
sg42
I1
sg43
g723
sg44
I0
sg45
I64
sg46
I72
sg34
g1
(g47
g3
Ntp3596
Rp3597
(dp3598
g51
I0
sg40
I3639
sg52
g3594
sg53
I0
sg34
S'PingPingPingPingPingPingPingPingPingPingPingPing'
p3599
sbsg55
Nsg56
I0
sg57
I5
sg58
I4
sg59
I64510
sg52
g3591
sg60
I00
sbsg55
Nsg52
Nsg53
I2048
sg60
I00
sbsbag1
(g2
g3
Ntp3600
Rp3601
(dp3602
g7
g740
sg27
g1
(g28
g3
Ntp3603
Rp3604
(dp3605
g32
g743
sg33
g15
sg34
g1
(g35
g3
Ntp3606
Rp3607
(dp3608
g39
I0
sg40
I34226
sg41
g23
sg42
I1
sg43
g748
sg44
I0
sg45
I64
sg46
I72
sg34
g1
(g47
g3
Ntp3609
Rp3610
(dp3611
g51
I0
sg40
I1591
sg52
g3607
sg53
I8
sg34
S'PingPingPingPingPingPingPingPingPingPingPingPing'
p3612
sbsg55
Nsg56
I0
sg57
I5
sg58
I4
sg59
I64511
sg52
g3604
sg60
I00
sbsg55
Nsg52
Nsg53
I2048
sg60
I00
sbsbag1
(g2
g3
Ntp3613
Rp3614
(dp3615
g7
g765
sg27
g1
(g28
g3
Ntp3616
Rp3617
(dp3618
g32
g768
sg33
g15
sg34
g1
(g35
g3
Ntp3619
Rp3620
(dp3621
g39
I0
sg40
I34224
sg41
g23
sg42
I1
sg43
g773
sg44
I0
sg45
I64
sg46
I72
sg34
g1
(g47
g3
Ntp3622
Rp3623
(dp3624
g51
I0
sg40
I3639
sg52
g3620
sg53
I0
sg34
S'PingPingPingPingPingPingPingPingPingPingPingPing'
p3625
sbsg55
Nsg56
I0
sg57
I5
sg58
I4
sg59
I64512
sg52
g3617
sg60
I00
sbsg55
Nsg52
Nsg53
I2048
sg60
I00
sbsbag1
(g2
g3
Ntp3626
Rp3627
(dp3628
g7
g790
sg27
g1
(g28
g3
Ntp3629
Rp3630
(dp3631
g32
g793
sg33
g15
sg34
g1
(g35
g3
Ntp3632
Rp3633
(dp3634
g39
I0
sg40
I34222
sg41
g23
sg42
I1
sg43
g798
sg44
I0
sg45
I64
sg46
I72
sg34
g1
(g47
g3
Ntp3635
Rp3636
(dp3637
g51
I0
sg40
I1591
sg52
g3633
sg53
I8
sg34
S'PingPingPingPingPingPingPingPingPingPingPingPing'
p3638
sbsg55
Nsg56
I0
sg57
I5
sg58
I4
sg59
I64513
sg52
g3630
sg60
I00
sbsg55
Nsg52
Nsg53
I2048
sg60
I00
sbsbag1
(g2
g3
Ntp3639
Rp3640
(dp3641
g7
g815
sg27
g1
(g28
g3
Ntp3642
Rp3643
(dp3644
g32
g818
sg33
g15
sg34
g1
(g35
g3
Ntp3645
Rp3646
(dp3647
g39
I0
sg40
I34220
sg41
g23
sg42
I1
sg43
g823
sg44
I0
sg45
I64
sg46
I72
sg34
g1
(g47
g3
Ntp3648
Rp3649
(dp3650
g51
I0
sg40
I3639
sg52
g3646
sg53
I0
sg34
S'PingPingPingPingPingPingPingPingPingPingPingPing'
p3651
sbsg55
Nsg56
I0
sg57
I5
sg58
I4
sg59
I64514
sg52
g3643
sg60
I00
sbsg55
Nsg52
Nsg53
I2048
sg60
I00
sbsbag1
(g2
g3
Ntp3652
Rp3653
(dp3654
g7
g840
sg27
g1
(g28
g3
Ntp3655
Rp3656
(dp3657
g32
g843
sg33
g15
sg34
g1
(g35
g3
Ntp3658
Rp3659
(dp3660
g39
I0
sg40
I34989
sg41
g23
sg42
I1
sg43
g848
sg44
I0
sg45
I64
sg46
I72
sg34
g1
(g47
g3
Ntp3661
Rp3662
(dp3663
g51
I0
sg40
I1591
sg52
g3659
sg53
I8
sg34
S'PingPingPingPingPingPingPingPingPingPingPingPing'
p3664
sbsg55
Nsg56
I0
sg57
I5
sg58
I4
sg59
I64515
sg52
g3656
sg60
I00
sbsg55
Nsg52
Nsg53
I2048
sg60
I00
sbsbag1
(g2
g3
Ntp3665
Rp3666
(dp3667
g7
g865
sg27
g1
(g28
g3
Ntp3668
Rp3669
(dp3670
g32
g868
sg33
g15
sg34
g1
(g35
g3
Ntp3671
Rp3672
(dp3673
g39
I0
sg40
I34987
sg41
g23
sg42
I1
sg43
g873
sg44
I0
sg45
I64
sg46
I72
sg34
g1
(g47
g3
Ntp3674
Rp3675
(dp3676
g51
I0
sg40
I3639
sg52
g3672
sg53
I0
sg34
S'PingPingPingPingPingPingPingPingPingPingPingPing'
p3677
sbsg55
Nsg56
I0
sg57
I5
sg58
I4
sg59
I64516
sg52
g3669
sg60
I00
sbsg55
Nsg52
Nsg53
I2048
sg60
I00
sbsbag1
(g2
g3
Ntp3678
Rp3679
(dp3680
g7
g890
sg27
g1
(g28
g3
Ntp3681
Rp3682
(dp3683
g32
g893
sg33
g15
sg34
g1
(g35
g3
Ntp3684
Rp3685
(dp3686
g39
I0
sg40
I34985
sg41
g23
sg42
I1
sg43
g898
sg44
I0
sg45
I64
sg46
I72
sg34
g1
(g47
g3
Ntp3687
Rp3688
(dp3689
g51
I0
sg40
I1591
sg52
g3685
sg53
I8
sg34
S'PingPingPingPingPingPingPingPingPingPingPingPing'
p3690
sbsg55
Nsg56
I0
sg57
I5
sg58
I4
sg59
I64517
sg52
g3682
sg60
I00
sbsg55
Nsg52
Nsg53
I2048
sg60
I00
sbsbag1
(g2
g3
Ntp3691
Rp3692
(dp3693
g7
g915
sg27
g1
(g28
g3
Ntp3694
Rp3695
(dp3696
g32
g918
sg33
g15
sg34
g1
(g35
g3
Ntp3697
Rp3698
(dp3699
g39
I0
sg40
I34983
sg41
g23
sg42
I1
sg43
g923
sg44
I0
sg45
I64
sg46
I72
sg34
g1
(g47
g3
Ntp3700
Rp3701
(dp3702
g51
I0
sg40
I3639
sg52
g3698
sg53
I0
sg34
S'PingPingPingPingPingPingPingPingPingPingPingPing'
p3703
sbsg55
Nsg56
I0
sg57
I5
sg58
I4
sg59
I64518
sg52
g3695
sg60
I00
sbsg55
Nsg52
Nsg53
I2048
sg60
I00
sbsbag1
(g2
g3
Ntp3704
Rp3705
(dp3706
g7
g940
sg27
g1
(g28
g3
Ntp3707
Rp3708
(dp3709
g32
g943
sg33
g15
sg34
g1
(g35
g3
Ntp3710
Rp3711
(dp3712
g39
I0
sg40
I34729
sg41
g23
sg42
I1
sg43
g948
sg44
I0
sg45
I64
sg46
I72
sg34
g1
(g47
g3
Ntp3713
Rp3714
(dp3715
g51
I0
sg40
I1591
sg52
g3711
sg53
I8
sg34
S'PingPingPingPingPingPingPingPingPingPingPingPing'
p3716
sbsg55
Nsg56
I0
sg57
I5
sg58
I4
sg59
I64519
sg52
g3708
sg60
I00
sbsg55
Nsg52
Nsg53
I2048
sg60
I00
sbsbag1
(g2
g3
Ntp3717
Rp3718
(dp3719
g7
g965
sg27
g1
(g28
g3
Ntp3720
Rp3721
(dp3722
g32
g968
sg33
g15
sg34
g1
(g35
g3
Ntp3723
Rp3724
(dp3725
g39
I0
sg40
I34727
sg41
g23
sg42
I1
sg43
g973
sg44
I0
sg45
I64
sg46
I72
sg34
g1
(g47
g3
Ntp3726
Rp3727
(dp3728
g51
I0
sg40
I1591
sg52
g3724
sg53
I8
sg34
S'PingPingPingPingPingPingPingPingPingPingPingPing'
p3729
sbsg55
Nsg56
I0
sg57
I5
sg58
I4
sg59
I64520
sg52
g3721
sg60
I00
sbsg55
Nsg52
Nsg53
I2048
sg60
I00
sbsbag1
(g2
g3
Ntp3730
Rp3731
(dp3732
g7
g990
sg27
g1
(g28
g3
Ntp3733
Rp3734
(dp3735
g32
g993
sg33
g15
sg34
g1
(g35
g3
Ntp3736
Rp3737
(dp3738
g39
I0
sg40
I34725
sg41
g23
sg42
I1
sg43
g998
sg44
I0
sg45
I64
sg46
I72
sg34
g1
(g47
g3
Ntp3739
Rp3740
(dp3741
g51
I0
sg40
I1591
sg52
g3737
sg53
I8
sg34
S'PingPingPingPingPingPingPingPingPingPingPingPing'
p3742
sbsg55
Nsg56
I0
sg57
I5
sg58
I4
sg59
I64521
sg52
g3734
sg60
I00
sbsg55
Nsg52
Nsg53
I2048
sg60
I00
sbsbag1
(g2
g3
Ntp3743
Rp3744
(dp3745
g7
g1015
sg27
g1
(g28
g3
Ntp3746
Rp3747
(dp3748
g32
g1018
sg33
g15
sg34
g1
(g35
g3
Ntp3749
Rp3750
(dp3751
g39
I0
sg40
I34723
sg41
g23
sg42
I1
sg43
g1023
sg44
I0
sg45
I64
sg46
I72
sg34
g1
(g47
g3
Ntp3752
Rp3753
(dp3754
g51
I0
sg40
I1591
sg52
g3750
sg53
I8
sg34
S'PingPingPingPingPingPingPingPingPingPingPingPing'
p3755
sbsg55
Nsg56
I0
sg57
I5
sg58
I4
sg59
I64522
sg52
g3747
sg60
I00
sbsg55
Nsg52
Nsg53
I2048
sg60
I00
sbsbag1
(g2
g3
Ntp3756
Rp3757
(dp3758
g7
g1040
sg27
g1
(g28
g3
Ntp3759
Rp3760
(dp3761
g32
g1043
sg33
g15
sg34
g1
(g35
g3
Ntp3762
Rp3763
(dp3764
g39
I0
sg40
I34469
sg41
g23
sg42
I1
sg43
g1048
sg44
I0
sg45
I64
sg46
I72
sg34
g1
(g47
g3
Ntp3765
Rp3766
(dp3767
g51
I0
sg40
I3639
sg52
g3763
sg53
I0
sg34
S'PingPingPingPingPingPingPingPingPingPingPingPing'
p3768
sbsg55
Nsg56
I0
sg57
I5
sg58
I4
sg59
I64523
sg52
g3760
sg60
I00
sbsg55
Nsg52
Nsg53
I2048
sg60
I00
sbsbag1
(g2
g3
Ntp3769
Rp3770
(dp3771
g7
g1065
sg27
g1
(g28
g3
Ntp3772
Rp3773
(dp3774
g32
g1068
sg33
g15
sg34
g1
(g35
g3
Ntp3775
Rp3776
(dp3777
g39
I0
sg40
I34467
sg41
g23
sg42
I1
sg43
g1073
sg44
I0
sg45
I64
sg46
I72
sg34
g1
(g47
g3
Ntp3778
Rp3779
(dp3780
g51
I0
sg40
I3639
sg52
g3776
sg53
I0
sg34
S'PingPingPingPingPingPingPingPingPingPingPingPing'
p3781
sbsg55
Nsg56
I0
sg57
I5
sg58
I4
sg59
I64524
sg52
g3773
sg60
I00
sbsg55
Nsg52
Nsg53
I2048
sg60
I00
sbsbag1
(g2
g3
Ntp3782
Rp3783
(dp3784
g7
g1090
sg27
g1
(g28
g3
Ntp3785
Rp3786
(dp3787
g32
g1093
sg33
g15
sg34
g1
(g35
g3
Ntp3788
Rp3789
(dp3790
g39
I0
sg40
I34465
sg41
g23
sg42
I1
sg43
g1098
sg44
I0
sg45
I64
sg46
I72
sg34
g1
(g47
g3
Ntp3791
Rp3792
(dp3793
g51
I0
sg40
I3639
sg52
g3789
sg53
I0
sg34
S'PingPingPingPingPingPingPingPingPingPingPingPing'
p3794
sbsg55
Nsg56
I0
sg57
I5
sg58
I4
sg59
I64525
sg52
g3786
sg60
I00
sbsg55
Nsg52
Nsg53
I2048
sg60
I00
sbsbag1
(g2
g3
Ntp3795
Rp3796
(dp3797
g7
g1115
sg27
g1
(g28
g3
Ntp3798
Rp3799
(dp3800
g32
g1118
sg33
g15
sg34
g1
(g35
g3
Ntp3801
Rp3802
(dp3803
g39
I0
sg40
I34463
sg41
g23
sg42
I1
sg43
g1123
sg44
I0
sg45
I64
sg46
I72
sg34
g1
(g47
g3
Ntp3804
Rp3805
(dp3806
g51
I0
sg40
I3639
sg52
g3802
sg53
I0
sg34
S'PingPingPingPingPingPingPingPingPingPingPingPing'
p3807
sbsg55
Nsg56
I0
sg57
I5
sg58
I4
sg59
I64526
sg52
g3799
sg60
I00
sbsg55
Nsg52
Nsg53
I2048
sg60
I00
sbsbag1
(g2
g3
Ntp3808
Rp3809
(dp3810
g7
g1140
sg27
g1
(g28
g3
Ntp3811
Rp3812
(dp3813
g32
g1143
sg33
g15
sg34
g1
(g35
g3
Ntp3814
Rp3815
(dp3816
g39
I0
sg40
I34209
sg41
g23
sg42
I1
sg43
g1148
sg44
I0
sg45
I64
sg46
I72
sg34
g1
(g47
g3
Ntp3817
Rp3818
(dp3819
g51
I0
sg40
I3639
sg52
g3815
sg53
I0
sg34
S'PingPingPingPingPingPingPingPingPingPingPingPing'
p3820
sbsg55
Nsg56
I0
sg57
I5
sg58
I4
sg59
I64527
sg52
g3812
sg60
I00
sbsg55
Nsg52
Nsg53
I2048
sg60
I00
sbsbag1
(g2
g3
Ntp3821
Rp3822
(dp3823
g7
g1165
sg27
g1
(g28
g3
Ntp3824
Rp3825
(dp3826
g32
g1168
sg33
g15
sg34
g1
(g35
g3
Ntp3827
Rp3828
(dp3829
g39
I0
sg40
I34207
sg41
g23
sg42
I1
sg43
g1173
sg44
I0
sg45
I64
sg46
I72
sg34
g1
(g47
g3
Ntp3830
Rp3831
(dp3832
g51
I0
sg40
I3639
sg52
g3828
sg53
I0
sg34
S'PingPingPingPingPingPingPingPingPingPingPingPing'
p3833
sbsg55
Nsg56
I0
sg57
I5
sg58
I4
sg59
I64528
sg52
g3825
sg60
I00
sbsg55
Nsg52
Nsg53
I2048
sg60
I00
sbsbag1
(g2
g3
Ntp3834
Rp3835
(dp3836
g7
g1190
sg27
g1
(g28
g3
Ntp3837
Rp3838
(dp3839
g32
g1193
sg33
g15
sg34
g1
(g35
g3
Ntp3840
Rp3841
(dp3842
g39
I0
sg40
I34205
sg41
g23
sg42
I1
sg43
g1198
sg44
I0
sg45
I64
sg46
I72
sg34
g1
(g47
g3
Ntp3843
Rp3844
(dp3845
g51
I0
sg40
I1591
sg52
g3841
sg53
I8
sg34
S'PingPingPingPingPingPingPingPingPingPingPingPing'
p3846
sbsg55
Nsg56
I0
sg57
I5
sg58
I4
sg59
I64529
sg52
g3838
sg60
I00
sbsg55
Nsg52
Nsg53
I2048
sg60
I00
sbsbag1
(g2
g3
Ntp3847
Rp3848
(dp3849
g7
g1215
sg27
g1
(g28
g3
Ntp3850
Rp3851
(dp3852
g32
g1218
sg33
g15
sg34
g1
(g35
g3
Ntp3853
Rp3854
(dp3855
g39
I0
sg40
I34203
sg41
g23
sg42
I1
sg43
g1223
sg44
I0
sg45
I64
sg46
I72
sg34
g1
(g47
g3
Ntp3856
Rp3857
(dp3858
g51
I0
sg40
I3639
sg52
g3854
sg53
I0
sg34
S'PingPingPingPingPingPingPingPingPingPingPingPing'
p3859
sbsg55
Nsg56
I0
sg57
I5
sg58
I4
sg59
I64530
sg52
g3851
sg60
I00
sbsg55
Nsg52
Nsg53
I2048
sg60
I00
sbsbag1
(g2
g3
Ntp3860
Rp3861
(dp3862
g7
g1240
sg27
g1
(g28
g3
Ntp3863
Rp3864
(dp3865
g32
g1243
sg33
g15
sg34
g1
(g35
g3
Ntp3866
Rp3867
(dp3868
g39
I0
sg40
I34972
sg41
g23
sg42
I1
sg43
g1248
sg44
I0
sg45
I64
sg46
I72
sg34
g1
(g47
g3
Ntp3869
Rp3870
(dp3871
g51
I0
sg40
I3639
sg52
g3867
sg53
I0
sg34
S'PingPingPingPingPingPingPingPingPingPingPingPing'
p3872
sbsg55
Nsg56
I0
sg57
I5
sg58
I4
sg59
I64531
sg52
g3864
sg60
I00
sbsg55
Nsg52
Nsg53
I2048
sg60
I00
sbsbag1
(g2
g3
Ntp3873
Rp3874
(dp3875
g7
g1265
sg27
g1
(g28
g3
Ntp3876
Rp3877
(dp3878
g32
g1268
sg33
g15
sg34
g1
(g35
g3
Ntp3879
Rp3880
(dp3881
g39
I0
sg40
I34970
sg41
g23
sg42
I1
sg43
g1273
sg44
I0
sg45
I64
sg46
I72
sg34
g1
(g47
g3
Ntp3882
Rp3883
(dp3884
g51
I0
sg40
I1591
sg52
g3880
sg53
I8
sg34
S'PingPingPingPingPingPingPingPingPingPingPingPing'
p3885
sbsg55
Nsg56
I0
sg57
I5
sg58
I4
sg59
I64532
sg52
g3877
sg60
I00
sbsg55
Nsg52
Nsg53
I2048
sg60
I00
sbsbag1
(g2
g3
Ntp3886
Rp3887
(dp3888
g7
g1290
sg27
g1
(g28
g3
Ntp3889
Rp3890
(dp3891
g32
g1293
sg33
g15
sg34
g1
(g35
g3
Ntp3892
Rp3893
(dp3894
g39
I0
sg40
I34968
sg41
g23
sg42
I1
sg43
g1298
sg44
I0
sg45
I64
sg46
I72
sg34
g1
(g47
g3
Ntp3895
Rp3896
(dp3897
g51
I0
sg40
I3639
sg52
g3893
sg53
I0
sg34
S'PingPingPingPingPingPingPingPingPingPingPingPing'
p3898
sbsg55
Nsg56
I0
sg57
I5
sg58
I4
sg59
I64533
sg52
g3890
sg60
I00
sbsg55
Nsg52
Nsg53
I2048
sg60
I00
sbsbag1
(g2
g3
Ntp3899
Rp3900
(dp3901
g7
g1315
sg27
g1
(g28
g3
Ntp3902
Rp3903
(dp3904
g32
g1318
sg33
g15
sg34
g1
(g35
g3
Ntp3905
Rp3906
(dp3907
g39
I0
sg40
I34966
sg41
g23
sg42
I1
sg43
g1323
sg44
I0
sg45
I64
sg46
I72
sg34
g1
(g47
g3
Ntp3908
Rp3909
(dp3910
g51
I0
sg40
I3639
sg52
g3906
sg53
I0
sg34
S'PingPingPingPingPingPingPingPingPingPingPingPing'
p3911
sbsg55
Nsg56
I0
sg57
I5
sg58
I4
sg59
I64534
sg52
g3903
sg60
I00
sbsg55
Nsg52
Nsg53
I2048
sg60
I00
sbsbag1
(g2
g3
Ntp3912
Rp3913
(dp3914
g7
g1340
sg27
g1
(g28
g3
Ntp3915
Rp3916
(dp3917
g32
g1343
sg33
g15
sg34
g1
(g35
g3
Ntp3918
Rp3919
(dp3920
g39
I0
sg40
I34712
sg41
g23
sg42
I1
sg43
g1348
sg44
I0
sg45
I64
sg46
I72
sg34
g1
(g47
g3
Ntp3921
Rp3922
(dp3923
g51
I0
sg40
I1591
sg52
g3919
sg53
I8
sg34
S'PingPingPingPingPingPingPingPingPingPingPingPing'
p3924
sbsg55
Nsg56
I0
sg57
I5
sg58
I4
sg59
I64535
sg52
g3916
sg60
I00
sbsg55
Nsg52
Nsg53
I2048
sg60
I00
sbsbag1
(g2
g3
Ntp3925
Rp3926
(dp3927
g7
g1365
sg27
g1
(g28
g3
Ntp3928
Rp3929
(dp3930
g32
g1368
sg33
g15
sg34
g1
(g35
g3
Ntp3931
Rp3932
(dp3933
g39
I0
sg40
I34710
sg41
g23
sg42
I1
sg43
g1373
sg44
I0
sg45
I64
sg46
I72
sg34
g1
(g47
g3
Ntp3934
Rp3935
(dp3936
g51
I0
sg40
I1591
sg52
g3932
sg53
I8
sg34
S'PingPingPingPingPingPingPingPingPingPingPingPing'
p3937
sbsg55
Nsg56
I0
sg57
I5
sg58
I4
sg59
I64536
sg52
g3929
sg60
I00
sbsg55
Nsg52
Nsg53
I2048
sg60
I00
sbsbag1
(g2
g3
Ntp3938
Rp3939
(dp3940
g7
g1390
sg27
g1
(g28
g3
Ntp3941
Rp3942
(dp3943
g32
g1393
sg33
g15
sg34
g1
(g35
g3
Ntp3944
Rp3945
(dp3946
g39
I0
sg40
I34708
sg41
g23
sg42
I1
sg43
g1398
sg44
I0
sg45
I64
sg46
I72
sg34
g1
(g47
g3
Ntp3947
Rp3948
(dp3949
g51
I0
sg40
I1591
sg52
g3945
sg53
I8
sg34
S'PingPingPingPingPingPingPingPingPingPingPingPing'
p3950
sbsg55
Nsg56
I0
sg57
I5
sg58
I4
sg59
I64537
sg52
g3942
sg60
I00
sbsg55
Nsg52
Nsg53
I2048
sg60
I00
sbsbag1
(g2
g3
Ntp3951
Rp3952
(dp3953
g7
g1415
sg27
g1
(g28
g3
Ntp3954
Rp3955
(dp3956
g32
g1418
sg33
g15
sg34
g1
(g35
g3
Ntp3957
Rp3958
(dp3959
g39
I0
sg40
I34706
sg41
g23
sg42
I1
sg43
g1423
sg44
I0
sg45
I64
sg46
I72
sg34
g1
(g47
g3
Ntp3960
Rp3961
(dp3962
g51
I0
sg40
I3639
sg52
g3958
sg53
I0
sg34
S'PingPingPingPingPingPingPingPingPingPingPingPing'
p3963
sbsg55
Nsg56
I0
sg57
I5
sg58
I4
sg59
I64538
sg52
g3955
sg60
I00
sbsg55
Nsg52
Nsg53
I2048
sg60
I00
sbsbag1
(g2
g3
Ntp3964
Rp3965
(dp3966
g7
g1440
sg27
g1
(g28
g3
Ntp3967
Rp3968
(dp3969
g32
g1443
sg33
g15
sg34
g1
(g35
g3
Ntp3970
Rp3971
(dp3972
g39
I0
sg40
I34452
sg41
g23
sg42
I1
sg43
g1448
sg44
I0
sg45
I64
sg46
I72
sg34
g1
(g47
g3
Ntp3973
Rp3974
(dp3975
g51
I0
sg40
I3639
sg52
g3971
sg53
I0
sg34
S'PingPingPingPingPingPingPingPingPingPingPingPing'
p3976
sbsg55
Nsg56
I0
sg57
I5
sg58
I4
sg59
I64539
sg52
g3968
sg60
I00
sbsg55
Nsg52
Nsg53
I2048
sg60
I00
sbsbag1
(g2
g3
Ntp3977
Rp3978
(dp3979
g7
g1465
sg27
g1
(g28
g3
Ntp3980
Rp3981
(dp3982
g32
g1468
sg33
g15
sg34
g1
(g35
g3
Ntp3983
Rp3984
(dp3985
g39
I0
sg40
I34450
sg41
g23
sg42
I1
sg43
g1473
sg44
I0
sg45
I64
sg46
I72
sg34
g1
(g47
g3
Ntp3986
Rp3987
(dp3988
g51
I0
sg40
I1591
sg52
g3984
sg53
I8
sg34
S'PingPingPingPingPingPingPingPingPingPingPingPing'
p3989
sbsg55
Nsg56
I0
sg57
I5
sg58
I4
sg59
I64540
sg52
g3981
sg60
I00
sbsg55
Nsg52
Nsg53
I2048
sg60
I00
sbsbag1
(g2
g3
Ntp3990
Rp3991
(dp3992
g7
g1490
sg27
g1
(g28
g3
Ntp3993
Rp3994
(dp3995
g32
g1493
sg33
g15
sg34
g1
(g35
g3
Ntp3996
Rp3997
(dp3998
g39
I0
sg40
I34448
sg41
g23
sg42
I1
sg43
g1498
sg44
I0
sg45
I64
sg46
I72
sg34
g1
(g47
g3
Ntp3999
Rp4000
(dp4001
g51
I0
sg40
I3639
sg52
g3997
sg53
I0
sg34
S'PingPingPingPingPingPingPingPingPingPingPingPing'
p4002
sbsg55
Nsg56
I0
sg57
I5
sg58
I4
sg59
I64541
sg52
g3994
sg60
I00
sbsg55
Nsg52
Nsg53
I2048
sg60
I00
sbsbag1
(g2
g3
Ntp4003
Rp4004
(dp4005
g7
g1515
sg27
g1
(g28
g3
Ntp4006
Rp4007
(dp4008
g32
g1518
sg33
g15
sg34
g1
(g35
g3
Ntp4009
Rp4010
(dp4011
g39
I0
sg40
I34446
sg41
g23
sg42
I1
sg43
g1523
sg44
I0
sg45
I64
sg46
I72
sg34
g1
(g47
g3
Ntp4012
Rp4013
(dp4014
g51
I0
sg40
I3639
sg52
g4010
sg53
I0
sg34
S'PingPingPingPingPingPingPingPingPingPingPingPing'
p4015
sbsg55
Nsg56
I0
sg57
I5
sg58
I4
sg59
I64542
sg52
g4007
sg60
I00
sbsg55
Nsg52
Nsg53
I2048
sg60
I00
sbsbag1
(g2
g3
Ntp4016
Rp4017
(dp4018
g7
g1540
sg27
g1
(g28
g3
Ntp4019
Rp4020
(dp4021
g32
g1543
sg33
g15
sg34
g1
(g35
g3
Ntp4022
Rp4023
(dp4024
g39
I0
sg40
I34192
sg41
g23
sg42
I1
sg43
g1548
sg44
I0
sg45
I64
sg46
I72
sg34
g1
(g47
g3
Ntp4025
Rp4026
(dp4027
g51
I0
sg40
I3639
sg52
g4023
sg53
I0
sg34
S'PingPingPingPingPingPingPingPingPingPingPingPing'
p4028
sbsg55
Nsg56
I0
sg57
I5
sg58
I4
sg59
I64543
sg52
g4020
sg60
I00
sbsg55
Nsg52
Nsg53
I2048
sg60
I00
sbsbag1
(g2
g3
Ntp4029
Rp4030
(dp4031
g7
g1565
sg27
g1
(g28
g3
Ntp4032
Rp4033
(dp4034
g32
g1568
sg33
g15
sg34
g1
(g35
g3
Ntp4035
Rp4036
(dp4037
g39
I0
sg40
I34190
sg41
g23
sg42
I1
sg43
g1573
sg44
I0
sg45
I64
sg46
I72
sg34
g1
(g47
g3
Ntp4038
Rp4039
(dp4040
g51
I0
sg40
I1591
sg52
g4036
sg53
I8
sg34
S'PingPingPingPingPingPingPingPingPingPingPingPing'
p4041
sbsg55
Nsg56
I0
sg57
I5
sg58
I4
sg59
I64544
sg52
g4033
sg60
I00
sbsg55
Nsg52
Nsg53
I2048
sg60
I00
sbsbag1
(g2
g3
Ntp4042
Rp4043
(dp4044
g7
g1590
sg27
g1
(g28
g3
Ntp4045
Rp4046
(dp4047
g32
g1593
sg33
g15
sg34
g1
(g35
g3
Ntp4048
Rp4049
(dp4050
g39
I0
sg40
I34188
sg41
g23
sg42
I1
sg43
g1598
sg44
I0
sg45
I64
sg46
I72
sg34
g1
(g47
g3
Ntp4051
Rp4052
(dp4053
g51
I0
sg40
I3639
sg52
g4049
sg53
I0
sg34
S'PingPingPingPingPingPingPingPingPingPingPingPing'
p4054
sbsg55
Nsg56
I0
sg57
I5
sg58
I4
sg59
I64545
sg52
g4046
sg60
I00
sbsg55
Nsg52
Nsg53
I2048
sg60
I00
sbsbag1
(g2
g3
Ntp4055
Rp4056
(dp4057
g7
g1615
sg27
g1
(g28
g3
Ntp4058
Rp4059
(dp4060
g32
g1618
sg33
g15
sg34
g1
(g35
g3
Ntp4061
Rp4062
(dp4063
g39
I0
sg40
I34186
sg41
g23
sg42
I1
sg43
g1623
sg44
I0
sg45
I64
sg46
I72
sg34
g1
(g47
g3
Ntp4064
Rp4065
(dp4066
g51
I0
sg40
I1591
sg52
g4062
sg53
I8
sg34
S'PingPingPingPingPingPingPingPingPingPingPingPing'
p4067
sbsg55
Nsg56
I0
sg57
I5
sg58
I4
sg59
I64546
sg52
g4059
sg60
I00
sbsg55
Nsg52
Nsg53
I2048
sg60
I00
sbsbag1
(g2
g3
Ntp4068
Rp4069
(dp4070
g7
g1640
sg27
g1
(g28
g3
Ntp4071
Rp4072
(dp4073
g32
g1643
sg33
g15
sg34
g1
(g35
g3
Ntp4074
Rp4075
(dp4076
g39
I0
sg40
I34955
sg41
g23
sg42
I1
sg43
g1648
sg44
I0
sg45
I64
sg46
I72
sg34
g1
(g47
g3
Ntp4077
Rp4078
(dp4079
g51
I0
sg40
I1591
sg52
g4075
sg53
I8
sg34
S'PingPingPingPingPingPingPingPingPingPingPingPing'
p4080
sbsg55
Nsg56
I0
sg57
I5
sg58
I4
sg59
I64547
sg52
g4072
sg60
I00
sbsg55
Nsg52
Nsg53
I2048
sg60
I00
sbsbag1
(g2
g3
Ntp4081
Rp4082
(dp4083
g7
g1665
sg27
g1
(g28
g3
Ntp4084
Rp4085
(dp4086
g32
g1668
sg33
g15
sg34
g1
(g35
g3
Ntp4087
Rp4088
(dp4089
g39
I0
sg40
I34953
sg41
g23
sg42
I1
sg43
g1673
sg44
I0
sg45
I64
sg46
I72
sg34
g1
(g47
g3
Ntp4090
Rp4091
(dp4092
g51
I0
sg40
I3639
sg52
g4088
sg53
I0
sg34
S'PingPingPingPingPingPingPingPingPingPingPingPing'
p4093
sbsg55
Nsg56
I0
sg57
I5
sg58
I4
sg59
I64548
sg52
g4085
sg60
I00
sbsg55
Nsg52
Nsg53
I2048
sg60
I00
sbsbag1
(g2
g3
Ntp4094
Rp4095
(dp4096
g7
g1690
sg27
g1
(g28
g3
Ntp4097
Rp4098
(dp4099
g32
g1693
sg33
g15
sg34
g1
(g35
g3
Ntp4100
Rp4101
(dp4102
g39
I0
sg40
I34951
sg41
g23
sg42
I1
sg43
g1698
sg44
I0
sg45
I64
sg46
I72
sg34
g1
(g47
g3
Ntp4103
Rp4104
(dp4105
g51
I0
sg40
I1591
sg52
g4101
sg53
I8
sg34
S'PingPingPingPingPingPingPingPingPingPingPingPing'
p4106
sbsg55
Nsg56
I0
sg57
I5
sg58
I4
sg59
I64549
sg52
g4098
sg60
I00
sbsg55
Nsg52
Nsg53
I2048
sg60
I00
sbsbag1
(g2
g3
Ntp4107
Rp4108
(dp4109
g7
g1715
sg27
g1
(g28
g3
Ntp4110
Rp4111
(dp4112
g32
g1718
sg33
g15
sg34
g1
(g35
g3
Ntp4113
Rp4114
(dp4115
g39
I0
sg40
I34949
sg41
g23
sg42
I1
sg43
g1723
sg44
I0
sg45
I64
sg46
I72
sg34
g1
(g47
g3
Ntp4116
Rp4117
(dp4118
g51
I0
sg40
I1591
sg52
g4114
sg53
I8
sg34
S'PingPingPingPingPingPingPingPingPingPingPingPing'
p4119
sbsg55
Nsg56
I0
sg57
I5
sg58
I4
sg59
I64550
sg52
g4111
sg60
I00
sbsg55
Nsg52
Nsg53
I2048
sg60
I00
sbsbag1
(g2
g3
Ntp4120
Rp4121
(dp4122
g7
g1740
sg27
g1
(g28
g3
Ntp4123
Rp4124
(dp4125
g32
g1743
sg33
g15
sg34
g1
(g35
g3
Ntp4126
Rp4127
(dp4128
g39
I0
sg40
I34695
sg41
g23
sg42
I1
sg43
g1748
sg44
I0
sg45
I64
sg46
I72
sg34
g1
(g47
g3
Ntp4129
Rp4130
(dp4131
g51
I0
sg40
I1591
sg52
g4127
sg53
I8
sg34
S'PingPingPingPingPingPingPingPingPingPingPingPing'
p4132
sbsg55
Nsg56
I0
sg57
I5
sg58
I4
sg59
I64551
sg52
g4124
sg60
I00
sbsg55
Nsg52
Nsg53
I2048
sg60
I00
sbsbag1
(g2
g3
Ntp4133
Rp4134
(dp4135
g7
g1765
sg27
g1
(g28
g3
Ntp4136
Rp4137
(dp4138
g32
g1768
sg33
g15
sg34
g1
(g35
g3
Ntp4139
Rp4140
(dp4141
g39
I0
sg40
I34693
sg41
g23
sg42
I1
sg43
g1773
sg44
I0
sg45
I64
sg46
I72
sg34
g1
(g47
g3
Ntp4142
Rp4143
(dp4144
g51
I0
sg40
I3639
sg52
g4140
sg53
I0
sg34
S'PingPingPingPingPingPingPingPingPingPingPingPing'
p4145
sbsg55
Nsg56
I0
sg57
I5
sg58
I4
sg59
I64552
sg52
g4137
sg60
I00
sbsg55
Nsg52
Nsg53
I2048
sg60
I00
sbsbag1
(g2
g3
Ntp4146
Rp4147
(dp4148
g7
g1790
sg27
g1
(g28
g3
Ntp4149
Rp4150
(dp4151
g32
g1793
sg33
g15
sg34
g1
(g35
g3
Ntp4152
Rp4153
(dp4154
g39
I0
sg40
I34691
sg41
g23
sg42
I1
sg43
g1798
sg44
I0
sg45
I64
sg46
I72
sg34
g1
(g47
g3
Ntp4155
Rp4156
(dp4157
g51
I0
sg40
I1591
sg52
g4153
sg53
I8
sg34
S'PingPingPingPingPingPingPingPingPingPingPingPing'
p4158
sbsg55
Nsg56
I0
sg57
I5
sg58
I4
sg59
I64553
sg52
g4150
sg60
I00
sbsg55
Nsg52
Nsg53
I2048
sg60
I00
sbsbag1
(g2
g3
Ntp4159
Rp4160
(dp4161
g7
g1815
sg27
g1
(g28
g3
Ntp4162
Rp4163
(dp4164
g32
g1818
sg33
g15
sg34
g1
(g35
g3
Ntp4165
Rp4166
(dp4167
g39
I0
sg40
I34689
sg41
g23
sg42
I1
sg43
g1823
sg44
I0
sg45
I64
sg46
I72
sg34
g1
(g47
g3
Ntp4168
Rp4169
(dp4170
g51
I0
sg40
I1591
sg52
g4166
sg53
I8
sg34
S'PingPingPingPingPingPingPingPingPingPingPingPing'
p4171
sbsg55
Nsg56
I0
sg57
I5
sg58
I4
sg59
I64554
sg52
g4163
sg60
I00
sbsg55
Nsg52
Nsg53
I2048
sg60
I00
sbsbag1
(g2
g3
Ntp4172
Rp4173
(dp4174
g7
g1840
sg27
g1
(g28
g3
Ntp4175
Rp4176
(dp4177
g32
g1843
sg33
g15
sg34
g1
(g35
g3
Ntp4178
Rp4179
(dp4180
g39
I0
sg40
I34435
sg41
g23
sg42
I1
sg43
g1848
sg44
I0
sg45
I64
sg46
I72
sg34
g1
(g47
g3
Ntp4181
Rp4182
(dp4183
g51
I0
sg40
I1591
sg52
g4179
sg53
I8
sg34
S'PingPingPingPingPingPingPingPingPingPingPingPing'
p4184
sbsg55
Nsg56
I0
sg57
I5
sg58
I4
sg59
I64555
sg52
g4176
sg60
I00
sbsg55
Nsg52
Nsg53
I2048
sg60
I00
sbsbag1
(g2
g3
Ntp4185
Rp4186
(dp4187
g7
g1865
sg27
g1
(g28
g3
Ntp4188
Rp4189
(dp4190
g32
g1868
sg33
g15
sg34
g1
(g35
g3
Ntp4191
Rp4192
(dp4193
g39
I0
sg40
I34433
sg41
g23
sg42
I1
sg43
g1873
sg44
I0
sg45
I64
sg46
I72
sg34
g1
(g47
g3
Ntp4194
Rp4195
(dp4196
g51
I0
sg40
I3639
sg52
g4192
sg53
I0
sg34
S'PingPingPingPingPingPingPingPingPingPingPingPing'
p4197
sbsg55
Nsg56
I0
sg57
I5
sg58
I4
sg59
I64556
sg52
g4189
sg60
I00
sbsg55
Nsg52
Nsg53
I2048
sg60
I00
sbsbag1
(g2
g3
Ntp4198
Rp4199
(dp4200
g7
g1890
sg27
g1
(g28
g3
Ntp4201
Rp4202
(dp4203
g32
g1893
sg33
g15
sg34
g1
(g35
g3
Ntp4204
Rp4205
(dp4206
g39
I0
sg40
I34431
sg41
g23
sg42
I1
sg43
g1898
sg44
I0
sg45
I64
sg46
I72
sg34
g1
(g47
g3
Ntp4207
Rp4208
(dp4209
g51
I0
sg40
I3639
sg52
g4205
sg53
I0
sg34
S'PingPingPingPingPingPingPingPingPingPingPingPing'
p4210
sbsg55
Nsg56
I0
sg57
I5
sg58
I4
sg59
I64557
sg52
g4202
sg60
I00
sbsg55
Nsg52
Nsg53
I2048
sg60
I00
sbsbag1
(g2
g3
Ntp4211
Rp4212
(dp4213
g7
g1915
sg27
g1
(g28
g3
Ntp4214
Rp4215
(dp4216
g32
g1918
sg33
g15
sg34
g1
(g35
g3
Ntp4217
Rp4218
(dp4219
g39
I0
sg40
I34429
sg41
g23
sg42
I1
sg43
g1923
sg44
I0
sg45
I64
sg46
I72
sg34
g1
(g47
g3
Ntp4220
Rp4221
(dp4222
g51
I0
sg40
I1591
sg52
g4218
sg53
I8
sg34
S'PingPingPingPingPingPingPingPingPingPingPingPing'
p4223
sbsg55
Nsg56
I0
sg57
I5
sg58
I4
sg59
I64558
sg52
g4215
sg60
I00
sbsg55
Nsg52
Nsg53
I2048
sg60
I00
sbsbag1
(g2
g3
Ntp4224
Rp4225
(dp4226
g7
g1940
sg27
g1
(g28
g3
Ntp4227
Rp4228
(dp4229
g32
g1943
sg33
g15
sg34
g1
(g35
g3
Ntp4230
Rp4231
(dp4232
g39
I0
sg40
I34175
sg41
g23
sg42
I1
sg43
g1948
sg44
I0
sg45
I64
sg46
I72
sg34
g1
(g47
g3
Ntp4233
Rp4234
(dp4235
g51
I0
sg40
I1591
sg52
g4231
sg53
I8
sg34
S'PingPingPingPingPingPingPingPingPingPingPingPing'
p4236
sbsg55
Nsg56
I0
sg57
I5
sg58
I4
sg59
I64559
sg52
g4228
sg60
I00
sbsg55
Nsg52
Nsg53
I2048
sg60
I00
sbsbag1
(g2
g3
Ntp4237
Rp4238
(dp4239
g7
g1965
sg27
g1
(g28
g3
Ntp4240
Rp4241
(dp4242
g32
g1968
sg33
g15
sg34
g1
(g35
g3
Ntp4243
Rp4244
(dp4245
g39
I0
sg40
I34173
sg41
g23
sg42
I1
sg43
g1973
sg44
I0
sg45
I64
sg46
I72
sg34
g1
(g47
g3
Ntp4246
Rp4247
(dp4248
g51
I0
sg40
I1591
sg52
g4244
sg53
I8
sg34
S'PingPingPingPingPingPingPingPingPingPingPingPing'
p4249
sbsg55
Nsg56
I0
sg57
I5
sg58
I4
sg59
I64560
sg52
g4241
sg60
I00
sbsg55
Nsg52
Nsg53
I2048
sg60
I00
sbsbag1
(g2
g3
Ntp4250
Rp4251
(dp4252
g7
g1990
sg27
g1
(g28
g3
Ntp4253
Rp4254
(dp4255
g32
g1993
sg33
g15
sg34
g1
(g35
g3
Ntp4256
Rp4257
(dp4258
g39
I0
sg40
I34171
sg41
g23
sg42
I1
sg43
g1998
sg44
I0
sg45
I64
sg46
I72
sg34
g1
(g47
g3
Ntp4259
Rp4260
(dp4261
g51
I0
sg40
I3639
sg52
g4257
sg53
I0
sg34
S'PingPingPingPingPingPingPingPingPingPingPingPing'
p4262
sbsg55
Nsg56
I0
sg57
I5
sg58
I4
sg59
I64561
sg52
g4254
sg60
I00
sbsg55
Nsg52
Nsg53
I2048
sg60
I00
sbsbag1
(g2
g3
Ntp4263
Rp4264
(dp4265
g7
g2015
sg27
g1
(g28
g3
Ntp4266
Rp4267
(dp4268
g32
g2018
sg33
g15
sg34
g1
(g35
g3
Ntp4269
Rp4270
(dp4271
g39
I0
sg40
I34169
sg41
g23
sg42
I1
sg43
g2023
sg44
I0
sg45
I64
sg46
I72
sg34
g1
(g47
g3
Ntp4272
Rp4273
(dp4274
g51
I0
sg40
I3639
sg52
g4270
sg53
I0
sg34
S'PingPingPingPingPingPingPingPingPingPingPingPing'
p4275
sbsg55
Nsg56
I0
sg57
I5
sg58
I4
sg59
I64562
sg52
g4267
sg60
I00
sbsg55
Nsg52
Nsg53
I2048
sg60
I00
sbsbag1
(g2
g3
Ntp4276
Rp4277
(dp4278
g7
g2040
sg27
g1
(g28
g3
Ntp4279
Rp4280
(dp4281
g32
g2043
sg33
g15
sg34
g1
(g35
g3
Ntp4282
Rp4283
(dp4284
g39
I0
sg40
I34938
sg41
g23
sg42
I1
sg43
g2048
sg44
I0
sg45
I64
sg46
I72
sg34
g1
(g47
g3
Ntp4285
Rp4286
(dp4287
g51
I0
sg40
I3639
sg52
g4283
sg53
I0
sg34
S'PingPingPingPingPingPingPingPingPingPingPingPing'
p4288
sbsg55
Nsg56
I0
sg57
I5
sg58
I4
sg59
I64563
sg52
g4280
sg60
I00
sbsg55
Nsg52
Nsg53
I2048
sg60
I00
sbsbag1
(g2
g3
Ntp4289
Rp4290
(dp4291
g7
g2065
sg27
g1
(g28
g3
Ntp4292
Rp4293
(dp4294
g32
g2068
sg33
g15
sg34
g1
(g35
g3
Ntp4295
Rp4296
(dp4297
g39
I0
sg40
I34936
sg41
g23
sg42
I1
sg43
g2073
sg44
I0
sg45
I64
sg46
I72
sg34
g1
(g47
g3
Ntp4298
Rp4299
(dp4300
g51
I0
sg40
I3639
sg52
g4296
sg53
I0
sg34
S'PingPingPingPingPingPingPingPingPingPingPingPing'
p4301
sbsg55
Nsg56
I0
sg57
I5
sg58
I4
sg59
I64564
sg52
g4293
sg60
I00
sbsg55
Nsg52
Nsg53
I2048
sg60
I00
sbsbag1
(g2
g3
Ntp4302
Rp4303
(dp4304
g7
g2090
sg27
g1
(g28
g3
Ntp4305
Rp4306
(dp4307
g32
g2093
sg33
g15
sg34
g1
(g35
g3
Ntp4308
Rp4309
(dp4310
g39
I0
sg40
I34934
sg41
g23
sg42
I1
sg43
g2098
sg44
I0
sg45
I64
sg46
I72
sg34
g1
(g47
g3
Ntp4311
Rp4312
(dp4313
g51
I0
sg40
I3639
sg52
g4309
sg53
I0
sg34
S'PingPingPingPingPingPingPingPingPingPingPingPing'
p4314
sbsg55
Nsg56
I0
sg57
I5
sg58
I4
sg59
I64565
sg52
g4306
sg60
I00
sbsg55
Nsg52
Nsg53
I2048
sg60
I00
sbsbag1
(g2
g3
Ntp4315
Rp4316
(dp4317
g7
g2115
sg27
g1
(g28
g3
Ntp4318
Rp4319
(dp4320
g32
g2118
sg33
g15
sg34
g1
(g35
g3
Ntp4321
Rp4322
(dp4323
g39
I0
sg40
I34932
sg41
g23
sg42
I1
sg43
g2123
sg44
I0
sg45
I64
sg46
I72
sg34
g1
(g47
g3
Ntp4324
Rp4325
(dp4326
g51
I0
sg40
I1591
sg52
g4322
sg53
I8
sg34
S'PingPingPingPingPingPingPingPingPingPingPingPing'
p4327
sbsg55
Nsg56
I0
sg57
I5
sg58
I4
sg59
I64566
sg52
g4319
sg60
I00
sbsg55
Nsg52
Nsg53
I2048
sg60
I00
sbsbag1
(g2
g3
Ntp4328
Rp4329
(dp4330
g7
g2140
sg27
g1
(g28
g3
Ntp4331
Rp4332
(dp4333
g32
g2143
sg33
g15
sg34
g1
(g35
g3
Ntp4334
Rp4335
(dp4336
g39
I0
sg40
I34678
sg41
g23
sg42
I1
sg43
g2148
sg44
I0
sg45
I64
sg46
I72
sg34
g1
(g47
g3
Ntp4337
Rp4338
(dp4339
g51
I0
sg40
I3639
sg52
g4335
sg53
I0
sg34
S'PingPingPingPingPingPingPingPingPingPingPingPing'
p4340
sbsg55
Nsg56
I0
sg57
I5
sg58
I4
sg59
I64567
sg52
g4332
sg60
I00
sbsg55
Nsg52
Nsg53
I2048
sg60
I00
sbsbag1
(g2
g3
Ntp4341
Rp4342
(dp4343
g7
g2165
sg27
g1
(g28
g3
Ntp4344
Rp4345
(dp4346
g32
g2168
sg33
g15
sg34
g1
(g35
g3
Ntp4347
Rp4348
(dp4349
g39
I0
sg40
I34676
sg41
g23
sg42
I1
sg43
g2173
sg44
I0
sg45
I64
sg46
I72
sg34
g1
(g47
g3
Ntp4350
Rp4351
(dp4352
g51
I0
sg40
I3639
sg52
g4348
sg53
I0
sg34
S'PingPingPingPingPingPingPingPingPingPingPingPing'
p4353
sbsg55
Nsg56
I0
sg57
I5
sg58
I4
sg59
I64568
sg52
g4345
sg60
I00
sbsg55
Nsg52
Nsg53
I2048
sg60
I00
sbsbag1
(g2
g3
Ntp4354
Rp4355
(dp4356
g7
g2190
sg27
g1
(g28
g3
Ntp4357
Rp4358
(dp4359
g32
g2193
sg33
g15
sg34
g1
(g35
g3
Ntp4360
Rp4361
(dp4362
g39
I0
sg40
I34674
sg41
g23
sg42
I1
sg43
g2198
sg44
I0
sg45
I64
sg46
I72
sg34
g1
(g47
g3
Ntp4363
Rp4364
(dp4365
g51
I0
sg40
I1591
sg52
g4361
sg53
I8
sg34
S'PingPingPingPingPingPingPingPingPingPingPingPing'
p4366
sbsg55
Nsg56
I0
sg57
I5
sg58
I4
sg59
I64569
sg52
g4358
sg60
I00
sbsg55
Nsg52
Nsg53
I2048
sg60
I00
sbsbag1
(g2
g3
Ntp4367
Rp4368
(dp4369
g7
g2215
sg27
g1
(g28
g3
Ntp4370
Rp4371
(dp4372
g32
g2218
sg33
g15
sg34
g1
(g35
g3
Ntp4373
Rp4374
(dp4375
g39
I0
sg40
I34672
sg41
g23
sg42
I1
sg43
g2223
sg44
I0
sg45
I64
sg46
I72
sg34
g1
(g47
g3
Ntp4376
Rp4377
(dp4378
g51
I0
sg40
I3639
sg52
g4374
sg53
I0
sg34
S'PingPingPingPingPingPingPingPingPingPingPingPing'
p4379
sbsg55
Nsg56
I0
sg57
I5
sg58
I4
sg59
I64570
sg52
g4371
sg60
I00
sbsg55
Nsg52
Nsg53
I2048
sg60
I00
sbsbag1
(g2
g3
Ntp4380
Rp4381
(dp4382
g7
g2240
sg27
g1
(g28
g3
Ntp4383
Rp4384
(dp4385
g32
g2243
sg33
g15
sg34
g1
(g35
g3
Ntp4386
Rp4387
(dp4388
g39
I0
sg40
I34418
sg41
g23
sg42
I1
sg43
g2248
sg44
I0
sg45
I64
sg46
I72
sg34
g1
(g47
g3
Ntp4389
Rp4390
(dp4391
g51
I0
sg40
I1591
sg52
g4387
sg53
I8
sg34
S'PingPingPingPingPingPingPingPingPingPingPingPing'
p4392
sbsg55
Nsg56
I0
sg57
I5
sg58
I4
sg59
I64571
sg52
g4384
sg60
I00
sbsg55
Nsg52
Nsg53
I2048
sg60
I00
sbsbag1
(g2
g3
Ntp4393
Rp4394
(dp4395
g7
g2265
sg27
g1
(g28
g3
Ntp4396
Rp4397
(dp4398
g32
g2268
sg33
g15
sg34
g1
(g35
g3
Ntp4399
Rp4400
(dp4401
g39
I0
sg40
I34416
sg41
g23
sg42
I1
sg43
g2273
sg44
I0
sg45
I64
sg46
I72
sg34
g1
(g47
g3
Ntp4402
Rp4403
(dp4404
g51
I0
sg40
I1591
sg52
g4400
sg53
I8
sg34
S'PingPingPingPingPingPingPingPingPingPingPingPing'
p4405
sbsg55
Nsg56
I0
sg57
I5
sg58
I4
sg59
I64572
sg52
g4397
sg60
I00
sbsg55
Nsg52
Nsg53
I2048
sg60
I00
sbsbag1
(g2
g3
Ntp4406
Rp4407
(dp4408
g7
g2290
sg27
g1
(g28
g3
Ntp4409
Rp4410
(dp4411
g32
g2293
sg33
g15
sg34
g1
(g35
g3
Ntp4412
Rp4413
(dp4414
g39
I0
sg40
I34414
sg41
g23
sg42
I1
sg43
g2298
sg44
I0
sg45
I64
sg46
I72
sg34
g1
(g47
g3
Ntp4415
Rp4416
(dp4417
g51
I0
sg40
I1591
sg52
g4413
sg53
I8
sg34
S'PingPingPingPingPingPingPingPingPingPingPingPing'
p4418
sbsg55
Nsg56
I0
sg57
I5
sg58
I4
sg59
I64573
sg52
g4410
sg60
I00
sbsg55
Nsg52
Nsg53
I2048
sg60
I00
sbsbag1
(g2
g3
Ntp4419
Rp4420
(dp4421
g7
g2315
sg27
g1
(g28
g3
Ntp4422
Rp4423
(dp4424
g32
g2318
sg33
g15
sg34
g1
(g35
g3
Ntp4425
Rp4426
(dp4427
g39
I0
sg40
I34412
sg41
g23
sg42
I1
sg43
g2323
sg44
I0
sg45
I64
sg46
I72
sg34
g1
(g47
g3
Ntp4428
Rp4429
(dp4430
g51
I0
sg40
I3639
sg52
g4426
sg53
I0
sg34
S'PingPingPingPingPingPingPingPingPingPingPingPing'
p4431
sbsg55
Nsg56
I0
sg57
I5
sg58
I4
sg59
I64574
sg52
g4423
sg60
I00
sbsg55
Nsg52
Nsg53
I2048
sg60
I00
sbsbag1
(g2
g3
Ntp4432
Rp4433
(dp4434
g7
g2340
sg27
g1
(g28
g3
Ntp4435
Rp4436
(dp4437
g32
g2343
sg33
g15
sg34
g1
(g35
g3
Ntp4438
Rp4439
(dp4440
g39
I0
sg40
I34158
sg41
g23
sg42
I1
sg43
g2348
sg44
I0
sg45
I64
sg46
I72
sg34
g1
(g47
g3
Ntp4441
Rp4442
(dp4443
g51
I0
sg40
I1591
sg52
g4439
sg53
I8
sg34
S'PingPingPingPingPingPingPingPingPingPingPingPing'
p4444
sbsg55
Nsg56
I0
sg57
I5
sg58
I4
sg59
I64575
sg52
g4436
sg60
I00
sbsg55
Nsg52
Nsg53
I2048
sg60
I00
sbsbag1
(g2
g3
Ntp4445
Rp4446
(dp4447
g7
g2365
sg27
g1
(g28
g3
Ntp4448
Rp4449
(dp4450
g32
g2368
sg33
g15
sg34
g1
(g35
g3
Ntp4451
Rp4452
(dp4453
g39
I0
sg40
I34156
sg41
g23
sg42
I1
sg43
g2373
sg44
I0
sg45
I64
sg46
I72
sg34
g1
(g47
g3
Ntp4454
Rp4455
(dp4456
g51
I0
sg40
I3639
sg52
g4452
sg53
I0
sg34
S'PingPingPingPingPingPingPingPingPingPingPingPing'
p4457
sbsg55
Nsg56
I0
sg57
I5
sg58
I4
sg59
I64576
sg52
g4449
sg60
I00
sbsg55
Nsg52
Nsg53
I2048
sg60
I00
sbsbag1
(g2
g3
Ntp4458
Rp4459
(dp4460
g7
g2390
sg27
g1
(g28
g3
Ntp4461
Rp4462
(dp4463
g32
g2393
sg33
g15
sg34
g1
(g35
g3
Ntp4464
Rp4465
(dp4466
g39
I0
sg40
I34154
sg41
g23
sg42
I1
sg43
g2398
sg44
I0
sg45
I64
sg46
I72
sg34
g1
(g47
g3
Ntp4467
Rp4468
(dp4469
g51
I0
sg40
I3639
sg52
g4465
sg53
I0
sg34
S'PingPingPingPingPingPingPingPingPingPingPingPing'
p4470
sbsg55
Nsg56
I0
sg57
I5
sg58
I4
sg59
I64577
sg52
g4462
sg60
I00
sbsg55
Nsg52
Nsg53
I2048
sg60
I00
sbsbag1
(g2
g3
Ntp4471
Rp4472
(dp4473
g7
g2415
sg27
g1
(g28
g3
Ntp4474
Rp4475
(dp4476
g32
g2418
sg33
g15
sg34
g1
(g35
g3
Ntp4477
Rp4478
(dp4479
g39
I0
sg40
I34152
sg41
g23
sg42
I1
sg43
g2423
sg44
I0
sg45
I64
sg46
I72
sg34
g1
(g47
g3
Ntp4480
Rp4481
(dp4482
g51
I0
sg40
I1591
sg52
g4478
sg53
I8
sg34
S'PingPingPingPingPingPingPingPingPingPingPingPing'
p4483
sbsg55
Nsg56
I0
sg57
I5
sg58
I4
sg59
I64578
sg52
g4475
sg60
I00
sbsg55
Nsg52
Nsg53
I2048
sg60
I00
sbsbag1
(g2
g3
Ntp4484
Rp4485
(dp4486
g7
g2440
sg27
g1
(g28
g3
Ntp4487
Rp4488
(dp4489
g32
g2443
sg33
g15
sg34
g1
(g35
g3
Ntp4490
Rp4491
(dp4492
g39
I0
sg40
I34921
sg41
g23
sg42
I1
sg43
g2448
sg44
I0
sg45
I64
sg46
I72
sg34
g1
(g47
g3
Ntp4493
Rp4494
(dp4495
g51
I0
sg40
I1591
sg52
g4491
sg53
I8
sg34
S'PingPingPingPingPingPingPingPingPingPingPingPing'
p4496
sbsg55
Nsg56
I0
sg57
I5
sg58
I4
sg59
I64579
sg52
g4488
sg60
I00
sbsg55
Nsg52
Nsg53
I2048
sg60
I00
sbsbag1
(g2
g3
Ntp4497
Rp4498
(dp4499
g7
g2465
sg27
g1
(g28
g3
Ntp4500
Rp4501
(dp4502
g32
g2468
sg33
g15
sg34
g1
(g35
g3
Ntp4503
Rp4504
(dp4505
g39
I0
sg40
I34919
sg41
g23
sg42
I1
sg43
g2473
sg44
I0
sg45
I64
sg46
I72
sg34
g1
(g47
g3
Ntp4506
Rp4507
(dp4508
g51
I0
sg40
I3639
sg52
g4504
sg53
I0
sg34
S'PingPingPingPingPingPingPingPingPingPingPingPing'
p4509
sbsg55
Nsg56
I0
sg57
I5
sg58
I4
sg59
I64580
sg52
g4501
sg60
I00
sbsg55
Nsg52
Nsg53
I2048
sg60
I00
sbsbag1
(g2
g3
Ntp4510
Rp4511
(dp4512
g7
g2490
sg27
g1
(g28
g3
Ntp4513
Rp4514
(dp4515
g32
g2493
sg33
g15
sg34
g1
(g35
g3
Ntp4516
Rp4517
(dp4518
g39
I0
sg40
I34917
sg41
g23
sg42
I1
sg43
g2498
sg44
I0
sg45
I64
sg46
I72
sg34
g1
(g47
g3
Ntp4519
Rp4520
(dp4521
g51
I0
sg40
I3639
sg52
g4517
sg53
I0
sg34
S'PingPingPingPingPingPingPingPingPingPingPingPing'
p4522
sbsg55
Nsg56
I0
sg57
I5
sg58
I4
sg59
I64581
sg52
g4514
sg60
I00
sbsg55
Nsg52
Nsg53
I2048
sg60
I00
sbsbag1
(g2
g3
Ntp4523
Rp4524
(dp4525
g7
g2515
sg27
g1
(g28
g3
Ntp4526
Rp4527
(dp4528
g32
g2518
sg33
g15
sg34
g1
(g35
g3
Ntp4529
Rp4530
(dp4531
g39
I0
sg40
I34915
sg41
g23
sg42
I1
sg43
g2523
sg44
I0
sg45
I64
sg46
I72
sg34
g1
(g47
g3
Ntp4532
Rp4533
(dp4534
g51
I0
sg40
I1591
sg52
g4530
sg53
I8
sg34
S'PingPingPingPingPingPingPingPingPingPingPingPing'
p4535
sbsg55
Nsg56
I0
sg57
I5
sg58
I4
sg59
I64582
sg52
g4527
sg60
I00
sbsg55
Nsg52
Nsg53
I2048
sg60
I00
sbsbag1
(g2
g3
Ntp4536
Rp4537
(dp4538
g7
g2540
sg27
g1
(g28
g3
Ntp4539
Rp4540
(dp4541
g32
g2543
sg33
g15
sg34
g1
(g35
g3
Ntp4542
Rp4543
(dp4544
g39
I0
sg40
I34661
sg41
g23
sg42
I1
sg43
g2548
sg44
I0
sg45
I64
sg46
I72
sg34
g1
(g47
g3
Ntp4545
Rp4546
(dp4547
g51
I0
sg40
I1591
sg52
g4543
sg53
I8
sg34
S'PingPingPingPingPingPingPingPingPingPingPingPing'
p4548
sbsg55
Nsg56
I0
sg57
I5
sg58
I4
sg59
I64583
sg52
g4540
sg60
I00
sbsg55
Nsg52
Nsg53
I2048
sg60
I00
sbsbag1
(g2
g3
Ntp4549
Rp4550
(dp4551
g7
g2565
sg27
g1
(g28
g3
Ntp4552
Rp4553
(dp4554
g32
g2568
sg33
g15
sg34
g1
(g35
g3
Ntp4555
Rp4556
(dp4557
g39
I0
sg40
I34659
sg41
g23
sg42
I1
sg43
g2573
sg44
I0
sg45
I64
sg46
I72
sg34
g1
(g47
g3
Ntp4558
Rp4559
(dp4560
g51
I0
sg40
I1591
sg52
g4556
sg53
I8
sg34
S'PingPingPingPingPingPingPingPingPingPingPingPing'
p4561
sbsg55
Nsg56
I0
sg57
I5
sg58
I4
sg59
I64584
sg52
g4553
sg60
I00
sbsg55
Nsg52
Nsg53
I2048
sg60
I00
sbsbag1
(g2
g3
Ntp4562
Rp4563
(dp4564
g7
g2590
sg27
g1
(g28
g3
Ntp4565
Rp4566
(dp4567
g32
g2593
sg33
g15
sg34
g1
(g35
g3
Ntp4568
Rp4569
(dp4570
g39
I0
sg40
I34657
sg41
g23
sg42
I1
sg43
g2598
sg44
I0
sg45
I64
sg46
I72
sg34
g1
(g47
g3
Ntp4571
Rp4572
(dp4573
g51
I0
sg40
I3639
sg52
g4569
sg53
I0
sg34
S'PingPingPingPingPingPingPingPingPingPingPingPing'
p4574
sbsg55
Nsg56
I0
sg57
I5
sg58
I4
sg59
I64585
sg52
g4566
sg60
I00
sbsg55
Nsg52
Nsg53
I2048
sg60
I00
sbsbag1
(g2
g3
Ntp4575
Rp4576
(dp4577
g7
g2615
sg27
g1
(g28
g3
Ntp4578
Rp4579
(dp4580
g32
g2618
sg33
g15
sg34
g1
(g35
g3
Ntp4581
Rp4582
(dp4583
g39
I0
sg40
I34655
sg41
g23
sg42
I1
sg43
g2623
sg44
I0
sg45
I64
sg46
I72
sg34
g1
(g47
g3
Ntp4584
Rp4585
(dp4586
g51
I0
sg40
I3639
sg52
g4582
sg53
I0
sg34
S'PingPingPingPingPingPingPingPingPingPingPingPing'
p4587
sbsg55
Nsg56
I0
sg57
I5
sg58
I4
sg59
I64586
sg52
g4579
sg60
I00
sbsg55
Nsg52
Nsg53
I2048
sg60
I00
sbsbag1
(g2
g3
Ntp4588
Rp4589
(dp4590
g7
g2640
sg27
g1
(g28
g3
Ntp4591
Rp4592
(dp4593
g32
g2643
sg33
g15
sg34
g1
(g35
g3
Ntp4594
Rp4595
(dp4596
g39
I0
sg40
I34401
sg41
g23
sg42
I1
sg43
g2648
sg44
I0
sg45
I64
sg46
I72
sg34
g1
(g47
g3
Ntp4597
Rp4598
(dp4599
g51
I0
sg40
I3639
sg52
g4595
sg53
I0
sg34
S'PingPingPingPingPingPingPingPingPingPingPingPing'
p4600
sbsg55
Nsg56
I0
sg57
I5
sg58
I4
sg59
I64587
sg52
g4592
sg60
I00
sbsg55
Nsg52
Nsg53
I2048
sg60
I00
sbsbag1
(g2
g3
Ntp4601
Rp4602
(dp4603
g7
g2665
sg27
g1
(g28
g3
Ntp4604
Rp4605
(dp4606
g32
g2668
sg33
g15
sg34
g1
(g35
g3
Ntp4607
Rp4608
(dp4609
g39
I0
sg40
I34399
sg41
g23
sg42
I1
sg43
g2673
sg44
I0
sg45
I64
sg46
I72
sg34
g1
(g47
g3
Ntp4610
Rp4611
(dp4612
g51
I0
sg40
I3639
sg52
g4608
sg53
I0
sg34
S'PingPingPingPingPingPingPingPingPingPingPingPing'
p4613
sbsg55
Nsg56
I0
sg57
I5
sg58
I4
sg59
I64588
sg52
g4605
sg60
I00
sbsg55
Nsg52
Nsg53
I2048
sg60
I00
sbsbag1
(g2
g3
Ntp4614
Rp4615
(dp4616
g7
g2690
sg27
g1
(g28
g3
Ntp4617
Rp4618
(dp4619
g32
g2693
sg33
g15
sg34
g1
(g35
g3
Ntp4620
Rp4621
(dp4622
g39
I0
sg40
I34397
sg41
g23
sg42
I1
sg43
g2698
sg44
I0
sg45
I64
sg46
I72
sg34
g1
(g47
g3
Ntp4623
Rp4624
(dp4625
g51
I0
sg40
I3639
sg52
g4621
sg53
I0
sg34
S'PingPingPingPingPingPingPingPingPingPingPingPing'
p4626
sbsg55
Nsg56
I0
sg57
I5
sg58
I4
sg59
I64589
sg52
g4618
sg60
I00
sbsg55
Nsg52
Nsg53
I2048
sg60
I00
sbsbag1
(g2
g3
Ntp4627
Rp4628
(dp4629
g7
g2715
sg27
g1
(g28
g3
Ntp4630
Rp4631
(dp4632
g32
g2718
sg33
g15
sg34
g1
(g35
g3
Ntp4633
Rp4634
(dp4635
g39
I0
sg40
I34395
sg41
g23
sg42
I1
sg43
g2723
sg44
I0
sg45
I64
sg46
I72
sg34
g1
(g47
g3
Ntp4636
Rp4637
(dp4638
g51
I0
sg40
I1591
sg52
g4634
sg53
I8
sg34
S'PingPingPingPingPingPingPingPingPingPingPingPing'
p4639
sbsg55
Nsg56
I0
sg57
I5
sg58
I4
sg59
I64590
sg52
g4631
sg60
I00
sbsg55
Nsg52
Nsg53
I2048
sg60
I00
sbsbag1
(g2
g3
Ntp4640
Rp4641
(dp4642
g7
g2740
sg27
g1
(g28
g3
Ntp4643
Rp4644
(dp4645
g32
g2743
sg33
g15
sg34
g1
(g35
g3
Ntp4646
Rp4647
(dp4648
g39
I0
sg40
I34141
sg41
g23
sg42
I1
sg43
g2748
sg44
I0
sg45
I64
sg46
I72
sg34
g1
(g47
g3
Ntp4649
Rp4650
(dp4651
g51
I0
sg40
I3639
sg52
g4647
sg53
I0
sg34
S'PingPingPingPingPingPingPingPingPingPingPingPing'
p4652
sbsg55
Nsg56
I0
sg57
I5
sg58
I4
sg59
I64591
sg52
g4644
sg60
I00
sbsg55
Nsg52
Nsg53
I2048
sg60
I00
sbsbag1
(g2
g3
Ntp4653
Rp4654
(dp4655
g7
g2765
sg27
g1
(g28
g3
Ntp4656
Rp4657
(dp4658
g32
g2768
sg33
g15
sg34
g1
(g35
g3
Ntp4659
Rp4660
(dp4661
g39
I0
sg40
I34139
sg41
g23
sg42
I1
sg43
g2773
sg44
I0
sg45
I64
sg46
I72
sg34
g1
(g47
g3
Ntp4662
Rp4663
(dp4664
g51
I0
sg40
I1591
sg52
g4660
sg53
I8
sg34
S'PingPingPingPingPingPingPingPingPingPingPingPing'
p4665
sbsg55
Nsg56
I0
sg57
I5
sg58
I4
sg59
I64592
sg52
g4657
sg60
I00
sbsg55
Nsg52
Nsg53
I2048
sg60
I00
sbsbag1
(g2
g3
Ntp4666
Rp4667
(dp4668
g7
g2790
sg27
g1
(g28
g3
Ntp4669
Rp4670
(dp4671
g32
g2793
sg33
g15
sg34
g1
(g35
g3
Ntp4672
Rp4673
(dp4674
g39
I0
sg40
I34137
sg41
g23
sg42
I1
sg43
g2798
sg44
I0
sg45
I64
sg46
I72
sg34
g1
(g47
g3
Ntp4675
Rp4676
(dp4677
g51
I0
sg40
I1591
sg52
g4673
sg53
I8
sg34
S'PingPingPingPingPingPingPingPingPingPingPingPing'
p4678
sbsg55
Nsg56
I0
sg57
I5
sg58
I4
sg59
I64593
sg52
g4670
sg60
I00
sbsg55
Nsg52
Nsg53
I2048
sg60
I00
sbsbag1
(g2
g3
Ntp4679
Rp4680
(dp4681
g7
g2815
sg27
g1
(g28
g3
Ntp4682
Rp4683
(dp4684
g32
g2818
sg33
g15
sg34
g1
(g35
g3
Ntp4685
Rp4686
(dp4687
g39
I0
sg40
I34135
sg41
g23
sg42
I1
sg43
g2823
sg44
I0
sg45
I64
sg46
I72
sg34
g1
(g47
g3
Ntp4688
Rp4689
(dp4690
g51
I0
sg40
I3639
sg52
g4686
sg53
I0
sg34
S'PingPingPingPingPingPingPingPingPingPingPingPing'
p4691
sbsg55
Nsg56
I0
sg57
I5
sg58
I4
sg59
I64594
sg52
g4683
sg60
I00
sbsg55
Nsg52
Nsg53
I2048
sg60
I00
sbsbag1
(g2
g3
Ntp4692
Rp4693
(dp4694
g7
g2840
sg27
g1
(g28
g3
Ntp4695
Rp4696
(dp4697
g32
g2843
sg33
g15
sg34
g1
(g35
g3
Ntp4698
Rp4699
(dp4700
g39
I0
sg40
I34904
sg41
g23
sg42
I1
sg43
g2848
sg44
I0
sg45
I64
sg46
I72
sg34
g1
(g47
g3
Ntp4701
Rp4702
(dp4703
g51
I0
sg40
I1591
sg52
g4699
sg53
I8
sg34
S'PingPingPingPingPingPingPingPingPingPingPingPing'
p4704
sbsg55
Nsg56
I0
sg57
I5
sg58
I4
sg59
I64595
sg52
g4696
sg60
I00
sbsg55
Nsg52
Nsg53
I2048
sg60
I00
sbsbag1
(g2
g3
Ntp4705
Rp4706
(dp4707
g7
g2865
sg27
g1
(g28
g3
Ntp4708
Rp4709
(dp4710
g32
g2868
sg33
g15
sg34
g1
(g35
g3
Ntp4711
Rp4712
(dp4713
g39
I0
sg40
I34902
sg41
g23
sg42
I1
sg43
g2873
sg44
I0
sg45
I64
sg46
I72
sg34
g1
(g47
g3
Ntp4714
Rp4715
(dp4716
g51
I0
sg40
I3639
sg52
g4712
sg53
I0
sg34
S'PingPingPingPingPingPingPingPingPingPingPingPing'
p4717
sbsg55
Nsg56
I0
sg57
I5
sg58
I4
sg59
I64596
sg52
g4709
sg60
I00
sbsg55
Nsg52
Nsg53
I2048
sg60
I00
sbsbag1
(g2
g3
Ntp4718
Rp4719
(dp4720
g7
g2890
sg27
g1
(g28
g3
Ntp4721
Rp4722
(dp4723
g32
g2893
sg33
g15
sg34
g1
(g35
g3
Ntp4724
Rp4725
(dp4726
g39
I0
sg40
I34900
sg41
g23
sg42
I1
sg43
g2898
sg44
I0
sg45
I64
sg46
I72
sg34
g1
(g47
g3
Ntp4727
Rp4728
(dp4729
g51
I0
sg40
I3639
sg52
g4725
sg53
I0
sg34
S'PingPingPingPingPingPingPingPingPingPingPingPing'
p4730
sbsg55
Nsg56
I0
sg57
I5
sg58
I4
sg59
I64597
sg52
g4722
sg60
I00
sbsg55
Nsg52
Nsg53
I2048
sg60
I00
sbsbag1
(g2
g3
Ntp4731
Rp4732
(dp4733
g7
g2915
sg27
g1
(g28
g3
Ntp4734
Rp4735
(dp4736
g32
g2918
sg33
g15
sg34
g1
(g35
g3
Ntp4737
Rp4738
(dp4739
g39
I0
sg40
I34898
sg41
g23
sg42
I1
sg43
g2923
sg44
I0
sg45
I64
sg46
I72
sg34
g1
(g47
g3
Ntp4740
Rp4741
(dp4742
g51
I0
sg40
I1591
sg52
g4738
sg53
I8
sg34
S'PingPingPingPingPingPingPingPingPingPingPingPing'
p4743
sbsg55
Nsg56
I0
sg57
I5
sg58
I4
sg59
I64598
sg52
g4735
sg60
I00
sbsg55
Nsg52
Nsg53
I2048
sg60
I00
sbsbag1
(g2
g3
Ntp4744
Rp4745
(dp4746
g7
g2940
sg27
g1
(g28
g3
Ntp4747
Rp4748
(dp4749
g32
g2943
sg33
g15
sg34
g1
(g35
g3
Ntp4750
Rp4751
(dp4752
g39
I0
sg40
I34644
sg41
g23
sg42
I1
sg43
g2948
sg44
I0
sg45
I64
sg46
I72
sg34
g1
(g47
g3
Ntp4753
Rp4754
(dp4755
g51
I0
sg40
I3639
sg52
g4751
sg53
I0
sg34
S'PingPingPingPingPingPingPingPingPingPingPingPing'
p4756
sbsg55
Nsg56
I0
sg57
I5
sg58
I4
sg59
I64599
sg52
g4748
sg60
I00
sbsg55
Nsg52
Nsg53
I2048
sg60
I00
sbsbag1
(g2
g3
Ntp4757
Rp4758
(dp4759
g7
g2965
sg27
g1
(g28
g3
Ntp4760
Rp4761
(dp4762
g32
g2968
sg33
g15
sg34
g1
(g35
g3
Ntp4763
Rp4764
(dp4765
g39
I0
sg40
I34642
sg41
g23
sg42
I1
sg43
g2973
sg44
I0
sg45
I64
sg46
I72
sg34
g1
(g47
g3
Ntp4766
Rp4767
(dp4768
g51
I0
sg40
I3639
sg52
g4764
sg53
I0
sg34
S'PingPingPingPingPingPingPingPingPingPingPingPing'
p4769
sbsg55
Nsg56
I0
sg57
I5
sg58
I4
sg59
I64600
sg52
g4761
sg60
I00
sbsg55
Nsg52
Nsg53
I2048
sg60
I00
sbsbag1
(g2
g3
Ntp4770
Rp4771
(dp4772
g7
g2990
sg27
g1
(g28
g3
Ntp4773
Rp4774
(dp4775
g32
g2993
sg33
g15
sg34
g1
(g35
g3
Ntp4776
Rp4777
(dp4778
g39
I0
sg40
I34640
sg41
g23
sg42
I1
sg43
g2998
sg44
I0
sg45
I64
sg46
I72
sg34
g1
(g47
g3
Ntp4779
Rp4780
(dp4781
g51
I0
sg40
I1591
sg52
g4777
sg53
I8
sg34
S'PingPingPingPingPingPingPingPingPingPingPingPing'
p4782
sbsg55
Nsg56
I0
sg57
I5
sg58
I4
sg59
I64601
sg52
g4774
sg60
I00
sbsg55
Nsg52
Nsg53
I2048
sg60
I00
sbsbag1
(g2
g3
Ntp4783
Rp4784
(dp4785
g7
g3015
sg27
g1
(g28
g3
Ntp4786
Rp4787
(dp4788
g32
g3018
sg33
g15
sg34
g1
(g35
g3
Ntp4789
Rp4790
(dp4791
g39
I0
sg40
I34638
sg41
g23
sg42
I1
sg43
g3023
sg44
I0
sg45
I64
sg46
I72
sg34
g1
(g47
g3
Ntp4792
Rp4793
(dp4794
g51
I0
sg40
I1591
sg52
g4790
sg53
I8
sg34
S'PingPingPingPingPingPingPingPingPingPingPingPing'
p4795
sbsg55
Nsg56
I0
sg57
I5
sg58
I4
sg59
I64602
sg52
g4787
sg60
I00
sbsg55
Nsg52
Nsg53
I2048
sg60
I00
sbsbag1
(g2
g3
Ntp4796
Rp4797
(dp4798
g7
g3040
sg27
g1
(g28
g3
Ntp4799
Rp4800
(dp4801
g32
g3043
sg33
g15
sg34
g1
(g35
g3
Ntp4802
Rp4803
(dp4804
g39
I0
sg40
I34384
sg41
g23
sg42
I1
sg43
g3048
sg44
I0
sg45
I64
sg46
I72
sg34
g1
(g47
g3
Ntp4805
Rp4806
(dp4807
g51
I0
sg40
I3639
sg52
g4803
sg53
I0
sg34
S'PingPingPingPingPingPingPingPingPingPingPingPing'
p4808
sbsg55
Nsg56
I0
sg57
I5
sg58
I4
sg59
I64603
sg52
g4800
sg60
I00
sbsg55
Nsg52
Nsg53
I2048
sg60
I00
sbsbag1
(g2
g3
Ntp4809
Rp4810
(dp4811
g7
g3065
sg27
g1
(g28
g3
Ntp4812
Rp4813
(dp4814
g32
g3068
sg33
g15
sg34
g1
(g35
g3
Ntp4815
Rp4816
(dp4817
g39
I0
sg40
I34382
sg41
g23
sg42
I1
sg43
g3073
sg44
I0
sg45
I64
sg46
I72
sg34
g1
(g47
g3
Ntp4818
Rp4819
(dp4820
g51
I0
sg40
I1591
sg52
g4816
sg53
I8
sg34
S'PingPingPingPingPingPingPingPingPingPingPingPing'
p4821
sbsg55
Nsg56
I0
sg57
I5
sg58
I4
sg59
I64604
sg52
g4813
sg60
I00
sbsg55
Nsg52
Nsg53
I2048
sg60
I00
sbsbag1
(g2
g3
Ntp4822
Rp4823
(dp4824
g7
g3090
sg27
g1
(g28
g3
Ntp4825
Rp4826
(dp4827
g32
g3093
sg33
g15
sg34
g1
(g35
g3
Ntp4828
Rp4829
(dp4830
g39
I0
sg40
I34380
sg41
g23
sg42
I1
sg43
g3098
sg44
I0
sg45
I64
sg46
I72
sg34
g1
(g47
g3
Ntp4831
Rp4832
(dp4833
g51
I0
sg40
I3639
sg52
g4829
sg53
I0
sg34
S'PingPingPingPingPingPingPingPingPingPingPingPing'
p4834
sbsg55
Nsg56
I0
sg57
I5
sg58
I4
sg59
I64605
sg52
g4826
sg60
I00
sbsg55
Nsg52
Nsg53
I2048
sg60
I00
sbsbag1
(g2
g3
Ntp4835
Rp4836
(dp4837
g7
g3115
sg27
g1
(g28
g3
Ntp4838
Rp4839
(dp4840
g32
g3118
sg33
g15
sg34
g1
(g35
g3
Ntp4841
Rp4842
(dp4843
g39
I0
sg40
I34378
sg41
g23
sg42
I1
sg43
g3123
sg44
I0
sg45
I64
sg46
I72
sg34
g1
(g47
g3
Ntp4844
Rp4845
(dp4846
g51
I0
sg40
I1591
sg52
g4842
sg53
I8
sg34
S'PingPingPingPingPingPingPingPingPingPingPingPing'
p4847
sbsg55
Nsg56
I0
sg57
I5
sg58
I4
sg59
I64606
sg52
g4839
sg60
I00
sbsg55
Nsg52
Nsg53
I2048
sg60
I00
sbsbag1
(g2
g3
Ntp4848
Rp4849
(dp4850
g7
g3140
sg27
g1
(g28
g3
Ntp4851
Rp4852
(dp4853
g32
g3143
sg33
g15
sg34
g1
(g35
g3
Ntp4854
Rp4855
(dp4856
g39
I0
sg40
I34124
sg41
g23
sg42
I1
sg43
g3148
sg44
I0
sg45
I64
sg46
I72
sg34
g1
(g47
g3
Ntp4857
Rp4858
(dp4859
g51
I0
sg40
I3639
sg52
g4855
sg53
I0
sg34
S'PingPingPingPingPingPingPingPingPingPingPingPing'
p4860
sbsg55
Nsg56
I0
sg57
I5
sg58
I4
sg59
I64607
sg52
g4852
sg60
I00
sbsg55
Nsg52
Nsg53
I2048
sg60
I00
sbsbag1
(g2
g3
Ntp4861
Rp4862
(dp4863
g7
g3165
sg27
g1
(g28
g3
Ntp4864
Rp4865
(dp4866
g32
g3168
sg33
g15
sg34
g1
(g35
g3
Ntp4867
Rp4868
(dp4869
g39
I0
sg40
I34122
sg41
g23
sg42
I1
sg43
g3173
sg44
I0
sg45
I64
sg46
I72
sg34
g1
(g47
g3
Ntp4870
Rp4871
(dp4872
g51
I0
sg40
I3639
sg52
g4868
sg53
I0
sg34
S'PingPingPingPingPingPingPingPingPingPingPingPing'
p4873
sbsg55
Nsg56
I0
sg57
I5
sg58
I4
sg59
I64608
sg52
g4865
sg60
I00
sbsg55
Nsg52
Nsg53
I2048
sg60
I00
sbsbag1
(g2
g3
Ntp4874
Rp4875
(dp4876
g7
g3190
sg27
g1
(g28
g3
Ntp4877
Rp4878
(dp4879
g32
g3193
sg33
g15
sg34
g1
(g35
g3
Ntp4880
Rp4881
(dp4882
g39
I0
sg40
I34120
sg41
g23
sg42
I1
sg43
g3198
sg44
I0
sg45
I64
sg46
I72
sg34
g1
(g47
g3
Ntp4883
Rp4884
(dp4885
g51
I0
sg40
I3639
sg52
g4881
sg53
I0
sg34
S'PingPingPingPingPingPingPingPingPingPingPingPing'
p4886
sbsg55
Nsg56
I0
sg57
I5
sg58
I4
sg59
I64609
sg52
g4878
sg60
I00
sbsg55
Nsg52
Nsg53
I2048
sg60
I00
sbsbag1
(g2
g3
Ntp4887
Rp4888
(dp4889
g7
g3215
sg27
g1
(g28
g3
Ntp4890
Rp4891
(dp4892
g32
g3218
sg33
g15
sg34
g1
(g35
g3
Ntp4893
Rp4894
(dp4895
g39
I0
sg40
I34118
sg41
g23
sg42
I1
sg43
g3223
sg44
I0
sg45
I64
sg46
I72
sg34
g1
(g47
g3
Ntp4896
Rp4897
(dp4898
g51
I0
sg40
I3639
sg52
g4894
sg53
I0
sg34
S'PingPingPingPingPingPingPingPingPingPingPingPing'
p4899
sbsg55
Nsg56
I0
sg57
I5
sg58
I4
sg59
I64610
sg52
g4891
sg60
I00
sbsg55
Nsg52
Nsg53
I2048
sg60
I00
sbsbag1
(g2
g3
Ntp4900
Rp4901
(dp4902
g7
g10
sg27
g1
(g28
g3
Ntp4903
Rp4904
(dp4905
g32
g15
sg33
g15
sg34
g1
(g35
g3
Ntp4906
Rp4907
(dp4908
g39
I0
sg40
I34767
sg41
g23
sg42
I1
sg43
g23
sg44
I0
sg45
I64
sg46
I72
sg34
g1
(g47
g3
Ntp4909
Rp4910
(dp4911
g51
I0
sg40
I1591
sg52
g4907
sg53
I8
sg34
S'PingPingPingPingPingPingPingPingPingPingPingPing'
p4912
sbsg55
Nsg56
I0
sg57
I5
sg58
I4
sg59
I64739
sg52
g4904
sg60
I00
sbsg55
Nsg52
Nsg53
I2048
sg60
I00
sbsba.