(lp0
ccopy_reg
_reconstructor
p1
(csts.dataplane_traces.trace
DataplaneEvent
p2
c__builtin__
object
p3
Ntp4
Rp5
(dp6
S'interface'
p7
g1
(csts.entities
HostInterface
p8
g3
Ntp9
Rp10
(dp11
S'hw_addr'
p12
g1
(cpox.lib.addresses
EthAddr
p13
g3
Ntp14
Rp15
(dp16
S'value'
p17
S'\x00\x00\x00\x00\x00\x01'
p18
sbsS'ips'
p19
(lp20
g1
(cpox.lib.addresses
IPAddr
p21
g3
Ntp22
Rp23
(dp24
g17
I16777339
sbasS'name'
p25
S'eth1'
p26
sbsS'packet'
p27
g1
(cpox.lib.packet.ethernet
ethernet
p28
g3
Ntp29
Rp30
(dp31
S'src'
p32
g15
sS'dst'
p33
g15
sS'next'
p34
g1
(cpox.lib.packet.ipv4
ipv4
p35
g3
Ntp36
Rp37
(dp38
S'frag'
p39
I0
sS'csum'
p40
I17373
sS'dstip'
p41
g23
sS'protocol'
p42
I1
sS'srcip'
p43
g23
sS'tos'
p44
I0
sS'ttl'
p45
I64
sS'iplen'
p46
I72
sg34
g1
(cpox.lib.packet.icmp
icmp
p47
g3
Ntp48
Rp49
(dp50
S'code'
p51
I0
sg40
I1591
sS'prev'
p52
g37
sS'type'
p53
I8
sg34
S'PingPingPingPingPingPingPingPingPingPingPingPing'
p54
sbsS'raw'
p55
NsS'flags'
p56
I0
sS'hl'
p57
I5
sS'v'
p58
I4
sS'id'
p59
I16598
sg52
g30
sS'parsed'
p60
I00
sbsg55
Nsg52
Nsg53
I2048
sg60
I00
sbsbag1
(g2
g3
Ntp61
Rp62
(dp63
g7
g1
(g8
g3
Ntp64
Rp65
(dp66
g12
g1
(g13
g3
Ntp67
Rp68
(dp69
g17
S'\x00\x00\x00\x00\x00\x02'
p70
sbsg19
(lp71
g1
(g21
g3
Ntp72
Rp73
(dp74
g17
I33554555
sbasg25
S'eth1'
p75
sbsg27
g1
(g28
g3
Ntp76
Rp77
(dp78
g32
g68
sg33
g68
sg34
g1
(g35
g3
Ntp79
Rp80
(dp81
g39
I0
sg40
I17370
sg41
g73
sg42
I1
sg43
g73
sg44
I0
sg45
I64
sg46
I72
sg34
g1
(g47
g3
Ntp82
Rp83
(dp84
g51
I0
sg40
I1591
sg52
g80
sg53
I8
sg34
S'PingPingPingPingPingPingPingPingPingPingPingPing'
p85
sbsg55
Nsg56
I0
sg57
I5
sg58
I4
sg59
I16599
sg52
g77
sg60
I00
sbsg55
Nsg52
Nsg53
I2048
sg60
I00
sbsbag1
(g2
g3
Ntp86
Rp87
(dp88
g7
g1
(g8
g3
Ntp89
Rp90
(dp91
g12
g1
(g13
g3
Ntp92
Rp93
(dp94
g17
S'\x00\x00\x00\x00\x01\x01'
p95
sbsg19
(lp96
g1
(g21
g3
Ntp97
Rp98
(dp99
g17
I16842875
sbasg25
S'eth2'
p100
sbsg27
g1
(g28
g3
Ntp101
Rp102
(dp103
g32
g93
sg33
g93
sg34
g1
(g35
g3
Ntp104
Rp105
(dp106
g39
I0
sg40
I16859
sg41
g98
sg42
I1
sg43
g98
sg44
I0
sg45
I64
sg46
I72
sg34
g1
(g47
g3
Ntp107
Rp108
(dp109
g51
I0
sg40
I3639
sg52
g105
sg53
I0
sg34
S'PingPingPingPingPingPingPingPingPingPingPingPing'
p110
sbsg55
Nsg56
I0
sg57
I5
sg58
I4
sg59
I16600
sg52
g102
sg60
I00
sbsg55
Nsg52
Nsg53
I2048
sg60
I00
sbsbag1
(g2
g3
Ntp111
Rp112
(dp113
g7
g1
(g8
g3
Ntp114
Rp115
(dp116
g12
g1
(g13
g3
Ntp117
Rp118
(dp119
g17
S'\x00\x00\x00\x00\x01\x02'
p120
sbsg19
(lp121
g1
(g21
g3
Ntp122
Rp123
(dp124
g17
I33620091
sbasg25
S'eth2'
p125
sbsg27
g1
(g28
g3
Ntp126
Rp127
(dp128
g32
g118
sg33
g118
sg34
g1
(g35
g3
Ntp129
Rp130
(dp131
g39
I0
sg40
I16856
sg41
g123
sg42
I1
sg43
g123
sg44
I0
sg45
I64
sg46
I72
sg34
g1
(g47
g3
Ntp132
Rp133
(dp134
g51
I0
sg40
I3639
sg52
g130
sg53
I0
sg34
S'PingPingPingPingPingPingPingPingPingPingPingPing'
p135
sbsg55
Nsg56
I0
sg57
I5
sg58
I4
sg59
I16601
sg52
g127
sg60
I00
sbsg55
Nsg52
Nsg53
I2048
sg60
I00
sbsbag1
(g2
g3
Ntp136
Rp137
(dp138
g7
g1
(g8
g3
Ntp139
Rp140
(dp141
g12
g1
(g13
g3
Ntp142
Rp143
(dp144
g17
S'\x00\x00\x00\x01\x00\x01'
p145
sbsg19
(lp146
g1
(g21
g3
Ntp147
Rp148
(dp149
g17
I16777595
sbasg25
S'eth3'
p150
sbsg27
g1
(g28
g3
Ntp151
Rp152
(dp153
g32
g143
sg33
g143
sg34
g1
(g35
g3
Ntp154
Rp155
(dp156
g39
I0
sg40
I17367
sg41
g148
sg42
I1
sg43
g148
sg44
I0
sg45
I64
sg46
I72
sg34
g1
(g47
g3
Ntp157
Rp158
(dp159
g51
I0
sg40
I1591
sg52
g155
sg53
I8
sg34
S'PingPingPingPingPingPingPingPingPingPingPingPing'
p160
sbsg55
Nsg56
I0
sg57
I5
sg58
I4
sg59
I16602
sg52
g152
sg60
I00
sbsg55
Nsg52
Nsg53
I2048
sg60
I00
sbsbag1
(g2
g3
Ntp161
Rp162
(dp163
g7
g1
(g8
g3
Ntp164
Rp165
(dp166
g12
g1
(g13
g3
Ntp167
Rp168
(dp169
g17
S'\x00\x00\x00\x01\x00\x02'
p170
sbsg19
(lp171
g1
(g21
g3
Ntp172
Rp173
(dp174
g17
I33554811
sbasg25
S'eth3'
p175
sbsg27
g1
(g28
g3
Ntp176
Rp177
(dp178
g32
g168
sg33
g168
sg34
g1
(g35
g3
Ntp179
Rp180
(dp181
g39
I0
sg40
I17364
sg41
g173
sg42
I1
sg43
g173
sg44
I0
sg45
I64
sg46
I72
sg34
g1
(g47
g3
Ntp182
Rp183
(dp184
g51
I0
sg40
I1591
sg52
g180
sg53
I8
sg34
S'PingPingPingPingPingPingPingPingPingPingPingPing'
p185
sbsg55
Nsg56
I0
sg57
I5
sg58
I4
sg59
I16603
sg52
g177
sg60
I00
sbsg55
Nsg52
Nsg53
I2048
sg60
I00
sbsbag1
(g2
g3
Ntp186
Rp187
(dp188
g7
g1
(g8
g3
Ntp189
Rp190
(dp191
g12
g1
(g13
g3
Ntp192
Rp193
(dp194
g17
S'\x00\x00\x00\x01\x01\x01'
p195
sbsg19
(lp196
g1
(g21
g3
Ntp197
Rp198
(dp199
g17
I16843131
sbasg25
S'eth4'
p200
sbsg27
g1
(g28
g3
Ntp201
Rp202
(dp203
g32
g193
sg33
g193
sg34
g1
(g35
g3
Ntp204
Rp205
(dp206
g39
I0
sg40
I16853
sg41
g198
sg42
I1
sg43
g198
sg44
I0
sg45
I64
sg46
I72
sg34
g1
(g47
g3
Ntp207
Rp208
(dp209
g51
I0
sg40
I1591
sg52
g205
sg53
I8
sg34
S'PingPingPingPingPingPingPingPingPingPingPingPing'
p210
sbsg55
Nsg56
I0
sg57
I5
sg58
I4
sg59
I16604
sg52
g202
sg60
I00
sbsg55
Nsg52
Nsg53
I2048
sg60
I00
sbsbag1
(g2
g3
Ntp211
Rp212
(dp213
g7
g1
(g8
g3
Ntp214
Rp215
(dp216
g12
g1
(g13
g3
Ntp217
Rp218
(dp219
g17
S'\x00\x00\x00\x01\x01\x02'
p220
sbsg19
(lp221
g1
(g21
g3
Ntp222
Rp223
(dp224
g17
I33620347
sbasg25
S'eth4'
p225
sbsg27
g1
(g28
g3
Ntp226
Rp227
(dp228
g32
g218
sg33
g218
sg34
g1
(g35
g3
Ntp229
Rp230
(dp231
g39
I0
sg40
I16850
sg41
g223
sg42
I1
sg43
g223
sg44
I0
sg45
I64
sg46
I72
sg34
g1
(g47
g3
Ntp232
Rp233
(dp234
g51
I0
sg40
I1591
sg52
g230
sg53
I8
sg34
S'PingPingPingPingPingPingPingPingPingPingPingPing'
p235
sbsg55
Nsg56
I0
sg57
I5
sg58
I4
sg59
I16605
sg52
g227
sg60
I00
sbsg55
Nsg52
Nsg53
I2048
sg60
I00
sbsbag1
(g2
g3
Ntp236
Rp237
(dp238
g7
g1
(g8
g3
Ntp239
Rp240
(dp241
g12
g1
(g13
g3
Ntp242
Rp243
(dp244
g17
S'\x00\x00\x00\x02\x00\x01'
p245
sbsg19
(lp246
g1
(g21
g3
Ntp247
Rp248
(dp249
g17
I16777851
sbasg25
S'eth5'
p250
sbsg27
g1
(g28
g3
Ntp251
Rp252
(dp253
g32
g243
sg33
g243
sg34
g1
(g35
g3
Ntp254
Rp255
(dp256
g39
I0
sg40
I17361
sg41
g248
sg42
I1
sg43
g248
sg44
I0
sg45
I64
sg46
I72
sg34
g1
(g47
g3
Ntp257
Rp258
(dp259
g51
I0
sg40
I1591
sg52
g255
sg53
I8
sg34
S'PingPingPingPingPingPingPingPingPingPingPingPing'
p260
sbsg55
Nsg56
I0
sg57
I5
sg58
I4
sg59
I16606
sg52
g252
sg60
I00
sbsg55
Nsg52
Nsg53
I2048
sg60
I00
sbsbag1
(g2
g3
Ntp261
Rp262
(dp263
g7
g1
(g8
g3
Ntp264
Rp265
(dp266
g12
g1
(g13
g3
Ntp267
Rp268
(dp269
g17
S'\x00\x00\x00\x02\x00\x02'
p270
sbsg19
(lp271
g1
(g21
g3
Ntp272
Rp273
(dp274
g17
I33555067
sbasg25
S'eth5'
p275
sbsg27
g1
(g28
g3
Ntp276
Rp277
(dp278
g32
g268
sg33
g268
sg34
g1
(g35
g3
Ntp279
Rp280
(dp281
g39
I0
sg40
I17358
sg41
g273
sg42
I1
sg43
g273
sg44
I0
sg45
I64
sg46
I72
sg34
g1
(g47
g3
Ntp282
Rp283
(dp284
g51
I0
sg40
I3639
sg52
g280
sg53
I0
sg34
S'PingPingPingPingPingPingPingPingPingPingPingPing'
p285
sbsg55
Nsg56
I0
sg57
I5
sg58
I4
sg59
I16607
sg52
g277
sg60
I00
sbsg55
Nsg52
Nsg53
I2048
sg60
I00
sbsbag1
(g2
g3
Ntp286
Rp287
(dp288
g7
g1
(g8
g3
Ntp289
Rp290
(dp291
g12
g1
(g13
g3
Ntp292
Rp293
(dp294
g17
S'\x00\x00\x00\x02\x01\x01'
p295
sbsg19
(lp296
g1
(g21
g3
Ntp297
Rp298
(dp299
g17
I16843387
sbasg25
S'eth6'
p300
sbsg27
g1
(g28
g3
Ntp301
Rp302
(dp303
g32
g293
sg33
g293
sg34
g1
(g35
g3
Ntp304
Rp305
(dp306
g39
I0
sg40
I16847
sg41
g298
sg42
I1
sg43
g298
sg44
I0
sg45
I64
sg46
I72
sg34
g1
(g47
g3
Ntp307
Rp308
(dp309
g51
I0
sg40
I3639
sg52
g305
sg53
I0
sg34
S'PingPingPingPingPingPingPingPingPingPingPingPing'
p310
sbsg55
Nsg56
I0
sg57
I5
sg58
I4
sg59
I16608
sg52
g302
sg60
I00
sbsg55
Nsg52
Nsg53
I2048
sg60
I00
sbsbag1
(g2
g3
Ntp311
Rp312
(dp313
g7
g1
(g8
g3
Ntp314
Rp315
(dp316
g12
g1
(g13
g3
Ntp317
Rp318
(dp319
g17
S'\x00\x00\x00\x02\x01\x02'
p320
sbsg19
(lp321
g1
(g21
g3
Ntp322
Rp323
(dp324
g17
I33620603
sbasg25
S'eth6'
p325
sbsg27
g1
(g28
g3
Ntp326
Rp327
(dp328
g32
g318
sg33
g318
sg34
g1
(g35
g3
Ntp329
Rp330
(dp331
g39
I0
sg40
I16844
sg41
g323
sg42
I1
sg43
g323
sg44
I0
sg45
I64
sg46
I72
sg34
g1
(g47
g3
Ntp332
Rp333
(dp334
g51
I0
sg40
I1591
sg52
g330
sg53
I8
sg34
S'PingPingPingPingPingPingPingPingPingPingPingPing'
p335
sbsg55
Nsg56
I0
sg57
I5
sg58
I4
sg59
I16609
sg52
g327
sg60
I00
sbsg55
Nsg52
Nsg53
I2048
sg60
I00
sbsbag1
(g2
g3
Ntp336
Rp337
(dp338
g7
g1
(g8
g3
Ntp339
Rp340
(dp341
g12
g1
(g13
g3
Ntp342
Rp343
(dp344
g17
S'\x00\x00\x00\x03\x00\x01'
p345
sbsg19
(lp346
g1
(g21
g3
Ntp347
Rp348
(dp349
g17
I16778107
sbasg25
S'eth7'
p350
sbsg27
g1
(g28
g3
Ntp351
Rp352
(dp353
g32
g343
sg33
g343
sg34
g1
(g35
g3
Ntp354
Rp355
(dp356
g39
I0
sg40
I17355
sg41
g348
sg42
I1
sg43
g348
sg44
I0
sg45
I64
sg46
I72
sg34
g1
(g47
g3
Ntp357
Rp358
(dp359
g51
I0
sg40
I1591
sg52
g355
sg53
I8
sg34
S'PingPingPingPingPingPingPingPingPingPingPingPing'
p360
sbsg55
Nsg56
I0
sg57
I5
sg58
I4
sg59
I16610
sg52
g352
sg60
I00
sbsg55
Nsg52
Nsg53
I2048
sg60
I00
sbsbag1
(g2
g3
Ntp361
Rp362
(dp363
g7
g1
(g8
g3
Ntp364
Rp365
(dp366
g12
g1
(g13
g3
Ntp367
Rp368
(dp369
g17
S'\x00\x00\x00\x03\x00\x02'
p370
sbsg19
(lp371
g1
(g21
g3
Ntp372
Rp373
(dp374
g17
I33555323
sbasg25
S'eth7'
p375
sbsg27
g1
(g28
g3
Ntp376
Rp377
(dp378
g32
g368
sg33
g368
sg34
g1
(g35
g3
Ntp379
Rp380
(dp381
g39
I0
sg40
I17352
sg41
g373
sg42
I1
sg43
g373
sg44
I0
sg45
I64
sg46
I72
sg34
g1
(g47
g3
Ntp382
Rp383
(dp384
g51
I0
sg40
I3639
sg52
g380
sg53
I0
sg34
S'PingPingPingPingPingPingPingPingPingPingPingPing'
p385
sbsg55
Nsg56
I0
sg57
I5
sg58
I4
sg59
I16611
sg52
g377
sg60
I00
sbsg55
Nsg52
Nsg53
I2048
sg60
I00
sbsbag1
(g2
g3
Ntp386
Rp387
(dp388
g7
g1
(g8
g3
Ntp389
Rp390
(dp391
g12
g1
(g13
g3
Ntp392
Rp393
(dp394
g17
S'\x00\x00\x00\x03\x01\x01'
p395
sbsg19
(lp396
g1
(g21
g3
Ntp397
Rp398
(dp399
g17
I16843643
sbasg25
S'eth8'
p400
sbsg27
g1
(g28
g3
Ntp401
Rp402
(dp403
g32
g393
sg33
g393
sg34
g1
(g35
g3
Ntp404
Rp405
(dp406
g39
I0
sg40
I16841
sg41
g398
sg42
I1
sg43
g398
sg44
I0
sg45
I64
sg46
I72
sg34
g1
(g47
g3
Ntp407
Rp408
(dp409
g51
I0
sg40
I3639
sg52
g405
sg53
I0
sg34
S'PingPingPingPingPingPingPingPingPingPingPingPing'
p410
sbsg55
Nsg56
I0
sg57
I5
sg58
I4
sg59
I16612
sg52
g402
sg60
I00
sbsg55
Nsg52
Nsg53
I2048
sg60
I00
sbsbag1
(g2
g3
Ntp411
Rp412
(dp413
g7
g1
(g8
g3
Ntp414
Rp415
(dp416
g12
g1
(g13
g3
Ntp417
Rp418
(dp419
g17
S'\x00\x00\x00\x03\x01\x02'
p420
sbsg19
(lp421
g1
(g21
g3
Ntp422
Rp423
(dp424
g17
I33620859
sbasg25
S'eth8'
p425
sbsg27
g1
(g28
g3
Ntp426
Rp427
(dp428
g32
g418
sg33
g418
sg34
g1
(g35
g3
Ntp429
Rp430
(dp431
g39
I0
sg40
I16838
sg41
g423
sg42
I1
sg43
g423
sg44
I0
sg45
I64
sg46
I72
sg34
g1
(g47
g3
Ntp432
Rp433
(dp434
g51
I0
sg40
I3639
sg52
g430
sg53
I0
sg34
S'PingPingPingPingPingPingPingPingPingPingPingPing'
p435
sbsg55
Nsg56
I0
sg57
I5
sg58
I4
sg59
I16613
sg52
g427
sg60
I00
sbsg55
Nsg52
Nsg53
I2048
sg60
I00
sbsbag1
(g2
g3
Ntp436
Rp437
(dp438
g7
g10
sg27
g1
(g28
g3
Ntp439
Rp440
(dp441
g32
g15
sg33
g68
sg34
g1
(g35
g3
Ntp442
Rp443
(dp444
g39
I0
sg40
I17356
sg41
g73
sg42
I1
sg43
g23
sg44
I0
sg45
I64
sg46
I72
sg34
g1
(g47
g3
Ntp445
Rp446
(dp447
g51
I0
sg40
I1591
sg52
g443
sg53
I8
sg34
S'PingPingPingPingPingPingPingPingPingPingPingPing'
p448
sbsg55
Nsg56
I0
sg57
I5
sg58
I4
sg59
I16614
sg52
g440
sg60
I00
sbsg55
Nsg52
Nsg53
I2048
sg60
I00
sbsbag1
(g2
g3
Ntp449
Rp450
(dp451
g7
g65
sg27
g1
(g28
g3
Ntp452
Rp453
(dp454
g32
g68
sg33
g15
sg34
g1
(g35
g3
Ntp455
Rp456
(dp457
g39
I0
sg40
I17355
sg41
g23
sg42
I1
sg43
g73
sg44
I0
sg45
I64
sg46
I72
sg34
g1
(g47
g3
Ntp458
Rp459
(dp460
g51
I0
sg40
I1591
sg52
g456
sg53
I8
sg34
S'PingPingPingPingPingPingPingPingPingPingPingPing'
p461
sbsg55
Nsg56
I0
sg57
I5
sg58
I4
sg59
I16615
sg52
g453
sg60
I00
sbsg55
Nsg52
Nsg53
I2048
sg60
I00
sbsbag1
(g2
g3
Ntp462
Rp463
(dp464
g7
g90
sg27
g1
(g28
g3
Ntp465
Rp466
(dp467
g32
g93
sg33
g15
sg34
g1
(g35
g3
Ntp468
Rp469
(dp470
g39
I0
sg40
I17099
sg41
g23
sg42
I1
sg43
g98
sg44
I0
sg45
I64
sg46
I72
sg34
g1
(g47
g3
Ntp471
Rp472
(dp473
g51
I0
sg40
I1591
sg52
g469
sg53
I8
sg34
S'PingPingPingPingPingPingPingPingPingPingPingPing'
p474
sbsg55
Nsg56
I0
sg57
I5
sg58
I4
sg59
I16616
sg52
g466
sg60
I00
sbsg55
Nsg52
Nsg53
I2048
sg60
I00
sbsbag1
(g2
g3
Ntp475
Rp476
(dp477
g7
g115
sg27
g1
(g28
g3
Ntp478
Rp479
(dp480
g32
g118
sg33
g15
sg34
g1
(g35
g3
Ntp481
Rp482
(dp483
g39
I0
sg40
I17097
sg41
g23
sg42
I1
sg43
g123
sg44
I0
sg45
I64
sg46
I72
sg34
g1
(g47
g3
Ntp484
Rp485
(dp486
g51
I0
sg40
I3639
sg52
g482
sg53
I0
sg34
S'PingPingPingPingPingPingPingPingPingPingPingPing'
p487
sbsg55
Nsg56
I0
sg57
I5
sg58
I4
sg59
I16617
sg52
g479
sg60
I00
sbsg55
Nsg52
Nsg53
I2048
sg60
I00
sbsbag1
(g2
g3
Ntp488
Rp489
(dp490
g7
g140
sg27
g1
(g28
g3
Ntp491
Rp492
(dp493
g32
g143
sg33
g15
sg34
g1
(g35
g3
Ntp494
Rp495
(dp496
g39
I0
sg40
I17352
sg41
g23
sg42
I1
sg43
g148
sg44
I0
sg45
I64
sg46
I72
sg34
g1
(g47
g3
Ntp497
Rp498
(dp499
g51
I0
sg40
I1591
sg52
g495
sg53
I8
sg34
S'PingPingPingPingPingPingPingPingPingPingPingPing'
p500
sbsg55
Nsg56
I0
sg57
I5
sg58
I4
sg59
I16618
sg52
g492
sg60
I00
sbsg55
Nsg52
Nsg53
I2048
sg60
I00
sbsbag1
(g2
g3
Ntp501
Rp502
(dp503
g7
g165
sg27
g1
(g28
g3
Ntp504
Rp505
(dp506
g32
g168
sg33
g15
sg34
g1
(g35
g3
Ntp507
Rp508
(dp509
g39
I0
sg40
I17350
sg41
g23
sg42
I1
sg43
g173
sg44
I0
sg45
I64
sg46
I72
sg34
g1
(g47
g3
Ntp510
Rp511
(dp512
g51
I0
sg40
I1591
sg52
g508
sg53
I8
sg34
S'PingPingPingPingPingPingPingPingPingPingPingPing'
p513
sbsg55
Nsg56
I0
sg57
I5
sg58
I4
sg59
I16619
sg52
g505
sg60
I00
sbsg55
Nsg52
Nsg53
I2048
sg60
I00
sbsbag1
(g2
g3
Ntp514
Rp515
(dp516
g7
g190
sg27
g1
(g28
g3
Ntp517
Rp518
(dp519
g32
g193
sg33
g15
sg34
g1
(g35
g3
Ntp520
Rp521
(dp522
g39
I0
sg40
I17094
sg41
g23
sg42
I1
sg43
g198
sg44
I0
sg45
I64
sg46
I72
sg34
g1
(g47
g3
Ntp523
Rp524
(dp525
g51
I0
sg40
I3639
sg52
g521
sg53
I0
sg34
S'PingPingPingPingPingPingPingPingPingPingPingPing'
p526
sbsg55
Nsg56
I0
sg57
I5
sg58
I4
sg59
I16620
sg52
g518
sg60
I00
sbsg55
Nsg52
Nsg53
I2048
sg60
I00
sbsbag1
(g2
g3
Ntp527
Rp528
(dp529
g7
g215
sg27
g1
(g28
g3
Ntp530
Rp531
(dp532
g32
g218
sg33
g15
sg34
g1
(g35
g3
Ntp533
Rp534
(dp535
g39
I0
sg40
I17092
sg41
g23
sg42
I1
sg43
g223
sg44
I0
sg45
I64
sg46
I72
sg34
g1
(g47
g3
Ntp536
Rp537
(dp538
g51
I0
sg40
I3639
sg52
g534
sg53
I0
sg34
S'PingPingPingPingPingPingPingPingPingPingPingPing'
p539
sbsg55
Nsg56
I0
sg57
I5
sg58
I4
sg59
I16621
sg52
g531
sg60
I00
sbsg55
Nsg52
Nsg53
I2048
sg60
I00
sbsbag1
(g2
g3
Ntp540
Rp541
(dp542
g7
g240
sg27
g1
(g28
g3
Ntp543
Rp544
(dp545
g32
g243
sg33
g15
sg34
g1
(g35
g3
Ntp546
Rp547
(dp548
g39
I0
sg40
I17347
sg41
g23
sg42
I1
sg43
g248
sg44
I0
sg45
I64
sg46
I72
sg34
g1
(g47
g3
Ntp549
Rp550
(dp551
g51
I0
sg40
I1591
sg52
g547
sg53
I8
sg34
S'PingPingPingPingPingPingPingPingPingPingPingPing'
p552
sbsg55
Nsg56
I0
sg57
I5
sg58
I4
sg59
I16622
sg52
g544
sg60
I00
sbsg55
Nsg52
Nsg53
I2048
sg60
I00
sbsbag1
(g2
g3
Ntp553
Rp554
(dp555
g7
g265
sg27
g1
(g28
g3
Ntp556
Rp557
(dp558
g32
g268
sg33
g15
sg34
g1
(g35
g3
Ntp559
Rp560
(dp561
g39
I0
sg40
I17345
sg41
g23
sg42
I1
sg43
g273
sg44
I0
sg45
I64
sg46
I72
sg34
g1
(g47
g3
Ntp562
Rp563
(dp564
g51
I0
sg40
I3639
sg52
g560
sg53
I0
sg34
S'PingPingPingPingPingPingPingPingPingPingPingPing'
p565
sbsg55
Nsg56
I0
sg57
I5
sg58
I4
sg59
I16623
sg52
g557
sg60
I00
sbsg55
Nsg52
Nsg53
I2048
sg60
I00
sbsbag1
(g2
g3
Ntp566
Rp567
(dp568
g7
g290
sg27
g1
(g28
g3
Ntp569
Rp570
(dp571
g32
g293
sg33
g15
sg34
g1
(g35
g3
Ntp572
Rp573
(dp574
g39
I0
sg40
I17089
sg41
g23
sg42
I1
sg43
g298
sg44
I0
sg45
I64
sg46
I72
sg34
g1
(g47
g3
Ntp575
Rp576
(dp577
g51
I0
sg40
I3639
sg52
g573
sg53
I0
sg34
S'PingPingPingPingPingPingPingPingPingPingPingPing'
p578
sbsg55
Nsg56
I0
sg57
I5
sg58
I4
sg59
I16624
sg52
g570
sg60
I00
sbsg55
Nsg52
Nsg53
I2048
sg60
I00
sbsbag1
(g2
g3
Ntp579
Rp580
(dp581
g7
g315
sg27
g1
(g28
g3
Ntp582
Rp583
(dp584
g32
g318
sg33
g15
sg34
g1
(g35
g3
Ntp585
Rp586
(dp587
g39
I0
sg40
I17087
sg41
g23
sg42
I1
sg43
g323
sg44
I0
sg45
I64
sg46
I72
sg34
g1
(g47
g3
Ntp588
Rp589
(dp590
g51
I0
sg40
I1591
sg52
g586
sg53
I8
sg34
S'PingPingPingPingPingPingPingPingPingPingPingPing'
p591
sbsg55
Nsg56
I0
sg57
I5
sg58
I4
sg59
I16625
sg52
g583
sg60
I00
sbsg55
Nsg52
Nsg53
I2048
sg60
I00
sbsbag1
(g2
g3
Ntp592
Rp593
(dp594
g7
g340
sg27
g1
(g28
g3
Ntp595
Rp596
(dp597
g32
g343
sg33
g15
sg34
g1
(g35
g3
Ntp598
Rp599
(dp600
g39
I0
sg40
I17342
sg41
g23
sg42
I1
sg43
g348
sg44
I0
sg45
I64
sg46
I72
sg34
g1
(g47
g3
Ntp601
Rp602
(dp603
g51
I0
sg40
I3639
sg52
g599
sg53
I0
sg34
S'PingPingPingPingPingPingPingPingPingPingPingPing'
p604
sbsg55
Nsg56
I0
sg57
I5
sg58
I4
sg59
I16626
sg52
g596
sg60
I00
sbsg55
Nsg52
Nsg53
I2048
sg60
I00
sbsbag1
(g2
g3
Ntp605
Rp606
(dp607
g7
g365
sg27
g1
(g28
g3
Ntp608
Rp609
(dp610
g32
g368
sg33
g15
sg34
g1
(g35
g3
Ntp611
Rp612
(dp613
g39
I0
sg40
I17340
sg41
g23
sg42
I1
sg43
g373
sg44
I0
sg45
I64
sg46
I72
sg34
g1
(g47
g3
Ntp614
Rp615
(dp616
g51
I0
sg40
I3639
sg52
g612
sg53
I0
sg34
S'PingPingPingPingPingPingPingPingPingPingPingPing'
p617
sbsg55
Nsg56
I0
sg57
I5
sg58
I4
sg59
I16627
sg52
g609
sg60
I00
sbsg55
Nsg52
Nsg53
I2048
sg60
I00
sbsbag1
(g2
g3
Ntp618
Rp619
(dp620
g7
g390
sg27
g1
(g28
g3
Ntp621
Rp622
(dp623
g32
g393
sg33
g15
sg34
g1
(g35
g3
Ntp624
Rp625
(dp626
g39
I0
sg40
I17084
sg41
g23
sg42
I1
sg43
g398
sg44
I0
sg45
I64
sg46
I72
sg34
g1
(g47
g3
Ntp627
Rp628
(dp629
g51
I0
sg40
I3639
sg52
g625
sg53
I0
sg34
S'PingPingPingPingPingPingPingPingPingPingPingPing'
p630
sbsg55
Nsg56
I0
sg57
I5
sg58
I4
sg59
I16628
sg52
g622
sg60
I00
sbsg55
Nsg52
Nsg53
I2048
sg60
I00
sbsbag1
(g2
g3
Ntp631
Rp632
(dp633
g7
g415
sg27
g1
(g28
g3
Ntp634
Rp635
(dp636
g32
g418
sg33
g15
sg34
g1
(g35
g3
Ntp637
Rp638
(dp639
g39
I0
sg40
I17082
sg41
g23
sg42
I1
sg43
g423
sg44
I0
sg45
I64
sg46
I72
sg34
g1
(g47
g3
Ntp640
Rp641
(dp642
g51
I0
sg40
I3639
sg52
g638
sg53
I0
sg34
S'PingPingPingPingPingPingPingPingPingPingPingPing'
p643
sbsg55
Nsg56
I0
sg57
I5
sg58
I4
sg59
I16629
sg52
g635
sg60
I00
sbsg55
Nsg52
Nsg53
I2048
sg60
I00
sbsbag1
(g2
g3
Ntp644
Rp645
(dp646
g7
g10
sg27
g1
(g28
g3
Ntp647
Rp648
(dp649
g32
g15
sg33
g93
sg34
g1
(g35
g3
Ntp650
Rp651
(dp652
g39
I0
sg40
I17085
sg41
g98
sg42
I1
sg43
g23
sg44
I0
sg45
I64
sg46
I72
sg34
g1
(g47
g3
Ntp653
Rp654
(dp655
g51
I0
sg40
I3639
sg52
g651
sg53
I0
sg34
S'PingPingPingPingPingPingPingPingPingPingPingPing'
p656
sbsg55
Nsg56
I0
sg57
I5
sg58
I4
sg59
I16630
sg52
g648
sg60
I00
sbsg55
Nsg52
Nsg53
I2048
sg60
I00
sbsbag1
(g2
g3
Ntp657
Rp658
(dp659
g7
g65
sg27
g1
(g28
g3
Ntp660
Rp661
(dp662
g32
g68
sg33
g93
sg34
g1
(g35
g3
Ntp663
Rp664
(dp665
g39
I0
sg40
I17083
sg41
g98
sg42
I1
sg43
g73
sg44
I0
sg45
I64
sg46
I72
sg34
g1
(g47
g3
Ntp666
Rp667
(dp668
g51
I0
sg40
I3639
sg52
g664
sg53
I0
sg34
S'PingPingPingPingPingPingPingPingPingPingPingPing'
p669
sbsg55
Nsg56
I0
sg57
I5
sg58
I4
sg59
I16631
sg52
g661
sg60
I00
sbsg55
Nsg52
Nsg53
I2048
sg60
I00
sbsbag1
(g2
g3
Ntp670
Rp671
(dp672
g7
g90
sg27
g1
(g28
g3
Ntp673
Rp674
(dp675
g32
g93
sg33
g68
sg34
g1
(g35
g3
Ntp676
Rp677
(dp678
g39
I0
sg40
I17082
sg41
g73
sg42
I1
sg43
g98
sg44
I0
sg45
I64
sg46
I72
sg34
g1
(g47
g3
Ntp679
Rp680
(dp681
g51
I0
sg40
I1591
sg52
g677
sg53
I8
sg34
S'PingPingPingPingPingPingPingPingPingPingPingPing'
p682
sbsg55
Nsg56
I0
sg57
I5
sg58
I4
sg59
I16632
sg52
g674
sg60
I00
sbsg55
Nsg52
Nsg53
I2048
sg60
I00
sbsbag1
(g2
g3
Ntp683
Rp684
(dp685
g7
g115
sg27
g1
(g28
g3
Ntp686
Rp687
(dp688
g32
g118
sg33
g68
sg34
g1
(g35
g3
Ntp689
Rp690
(dp691
g39
I0
sg40
I17080
sg41
g73
sg42
I1
sg43
g123
sg44
I0
sg45
I64
sg46
I72
sg34
g1
(g47
g3
Ntp692
Rp693
(dp694
g51
I0
sg40
I1591
sg52
g690
sg53
I8
sg34
S'PingPingPingPingPingPingPingPingPingPingPingPing'
p695
sbsg55
Nsg56
I0
sg57
I5
sg58
I4
sg59
I16633
sg52
g687
sg60
I00
sbsg55
Nsg52
Nsg53
I2048
sg60
I00
sbsbag1
(g2
g3
Ntp696
Rp697
(dp698
g7
g140
sg27
g1
(g28
g3
Ntp699
Rp700
(dp701
g32
g143
sg33
g68
sg34
g1
(g35
g3
Ntp702
Rp703
(dp704
g39
I0
sg40
I17335
sg41
g73
sg42
I1
sg43
g148
sg44
I0
sg45
I64
sg46
I72
sg34
g1
(g47
g3
Ntp705
Rp706
(dp707
g51
I0
sg40
I1591
sg52
g703
sg53
I8
sg34
S'PingPingPingPingPingPingPingPingPingPingPingPing'
p708
sbsg55
Nsg56
I0
sg57
I5
sg58
I4
sg59
I16634
sg52
g700
sg60
I00
sbsg55
Nsg52
Nsg53
I2048
sg60
I00
sbsbag1
(g2
g3
Ntp709
Rp710
(dp711
g7
g165
sg27
g1
(g28
g3
Ntp712
Rp713
(dp714
g32
g168
sg33
g68
sg34
g1
(g35
g3
Ntp715
Rp716
(dp717
g39
I0
sg40
I17333
sg41
g73
sg42
I1
sg43
g173
sg44
I0
sg45
I64
sg46
I72
sg34
g1
(g47
g3
Ntp718
Rp719
(dp720
g51
I0
sg40
I3639
sg52
g716
sg53
I0
sg34
S'PingPingPingPingPingPingPingPingPingPingPingPing'
p721
sbsg55
Nsg56
I0
sg57
I5
sg58
I4
sg59
I16635
sg52
g713
sg60
I00
sbsg55
Nsg52
Nsg53
I2048
sg60
I00
sbsbag1
(g2
g3
Ntp722
Rp723
(dp724
g7
g190
sg27
g1
(g28
g3
Ntp725
Rp726
(dp727
g32
g193
sg33
g68
sg34
g1
(g35
g3
Ntp728
Rp729
(dp730
g39
I0
sg40
I17077
sg41
g73
sg42
I1
sg43
g198
sg44
I0
sg45
I64
sg46
I72
sg34
g1
(g47
g3
Ntp731
Rp732
(dp733
g51
I0
sg40
I1591
sg52
g729
sg53
I8
sg34
S'PingPingPingPingPingPingPingPingPingPingPingPing'
p734
sbsg55
Nsg56
I0
sg57
I5
sg58
I4
sg59
I16636
sg52
g726
sg60
I00
sbsg55
Nsg52
Nsg53
I2048
sg60
I00
sbsbag1
(g2
g3
Ntp735
Rp736
(dp737
g7
g215
sg27
g1
(g28
g3
Ntp738
Rp739
(dp740
g32
g218
sg33
g68
sg34
g1
(g35
g3
Ntp741
Rp742
(dp743
g39
I0
sg40
I17075
sg41
g73
sg42
I1
sg43
g223
sg44
I0
sg45
I64
sg46
I72
sg34
g1
(g47
g3
Ntp744
Rp745
(dp746
g51
I0
sg40
I1591
sg52
g742
sg53
I8
sg34
S'PingPingPingPingPingPingPingPingPingPingPingPing'
p747
sbsg55
Nsg56
I0
sg57
I5
sg58
I4
sg59
I16637
sg52
g739
sg60
I00
sbsg55
Nsg52
Nsg53
I2048
sg60
I00
sbsbag1
(g2
g3
Ntp748
Rp749
(dp750
g7
g240
sg27
g1
(g28
g3
Ntp751
Rp752
(dp753
g32
g243
sg33
g68
sg34
g1
(g35
g3
Ntp754
Rp755
(dp756
g39
I0
sg40
I17330
sg41
g73
sg42
I1
sg43
g248
sg44
I0
sg45
I64
sg46
I72
sg34
g1
(g47
g3
Ntp757
Rp758
(dp759
g51
I0
sg40
I3639
sg52
g755
sg53
I0
sg34
S'PingPingPingPingPingPingPingPingPingPingPingPing'
p760
sbsg55
Nsg56
I0
sg57
I5
sg58
I4
sg59
I16638
sg52
g752
sg60
I00
sbsg55
Nsg52
Nsg53
I2048
sg60
I00
sbsbag1
(g2
g3
Ntp761
Rp762
(dp763
g7
g265
sg27
g1
(g28
g3
Ntp764
Rp765
(dp766
g32
g268
sg33
g68
sg34
g1
(g35
g3
Ntp767
Rp768
(dp769
g39
I0
sg40
I17328
sg41
g73
sg42
I1
sg43
g273
sg44
I0
sg45
I64
sg46
I72
sg34
g1
(g47
g3
Ntp770
Rp771
(dp772
g51
I0
sg40
I3639
sg52
g768
sg53
I0
sg34
S'PingPingPingPingPingPingPingPingPingPingPingPing'
p773
sbsg55
Nsg56
I0
sg57
I5
sg58
I4
sg59
I16639
sg52
g765
sg60
I00
sbsg55
Nsg52
Nsg53
I2048
sg60
I00
sbsbag1
(g2
g3
Ntp774
Rp775
(dp776
g7
g290
sg27
g1
(g28
g3
Ntp777
Rp778
(dp779
g32
g293
sg33
g68
sg34
g1
(g35
g3
Ntp780
Rp781
(dp782
g39
I0
sg40
I17072
sg41
g73
sg42
I1
sg43
g298
sg44
I0
sg45
I64
sg46
I72
sg34
g1
(g47
g3
Ntp783
Rp784
(dp785
g51
I0
sg40
I3639
sg52
g781
sg53
I0
sg34
S'PingPingPingPingPingPingPingPingPingPingPingPing'
p786
sbsg55
Nsg56
I0
sg57
I5
sg58
I4
sg59
I16640
sg52
g778
sg60
I00
sbsg55
Nsg52
Nsg53
I2048
sg60
I00
sbsbag1
(g2
g3
Ntp787
Rp788
(dp789
g7
g315
sg27
g1
(g28
g3
Ntp790
Rp791
(dp792
g32
g318
sg33
g68
sg34
g1
(g35
g3
Ntp793
Rp794
(dp795
g39
I0
sg40
I17070
sg41
g73
sg42
I1
sg43
g323
sg44
I0
sg45
I64
sg46
I72
sg34
g1
(g47
g3
Ntp796
Rp797
(dp798
g51
I0
sg40
I1591
sg52
g794
sg53
I8
sg34
S'PingPingPingPingPingPingPingPingPingPingPingPing'
p799
sbsg55
Nsg56
I0
sg57
I5
sg58
I4
sg59
I16641
sg52
g791
sg60
I00
sbsg55
Nsg52
Nsg53
I2048
sg60
I00
sbsbag1
(g2
g3
Ntp800
Rp801
(dp802
g7
g340
sg27
g1
(g28
g3
Ntp803
Rp804
(dp805
g32
g343
sg33
g68
sg34
g1
(g35
g3
Ntp806
Rp807
(dp808
g39
I0
sg40
I17325
sg41
g73
sg42
I1
sg43
g348
sg44
I0
sg45
I64
sg46
I72
sg34
g1
(g47
g3
Ntp809
Rp810
(dp811
g51
I0
sg40
I1591
sg52
g807
sg53
I8
sg34
S'PingPingPingPingPingPingPingPingPingPingPingPing'
p812
sbsg55
Nsg56
I0
sg57
I5
sg58
I4
sg59
I16642
sg52
g804
sg60
I00
sbsg55
Nsg52
Nsg53
I2048
sg60
I00
sbsbag1
(g2
g3
Ntp813
Rp814
(dp815
g7
g365
sg27
g1
(g28
g3
Ntp816
Rp817
(dp818
g32
g368
sg33
g68
sg34
g1
(g35
g3
Ntp819
Rp820
(dp821
g39
I0
sg40
I17323
sg41
g73
sg42
I1
sg43
g373
sg44
I0
sg45
I64
sg46
I72
sg34
g1
(g47
g3
Ntp822
Rp823
(dp824
g51
I0
sg40
I3639
sg52
g820
sg53
I0
sg34
S'PingPingPingPingPingPingPingPingPingPingPingPing'
p825
sbsg55
Nsg56
I0
sg57
I5
sg58
I4
sg59
I16643
sg52
g817
sg60
I00
sbsg55
Nsg52
Nsg53
I2048
sg60
I00
sbsbag1
(g2
g3
Ntp826
Rp827
(dp828
g7
g390
sg27
g1
(g28
g3
Ntp829
Rp830
(dp831
g32
g393
sg33
g68
sg34
g1
(g35
g3
Ntp832
Rp833
(dp834
g39
I0
sg40
I17067
sg41
g73
sg42
I1
sg43
g398
sg44
I0
sg45
I64
sg46
I72
sg34
g1
(g47
g3
Ntp835
Rp836
(dp837
g51
I0
sg40
I1591
sg52
g833
sg53
I8
sg34
S'PingPingPingPingPingPingPingPingPingPingPingPing'
p838
sbsg55
Nsg56
I0
sg57
I5
sg58
I4
sg59
I16644
sg52
g830
sg60
I00
sbsg55
Nsg52
Nsg53
I2048
sg60
I00
sbsbag1
(g2
g3
Ntp839
Rp840
(dp841
g7
g415
sg27
g1
(g28
g3
Ntp842
Rp843
(dp844
g32
g418
sg33
g68
sg34
g1
(g35
g3
Ntp845
Rp846
(dp847
g39
I0
sg40
I17065
sg41
g73
sg42
I1
sg43
g423
sg44
I0
sg45
I64
sg46
I72
sg34
g1
(g47
g3
Ntp848
Rp849
(dp850
g51
I0
sg40
I3639
sg52
g846
sg53
I0
sg34
S'PingPingPingPingPingPingPingPingPingPingPingPing'
p851
sbsg55
Nsg56
I0
sg57
I5
sg58
I4
sg59
I16645
sg52
g843
sg60
I00
sbsg55
Nsg52
Nsg53
I2048
sg60
I00
sbsbag1
(g2
g3
Ntp852
Rp853
(dp854
g7
g10
sg27
g1
(g28
g3
Ntp855
Rp856
(dp857
g32
g15
sg33
g118
sg34
g1
(g35
g3
Ntp858
Rp859
(dp860
g39
I0
sg40
I17068
sg41
g123
sg42
I1
sg43
g23
sg44
I0
sg45
I64
sg46
I72
sg34
g1
(g47
g3
Ntp861
Rp862
(dp863
g51
I0
sg40
I3639
sg52
g859
sg53
I0
sg34
S'PingPingPingPingPingPingPingPingPingPingPingPing'
p864
sbsg55
Nsg56
I0
sg57
I5
sg58
I4
sg59
I16646
sg52
g856
sg60
I00
sbsg55
Nsg52
Nsg53
I2048
sg60
I00
sbsbag1
(g2
g3
Ntp865
Rp866
(dp867
g7
g65
sg27
g1
(g28
g3
Ntp868
Rp869
(dp870
g32
g68
sg33
g118
sg34
g1
(g35
g3
Ntp871
Rp872
(dp873
g39
I0
sg40
I17066
sg41
g123
sg42
I1
sg43
g73
sg44
I0
sg45
I64
sg46
I72
sg34
g1
(g47
g3
Ntp874
Rp875
(dp876
g51
I0
sg40
I3639
sg52
g872
sg53
I0
sg34
S'PingPingPingPingPingPingPingPingPingPingPingPing'
p877
sbsg55
Nsg56
I0
sg57
I5
sg58
I4
sg59
I16647
sg52
g869
sg60
I00
sbsg55
Nsg52
Nsg53
I2048
sg60
I00
sbsbag1
(g2
g3
Ntp878
Rp879
(dp880
g7
g90
sg27
g1
(g28
g3
Ntp881
Rp882
(dp883
g32
g93
sg33
g118
sg34
g1
(g35
g3
Ntp884
Rp885
(dp886
g39
I0
sg40
I16810
sg41
g123
sg42
I1
sg43
g98
sg44
I0
sg45
I64
sg46
I72
sg34
g1
(g47
g3
Ntp887
Rp888
(dp889
g51
I0
sg40
I3639
sg52
g885
sg53
I0
sg34
S'PingPingPingPingPingPingPingPingPingPingPingPing'
p890
sbsg55
Nsg56
I0
sg57
I5
sg58
I4
sg59
I16648
sg52
g882
sg60
I00
sbsg55
Nsg52
Nsg53
I2048
sg60
I00
sbsbag1
(g2
g3
Ntp891
Rp892
(dp893
g7
g115
sg27
g1
(g28
g3
Ntp894
Rp895
(dp896
g32
g118
sg33
g93
sg34
g1
(g35
g3
Ntp897
Rp898
(dp899
g39
I0
sg40
I16809
sg41
g98
sg42
I1
sg43
g123
sg44
I0
sg45
I64
sg46
I72
sg34
g1
(g47
g3
Ntp900
Rp901
(dp902
g51
I0
sg40
I3639
sg52
g898
sg53
I0
sg34
S'PingPingPingPingPingPingPingPingPingPingPingPing'
p903
sbsg55
Nsg56
I0
sg57
I5
sg58
I4
sg59
I16649
sg52
g895
sg60
I00
sbsg55
Nsg52
Nsg53
I2048
sg60
I00
sbsbag1
(g2
g3
Ntp904
Rp905
(dp906
g7
g140
sg27
g1
(g28
g3
Ntp907
Rp908
(dp909
g32
g143
sg33
g93
sg34
g1
(g35
g3
Ntp910
Rp911
(dp912
g39
I0
sg40
I17064
sg41
g98
sg42
I1
sg43
g148
sg44
I0
sg45
I64
sg46
I72
sg34
g1
(g47
g3
Ntp913
Rp914
(dp915
g51
I0
sg40
I1591
sg52
g911
sg53
I8
sg34
S'PingPingPingPingPingPingPingPingPingPingPingPing'
p916
sbsg55
Nsg56
I0
sg57
I5
sg58
I4
sg59
I16650
sg52
g908
sg60
I00
sbsg55
Nsg52
Nsg53
I2048
sg60
I00
sbsbag1
(g2
g3
Ntp917
Rp918
(dp919
g7
g165
sg27
g1
(g28
g3
Ntp920
Rp921
(dp922
g32
g168
sg33
g93
sg34
g1
(g35
g3
Ntp923
Rp924
(dp925
g39
I0
sg40
I17062
sg41
g98
sg42
I1
sg43
g173
sg44
I0
sg45
I64
sg46
I72
sg34
g1
(g47
g3
Ntp926
Rp927
(dp928
g51
I0
sg40
I3639
sg52
g924
sg53
I0
sg34
S'PingPingPingPingPingPingPingPingPingPingPingPing'
p929
sbsg55
Nsg56
I0
sg57
I5
sg58
I4
sg59
I16651
sg52
g921
sg60
I00
sbsg55
Nsg52
Nsg53
I2048
sg60
I00
sbsbag1
(g2
g3
Ntp930
Rp931
(dp932
g7
g190
sg27
g1
(g28
g3
Ntp933
Rp934
(dp935
g32
g193
sg33
g93
sg34
g1
(g35
g3
Ntp936
Rp937
(dp938
g39
I0
sg40
I16806
sg41
g98
sg42
I1
sg43
g198
sg44
I0
sg45
I64
sg46
I72
sg34
g1
(g47
g3
Ntp939
Rp940
(dp941
g51
I0
sg40
I3639
sg52
g937
sg53
I0
sg34
S'PingPingPingPingPingPingPingPingPingPingPingPing'
p942
sbsg55
Nsg56
I0
sg57
I5
sg58
I4
sg59
I16652
sg52
g934
sg60
I00
sbsg55
Nsg52
Nsg53
I2048
sg60
I00
sbsbag1
(g2
g3
Ntp943
Rp944
(dp945
g7
g215
sg27
g1
(g28
g3
Ntp946
Rp947
(dp948
g32
g218
sg33
g93
sg34
g1
(g35
g3
Ntp949
Rp950
(dp951
g39
I0
sg40
I16804
sg41
g98
sg42
I1
sg43
g223
sg44
I0
sg45
I64
sg46
I72
sg34
g1
(g47
g3
Ntp952
Rp953
(dp954
g51
I0
sg40
I1591
sg52
g950
sg53
I8
sg34
S'PingPingPingPingPingPingPingPingPingPingPingPing'
p955
sbsg55
Nsg56
I0
sg57
I5
sg58
I4
sg59
I16653
sg52
g947
sg60
I00
sbsg55
Nsg52
Nsg53
I2048
sg60
I00
sbsbag1
(g2
g3
Ntp956
Rp957
(dp958
g7
g240
sg27
g1
(g28
g3
Ntp959
Rp960
(dp961
g32
g243
sg33
g93
sg34
g1
(g35
g3
Ntp962
Rp963
(dp964
g39
I0
sg40
I17059
sg41
g98
sg42
I1
sg43
g248
sg44
I0
sg45
I64
sg46
I72
sg34
g1
(g47
g3
Ntp965
Rp966
(dp967
g51
I0
sg40
I1591
sg52
g963
sg53
I8
sg34
S'PingPingPingPingPingPingPingPingPingPingPingPing'
p968
sbsg55
Nsg56
I0
sg57
I5
sg58
I4
sg59
I16654
sg52
g960
sg60
I00
sbsg55
Nsg52
Nsg53
I2048
sg60
I00
sbsbag1
(g2
g3
Ntp969
Rp970
(dp971
g7
g265
sg27
g1
(g28
g3
Ntp972
Rp973
(dp974
g32
g268
sg33
g93
sg34
g1
(g35
g3
Ntp975
Rp976
(dp977
g39
I0
sg40
I17057
sg41
g98
sg42
I1
sg43
g273
sg44
I0
sg45
I64
sg46
I72
sg34
g1
(g47
g3
Ntp978
Rp979
(dp980
g51
I0
sg40
I1591
sg52
g976
sg53
I8
sg34
S'PingPingPingPingPingPingPingPingPingPingPingPing'
p981
sbsg55
Nsg56
I0
sg57
I5
sg58
I4
sg59
I16655
sg52
g973
sg60
I00
sbsg55
Nsg52
Nsg53
I2048
sg60
I00
sbsbag1
(g2
g3
Ntp982
Rp983
(dp984
g7
g290
sg27
g1
(g28
g3
Ntp985
Rp986
(dp987
g32
g293
sg33
g93
sg34
g1
(g35
g3
Ntp988
Rp989
(dp990
g39
I0
sg40
I16801
sg41
g98
sg42
I1
sg43
g298
sg44
I0
sg45
I64
sg46
I72
sg34
g1
(g47
g3
Ntp991
Rp992
(dp993
g51
I0
sg40
I3639
sg52
g989
sg53
I0
sg34
S'PingPingPingPingPingPingPingPingPingPingPingPing'
p994
sbsg55
Nsg56
I0
sg57
I5
sg58
I4
sg59
I16656
sg52
g986
sg60
I00
sbsg55
Nsg52
Nsg53
I2048
sg60
I00
sbsbag1
(g2
g3
Ntp995
Rp996
(dp997
g7
g315
sg27
g1
(g28
g3
Ntp998
Rp999
(dp1000
g32
g318
sg33
g93
sg34
g1
(g35
g3
Ntp1001
Rp1002
(dp1003
g39
I0
sg40
I16799
sg41
g98
sg42
I1
sg43
g323
sg44
I0
sg45
I64
sg46
I72
sg34
g1
(g47
g3
Ntp1004
Rp1005
(dp1006
g51
I0
sg40
I3639
sg52
g1002
sg53
I0
sg34
S'PingPingPingPingPingPingPingPingPingPingPingPing'
p1007
sbsg55
Nsg56
I0
sg57
I5
sg58
I4
sg59
I16657
sg52
g999
sg60
I00
sbsg55
Nsg52
Nsg53
I2048
sg60
I00
sbsbag1
(g2
g3
Ntp1008
Rp1009
(dp1010
g7
g340
sg27
g1
(g28
g3
Ntp1011
Rp1012
(dp1013
g32
g343
sg33
g93
sg34
g1
(g35
g3
Ntp1014
Rp1015
(dp1016
g39
I0
sg40
I17054
sg41
g98
sg42
I1
sg43
g348
sg44
I0
sg45
I64
sg46
I72
sg34
g1
(g47
g3
Ntp1017
Rp1018
(dp1019
g51
I0
sg40
I3639
sg52
g1015
sg53
I0
sg34
S'PingPingPingPingPingPingPingPingPingPingPingPing'
p1020
sbsg55
Nsg56
I0
sg57
I5
sg58
I4
sg59
I16658
sg52
g1012
sg60
I00
sbsg55
Nsg52
Nsg53
I2048
sg60
I00
sbsbag1
(g2
g3
Ntp1021
Rp1022
(dp1023
g7
g365
sg27
g1
(g28
g3
Ntp1024
Rp1025
(dp1026
g32
g368
sg33
g93
sg34
g1
(g35
g3
Ntp1027
Rp1028
(dp1029
g39
I0
sg40
I17052
sg41
g98
sg42
I1
sg43
g373
sg44
I0
sg45
I64
sg46
I72
sg34
g1
(g47
g3
Ntp1030
Rp1031
(dp1032
g51
I0
sg40
I1591
sg52
g1028
sg53
I8
sg34
S'PingPingPingPingPingPingPingPingPingPingPingPing'
p1033
sbsg55
Nsg56
I0
sg57
I5
sg58
I4
sg59
I16659
sg52
g1025
sg60
I00
sbsg55
Nsg52
Nsg53
I2048
sg60
I00
sbsbag1
(g2
g3
Ntp1034
Rp1035
(dp1036
g7
g390
sg27
g1
(g28
g3
Ntp1037
Rp1038
(dp1039
g32
g393
sg33
g93
sg34
g1
(g35
g3
Ntp1040
Rp1041
(dp1042
g39
I0
sg40
I16796
sg41
g98
sg42
I1
sg43
g398
sg44
I0
sg45
I64
sg46
I72
sg34
g1
(g47
g3
Ntp1043
Rp1044
(dp1045
g51
I0
sg40
I1591
sg52
g1041
sg53
I8
sg34
S'PingPingPingPingPingPingPingPingPingPingPingPing'
p1046
sbsg55
Nsg56
I0
sg57
I5
sg58
I4
sg59
I16660
sg52
g1038
sg60
I00
sbsg55
Nsg52
Nsg53
I2048
sg60
I00
sbsbag1
(g2
g3
Ntp1047
Rp1048
(dp1049
g7
g415
sg27
g1
(g28
g3
Ntp1050
Rp1051
(dp1052
g32
g418
sg33
g93
sg34
g1
(g35
g3
Ntp1053
Rp1054
(dp1055
g39
I0
sg40
I16794
sg41
g98
sg42
I1
sg43
g423
sg44
I0
sg45
I64
sg46
I72
sg34
g1
(g47
g3
Ntp1056
Rp1057
(dp1058
g51
I0
sg40
I3639
sg52
g1054
sg53
I0
sg34
S'PingPingPingPingPingPingPingPingPingPingPingPing'
p1059
sbsg55
Nsg56
I0
sg57
I5
sg58
I4
sg59
I16661
sg52
g1051
sg60
I00
sbsg55
Nsg52
Nsg53
I2048
sg60
I00
sbsbag1
(g2
g3
Ntp1060
Rp1061
(dp1062
g7
g10
sg27
g1
(g28
g3
Ntp1063
Rp1064
(dp1065
g32
g15
sg33
g143
sg34
g1
(g35
g3
Ntp1066
Rp1067
(dp1068
g39
I0
sg40
I17308
sg41
g148
sg42
I1
sg43
g23
sg44
I0
sg45
I64
sg46
I72
sg34
g1
(g47
g3
Ntp1069
Rp1070
(dp1071
g51
I0
sg40
I3639
sg52
g1067
sg53
I0
sg34
S'PingPingPingPingPingPingPingPingPingPingPingPing'
p1072
sbsg55
Nsg56
I0
sg57
I5
sg58
I4
sg59
I16662
sg52
g1064
sg60
I00
sbsg55
Nsg52
Nsg53
I2048
sg60
I00
sbsbag1
(g2
g3
Ntp1073
Rp1074
(dp1075
g7
g65
sg27
g1
(g28
g3
Ntp1076
Rp1077
(dp1078
g32
g68
sg33
g143
sg34
g1
(g35
g3
Ntp1079
Rp1080
(dp1081
g39
I0
sg40
I17306
sg41
g148
sg42
I1
sg43
g73
sg44
I0
sg45
I64
sg46
I72
sg34
g1
(g47
g3
Ntp1082
Rp1083
(dp1084
g51
I0
sg40
I1591
sg52
g1080
sg53
I8
sg34
S'PingPingPingPingPingPingPingPingPingPingPingPing'
p1085
sbsg55
Nsg56
I0
sg57
I5
sg58
I4
sg59
I16663
sg52
g1077
sg60
I00
sbsg55
Nsg52
Nsg53
I2048
sg60
I00
sbsbag1
(g2
g3
Ntp1086
Rp1087
(dp1088
g7
g90
sg27
g1
(g28
g3
Ntp1089
Rp1090
(dp1091
g32
g93
sg33
g143
sg34
g1
(g35
g3
Ntp1092
Rp1093
(dp1094
g39
I0
sg40
I17050
sg41
g148
sg42
I1
sg43
g98
sg44
I0
sg45
I64
sg46
I72
sg34
g1
(g47
g3
Ntp1095
Rp1096
(dp1097
g51
I0
sg40
I1591
sg52
g1093
sg53
I8
sg34
S'PingPingPingPingPingPingPingPingPingPingPingPing'
p1098
sbsg55
Nsg56
I0
sg57
I5
sg58
I4
sg59
I16664
sg52
g1090
sg60
I00
sbsg55
Nsg52
Nsg53
I2048
sg60
I00
sbsbag1
(g2
g3
Ntp1099
Rp1100
(dp1101
g7
g115
sg27
g1
(g28
g3
Ntp1102
Rp1103
(dp1104
g32
g118
sg33
g143
sg34
g1
(g35
g3
Ntp1105
Rp1106
(dp1107
g39
I0
sg40
I17048
sg41
g148
sg42
I1
sg43
g123
sg44
I0
sg45
I64
sg46
I72
sg34
g1
(g47
g3
Ntp1108
Rp1109
(dp1110
g51
I0
sg40
I3639
sg52
g1106
sg53
I0
sg34
S'PingPingPingPingPingPingPingPingPingPingPingPing'
p1111
sbsg55
Nsg56
I0
sg57
I5
sg58
I4
sg59
I16665
sg52
g1103
sg60
I00
sbsg55
Nsg52
Nsg53
I2048
sg60
I00
sbsbag1
(g2
g3
Ntp1112
Rp1113
(dp1114
g7
g140
sg27
g1
(g28
g3
Ntp1115
Rp1116
(dp1117
g32
g143
sg33
g118
sg34
g1
(g35
g3
Ntp1118
Rp1119
(dp1120
g39
I0
sg40
I17047
sg41
g123
sg42
I1
sg43
g148
sg44
I0
sg45
I64
sg46
I72
sg34
g1
(g47
g3
Ntp1121
Rp1122
(dp1123
g51
I0
sg40
I1591
sg52
g1119
sg53
I8
sg34
S'PingPingPingPingPingPingPingPingPingPingPingPing'
p1124
sbsg55
Nsg56
I0
sg57
I5
sg58
I4
sg59
I16666
sg52
g1116
sg60
I00
sbsg55
Nsg52
Nsg53
I2048
sg60
I00
sbsbag1
(g2
g3
Ntp1125
Rp1126
(dp1127
g7
g165
sg27
g1
(g28
g3
Ntp1128
Rp1129
(dp1130
g32
g168
sg33
g118
sg34
g1
(g35
g3
Ntp1131
Rp1132
(dp1133
g39
I0
sg40
I17045
sg41
g123
sg42
I1
sg43
g173
sg44
I0
sg45
I64
sg46
I72
sg34
g1
(g47
g3
Ntp1134
Rp1135
(dp1136
g51
I0
sg40
I1591
sg52
g1132
sg53
I8
sg34
S'PingPingPingPingPingPingPingPingPingPingPingPing'
p1137
sbsg55
Nsg56
I0
sg57
I5
sg58
I4
sg59
I16667
sg52
g1129
sg60
I00
sbsg55
Nsg52
Nsg53
I2048
sg60
I00
sbsbag1
(g2
g3
Ntp1138
Rp1139
(dp1140
g7
g190
sg27
g1
(g28
g3
Ntp1141
Rp1142
(dp1143
g32
g193
sg33
g118
sg34
g1
(g35
g3
Ntp1144
Rp1145
(dp1146
g39
I0
sg40
I16789
sg41
g123
sg42
I1
sg43
g198
sg44
I0
sg45
I64
sg46
I72
sg34
g1
(g47
g3
Ntp1147
Rp1148
(dp1149
g51
I0
sg40
I1591
sg52
g1145
sg53
I8
sg34
S'PingPingPingPingPingPingPingPingPingPingPingPing'
p1150
sbsg55
Nsg56
I0
sg57
I5
sg58
I4
sg59
I16668
sg52
g1142
sg60
I00
sbsg55
Nsg52
Nsg53
I2048
sg60
I00
sbsbag1
(g2
g3
Ntp1151
Rp1152
(dp1153
g7
g215
sg27
g1
(g28
g3
Ntp1154
Rp1155
(dp1156
g32
g218
sg33
g118
sg34
g1
(g35
g3
Ntp1157
Rp1158
(dp1159
g39
I0
sg40
I16787
sg41
g123
sg42
I1
sg43
g223
sg44
I0
sg45
I64
sg46
I72
sg34
g1
(g47
g3
Ntp1160
Rp1161
(dp1162
g51
I0
sg40
I3639
sg52
g1158
sg53
I0
sg34
S'PingPingPingPingPingPingPingPingPingPingPingPing'
p1163
sbsg55
Nsg56
I0
sg57
I5
sg58
I4
sg59
I16669
sg52
g1155
sg60
I00
sbsg55
Nsg52
Nsg53
I2048
sg60
I00
sbsbag1
(g2
g3
Ntp1164
Rp1165
(dp1166
g7
g240
sg27
g1
(g28
g3
Ntp1167
Rp1168
(dp1169
g32
g243
sg33
g118
sg34
g1
(g35
g3
Ntp1170
Rp1171
(dp1172
g39
I0
sg40
I17042
sg41
g123
sg42
I1
sg43
g248
sg44
I0
sg45
I64
sg46
I72
sg34
g1
(g47
g3
Ntp1173
Rp1174
(dp1175
g51
I0
sg40
I3639
sg52
g1171
sg53
I0
sg34
S'PingPingPingPingPingPingPingPingPingPingPingPing'
p1176
sbsg55
Nsg56
I0
sg57
I5
sg58
I4
sg59
I16670
sg52
g1168
sg60
I00
sbsg55
Nsg52
Nsg53
I2048
sg60
I00
sbsbag1
(g2
g3
Ntp1177
Rp1178
(dp1179
g7
g265
sg27
g1
(g28
g3
Ntp1180
Rp1181
(dp1182
g32
g268
sg33
g118
sg34
g1
(g35
g3
Ntp1183
Rp1184
(dp1185
g39
I0
sg40
I17040
sg41
g123
sg42
I1
sg43
g273
sg44
I0
sg45
I64
sg46
I72
sg34
g1
(g47
g3
Ntp1186
Rp1187
(dp1188
g51
I0
sg40
I3639
sg52
g1184
sg53
I0
sg34
S'PingPingPingPingPingPingPingPingPingPingPingPing'
p1189
sbsg55
Nsg56
I0
sg57
I5
sg58
I4
sg59
I16671
sg52
g1181
sg60
I00
sbsg55
Nsg52
Nsg53
I2048
sg60
I00
sbsbag1
(g2
g3
Ntp1190
Rp1191
(dp1192
g7
g290
sg27
g1
(g28
g3
Ntp1193
Rp1194
(dp1195
g32
g293
sg33
g118
sg34
g1
(g35
g3
Ntp1196
Rp1197
(dp1198
g39
I0
sg40
I16784
sg41
g123
sg42
I1
sg43
g298
sg44
I0
sg45
I64
sg46
I72
sg34
g1
(g47
g3
Ntp1199
Rp1200
(dp1201
g51
I0
sg40
I3639
sg52
g1197
sg53
I0
sg34
S'PingPingPingPingPingPingPingPingPingPingPingPing'
p1202
sbsg55
Nsg56
I0
sg57
I5
sg58
I4
sg59
I16672
sg52
g1194
sg60
I00
sbsg55
Nsg52
Nsg53
I2048
sg60
I00
sbsbag1
(g2
g3
Ntp1203
Rp1204
(dp1205
g7
g315
sg27
g1
(g28
g3
Ntp1206
Rp1207
(dp1208
g32
g318
sg33
g118
sg34
g1
(g35
g3
Ntp1209
Rp1210
(dp1211
g39
I0
sg40
I16782
sg41
g123
sg42
I1
sg43
g323
sg44
I0
sg45
I64
sg46
I72
sg34
g1
(g47
g3
Ntp1212
Rp1213
(dp1214
g51
I0
sg40
I3639
sg52
g1210
sg53
I0
sg34
S'PingPingPingPingPingPingPingPingPingPingPingPing'
p1215
sbsg55
Nsg56
I0
sg57
I5
sg58
I4
sg59
I16673
sg52
g1207
sg60
I00
sbsg55
Nsg52
Nsg53
I2048
sg60
I00
sbsbag1
(g2
g3
Ntp1216
Rp1217
(dp1218
g7
g340
sg27
g1
(g28
g3
Ntp1219
Rp1220
(dp1221
g32
g343
sg33
g118
sg34
g1
(g35
g3
Ntp1222
Rp1223
(dp1224
g39
I0
sg40
I17037
sg41
g123
sg42
I1
sg43
g348
sg44
I0
sg45
I64
sg46
I72
sg34
g1
(g47
g3
Ntp1225
Rp1226
(dp1227
g51
I0
sg40
I3639
sg52
g1223
sg53
I0
sg34
S'PingPingPingPingPingPingPingPingPingPingPingPing'
p1228
sbsg55
Nsg56
I0
sg57
I5
sg58
I4
sg59
I16674
sg52
g1220
sg60
I00
sbsg55
Nsg52
Nsg53
I2048
sg60
I00
sbsbag1
(g2
g3
Ntp1229
Rp1230
(dp1231
g7
g365
sg27
g1
(g28
g3
Ntp1232
Rp1233
(dp1234
g32
g368
sg33
g118
sg34
g1
(g35
g3
Ntp1235
Rp1236
(dp1237
g39
I0
sg40
I17035
sg41
g123
sg42
I1
sg43
g373
sg44
I0
sg45
I64
sg46
I72
sg34
g1
(g47
g3
Ntp1238
Rp1239
(dp1240
g51
I0
sg40
I1591
sg52
g1236
sg53
I8
sg34
S'PingPingPingPingPingPingPingPingPingPingPingPing'
p1241
sbsg55
Nsg56
I0
sg57
I5
sg58
I4
sg59
I16675
sg52
g1233
sg60
I00
sbsg55
Nsg52
Nsg53
I2048
sg60
I00
sbsbag1
(g2
g3
Ntp1242
Rp1243
(dp1244
g7
g390
sg27
g1
(g28
g3
Ntp1245
Rp1246
(dp1247
g32
g393
sg33
g118
sg34
g1
(g35
g3
Ntp1248
Rp1249
(dp1250
g39
I0
sg40
I16779
sg41
g123
sg42
I1
sg43
g398
sg44
I0
sg45
I64
sg46
I72
sg34
g1
(g47
g3
Ntp1251
Rp1252
(dp1253
g51
I0
sg40
I1591
sg52
g1249
sg53
I8
sg34
S'PingPingPingPingPingPingPingPingPingPingPingPing'
p1254
sbsg55
Nsg56
I0
sg57
I5
sg58
I4
sg59
I16676
sg52
g1246
sg60
I00
sbsg55
Nsg52
Nsg53
I2048
sg60
I00
sbsbag1
(g2
g3
Ntp1255
Rp1256
(dp1257
g7
g415
sg27
g1
(g28
g3
Ntp1258
Rp1259
(dp1260
g32
g418
sg33
g118
sg34
g1
(g35
g3
Ntp1261
Rp1262
(dp1263
g39
I0
sg40
I16777
sg41
g123
sg42
I1
sg43
g423
sg44
I0
sg45
I64
sg46
I72
sg34
g1
(g47
g3
Ntp1264
Rp1265
(dp1266
g51
I0
sg40
I3639
sg52
g1262
sg53
I0
sg34
S'PingPingPingPingPingPingPingPingPingPingPingPing'
p1267
sbsg55
Nsg56
I0
sg57
I5
sg58
I4
sg59
I16677
sg52
g1259
sg60
I00
sbsg55
Nsg52
Nsg53
I2048
sg60
I00
sbsbag1
(g2
g3
Ntp1268
Rp1269
(dp1270
g7
g10
sg27
g1
(g28
g3
Ntp1271
Rp1272
(dp1273
g32
g15
sg33
g168
sg34
g1
(g35
g3
Ntp1274
Rp1275
(dp1276
g39
I0
sg40
I17291
sg41
g173
sg42
I1
sg43
g23
sg44
I0
sg45
I64
sg46
I72
sg34
g1
(g47
g3
Ntp1277
Rp1278
(dp1279
g51
I0
sg40
I3639
sg52
g1275
sg53
I0
sg34
S'PingPingPingPingPingPingPingPingPingPingPingPing'
p1280
sbsg55
Nsg56
I0
sg57
I5
sg58
I4
sg59
I16678
sg52
g1272
sg60
I00
sbsg55
Nsg52
Nsg53
I2048
sg60
I00
sbsbag1
(g2
g3
Ntp1281
Rp1282
(dp1283
g7
g65
sg27
g1
(g28
g3
Ntp1284
Rp1285
(dp1286
g32
g68
sg33
g168
sg34
g1
(g35
g3
Ntp1287
Rp1288
(dp1289
g39
I0
sg40
I17289
sg41
g173
sg42
I1
sg43
g73
sg44
I0
sg45
I64
sg46
I72
sg34
g1
(g47
g3
Ntp1290
Rp1291
(dp1292
g51
I0
sg40
I1591
sg52
g1288
sg53
I8
sg34
S'PingPingPingPingPingPingPingPingPingPingPingPing'
p1293
sbsg55
Nsg56
I0
sg57
I5
sg58
I4
sg59
I16679
sg52
g1285
sg60
I00
sbsg55
Nsg52
Nsg53
I2048
sg60
I00
sbsbag1
(g2
g3
Ntp1294
Rp1295
(dp1296
g7
g90
sg27
g1
(g28
g3
Ntp1297
Rp1298
(dp1299
g32
g93
sg33
g168
sg34
g1
(g35
g3
Ntp1300
Rp1301
(dp1302
g39
I0
sg40
I17033
sg41
g173
sg42
I1
sg43
g98
sg44
I0
sg45
I64
sg46
I72
sg34
g1
(g47
g3
Ntp1303
Rp1304
(dp1305
g51
I0
sg40
I3639
sg52
g1301
sg53
I0
sg34
S'PingPingPingPingPingPingPingPingPingPingPingPing'
p1306
sbsg55
Nsg56
I0
sg57
I5
sg58
I4
sg59
I16680
sg52
g1298
sg60
I00
sbsg55
Nsg52
Nsg53
I2048
sg60
I00
sbsbag1
(g2
g3
Ntp1307
Rp1308
(dp1309
g7
g115
sg27
g1
(g28
g3
Ntp1310
Rp1311
(dp1312
g32
g118
sg33
g168
sg34
g1
(g35
g3
Ntp1313
Rp1314
(dp1315
g39
I0
sg40
I17031
sg41
g173
sg42
I1
sg43
g123
sg44
I0
sg45
I64
sg46
I72
sg34
g1
(g47
g3
Ntp1316
Rp1317
(dp1318
g51
I0
sg40
I3639
sg52
g1314
sg53
I0
sg34
S'PingPingPingPingPingPingPingPingPingPingPingPing'
p1319
sbsg55
Nsg56
I0
sg57
I5
sg58
I4
sg59
I16681
sg52
g1311
sg60
I00
sbsg55
Nsg52
Nsg53
I2048
sg60
I00
sbsbag1
(g2
g3
Ntp1320
Rp1321
(dp1322
g7
g140
sg27
g1
(g28
g3
Ntp1323
Rp1324
(dp1325
g32
g143
sg33
g168
sg34
g1
(g35
g3
Ntp1326
Rp1327
(dp1328
g39
I0
sg40
I17286
sg41
g173
sg42
I1
sg43
g148
sg44
I0
sg45
I64
sg46
I72
sg34
g1
(g47
g3
Ntp1329
Rp1330
(dp1331
g51
I0
sg40
I1591
sg52
g1327
sg53
I8
sg34
S'PingPingPingPingPingPingPingPingPingPingPingPing'
p1332
sbsg55
Nsg56
I0
sg57
I5
sg58
I4
sg59
I16682
sg52
g1324
sg60
I00
sbsg55
Nsg52
Nsg53
I2048
sg60
I00
sbsbag1
(g2
g3
Ntp1333
Rp1334
(dp1335
g7
g165
sg27
g1
(g28
g3
Ntp1336
Rp1337
(dp1338
g32
g168
sg33
g143
sg34
g1
(g35
g3
Ntp1339
Rp1340
(dp1341
g39
I0
sg40
I17285
sg41
g148
sg42
I1
sg43
g173
sg44
I0
sg45
I64
sg46
I72
sg34
g1
(g47
g3
Ntp1342
Rp1343
(dp1344
g51
I0
sg40
I1591
sg52
g1340
sg53
I8
sg34
S'PingPingPingPingPingPingPingPingPingPingPingPing'
p1345
sbsg55
Nsg56
I0
sg57
I5
sg58
I4
sg59
I16683
sg52
g1337
sg60
I00
sbsg55
Nsg52
Nsg53
I2048
sg60
I00
sbsbag1
(g2
g3
Ntp1346
Rp1347
(dp1348
g7
g190
sg27
g1
(g28
g3
Ntp1349
Rp1350
(dp1351
g32
g193
sg33
g143
sg34
g1
(g35
g3
Ntp1352
Rp1353
(dp1354
g39
I0
sg40
I17029
sg41
g148
sg42
I1
sg43
g198
sg44
I0
sg45
I64
sg46
I72
sg34
g1
(g47
g3
Ntp1355
Rp1356
(dp1357
g51
I0
sg40
I1591
sg52
g1353
sg53
I8
sg34
S'PingPingPingPingPingPingPingPingPingPingPingPing'
p1358
sbsg55
Nsg56
I0
sg57
I5
sg58
I4
sg59
I16684
sg52
g1350
sg60
I00
sbsg55
Nsg52
Nsg53
I2048
sg60
I00
sbsbag1
(g2
g3
Ntp1359
Rp1360
(dp1361
g7
g215
sg27
g1
(g28
g3
Ntp1362
Rp1363
(dp1364
g32
g218
sg33
g143
sg34
g1
(g35
g3
Ntp1365
Rp1366
(dp1367
g39
I0
sg40
I17027
sg41
g148
sg42
I1
sg43
g223
sg44
I0
sg45
I64
sg46
I72
sg34
g1
(g47
g3
Ntp1368
Rp1369
(dp1370
g51
I0
sg40
I3639
sg52
g1366
sg53
I0
sg34
S'PingPingPingPingPingPingPingPingPingPingPingPing'
p1371
sbsg55
Nsg56
I0
sg57
I5
sg58
I4
sg59
I16685
sg52
g1363
sg60
I00
sbsg55
Nsg52
Nsg53
I2048
sg60
I00
sbsbag1
(g2
g3
Ntp1372
Rp1373
(dp1374
g7
g240
sg27
g1
(g28
g3
Ntp1375
Rp1376
(dp1377
g32
g243
sg33
g143
sg34
g1
(g35
g3
Ntp1378
Rp1379
(dp1380
g39
I0
sg40
I17282
sg41
g148
sg42
I1
sg43
g248
sg44
I0
sg45
I64
sg46
I72
sg34
g1
(g47
g3
Ntp1381
Rp1382
(dp1383
g51
I0
sg40
I3639
sg52
g1379
sg53
I0
sg34
S'PingPingPingPingPingPingPingPingPingPingPingPing'
p1384
sbsg55
Nsg56
I0
sg57
I5
sg58
I4
sg59
I16686
sg52
g1376
sg60
I00
sbsg55
Nsg52
Nsg53
I2048
sg60
I00
sbsbag1
(g2
g3
Ntp1385
Rp1386
(dp1387
g7
g265
sg27
g1
(g28
g3
Ntp1388
Rp1389
(dp1390
g32
g268
sg33
g143
sg34
g1
(g35
g3
Ntp1391
Rp1392
(dp1393
g39
I0
sg40
I17280
sg41
g148
sg42
I1
sg43
g273
sg44
I0
sg45
I64
sg46
I72
sg34
g1
(g47
g3
Ntp1394
Rp1395
(dp1396
g51
I0
sg40
I3639
sg52
g1392
sg53
I0
sg34
S'PingPingPingPingPingPingPingPingPingPingPingPing'
p1397
sbsg55
Nsg56
I0
sg57
I5
sg58
I4
sg59
I16687
sg52
g1389
sg60
I00
sbsg55
Nsg52
Nsg53
I2048
sg60
I00
sbsbag1
(g2
g3
Ntp1398
Rp1399
(dp1400
g7
g290
sg27
g1
(g28
g3
Ntp1401
Rp1402
(dp1403
g32
g293
sg33
g143
sg34
g1
(g35
g3
Ntp1404
Rp1405
(dp1406
g39
I0
sg40
I17024
sg41
g148
sg42
I1
sg43
g298
sg44
I0
sg45
I64
sg46
I72
sg34
g1
(g47
g3
Ntp1407
Rp1408
(dp1409
g51
I0
sg40
I3639
sg52
g1405
sg53
I0
sg34
S'PingPingPingPingPingPingPingPingPingPingPingPing'
p1410
sbsg55
Nsg56
I0
sg57
I5
sg58
I4
sg59
I16688
sg52
g1402
sg60
I00
sbsg55
Nsg52
Nsg53
I2048
sg60
I00
sbsbag1
(g2
g3
Ntp1411
Rp1412
(dp1413
g7
g315
sg27
g1
(g28
g3
Ntp1414
Rp1415
(dp1416
g32
g318
sg33
g143
sg34
g1
(g35
g3
Ntp1417
Rp1418
(dp1419
g39
I0
sg40
I17022
sg41
g148
sg42
I1
sg43
g323
sg44
I0
sg45
I64
sg46
I72
sg34
g1
(g47
g3
Ntp1420
Rp1421
(dp1422
g51
I0
sg40
I3639
sg52
g1418
sg53
I0
sg34
S'PingPingPingPingPingPingPingPingPingPingPingPing'
p1423
sbsg55
Nsg56
I0
sg57
I5
sg58
I4
sg59
I16689
sg52
g1415
sg60
I00
sbsg55
Nsg52
Nsg53
I2048
sg60
I00
sbsbag1
(g2
g3
Ntp1424
Rp1425
(dp1426
g7
g340
sg27
g1
(g28
g3
Ntp1427
Rp1428
(dp1429
g32
g343
sg33
g143
sg34
g1
(g35
g3
Ntp1430
Rp1431
(dp1432
g39
I0
sg40
I17277
sg41
g148
sg42
I1
sg43
g348
sg44
I0
sg45
I64
sg46
I72
sg34
g1
(g47
g3
Ntp1433
Rp1434
(dp1435
g51
I0
sg40
I3639
sg52
g1431
sg53
I0
sg34
S'PingPingPingPingPingPingPingPingPingPingPingPing'
p1436
sbsg55
Nsg56
I0
sg57
I5
sg58
I4
sg59
I16690
sg52
g1428
sg60
I00
sbsg55
Nsg52
Nsg53
I2048
sg60
I00
sbsbag1
(g2
g3
Ntp1437
Rp1438
(dp1439
g7
g365
sg27
g1
(g28
g3
Ntp1440
Rp1441
(dp1442
g32
g368
sg33
g143
sg34
g1
(g35
g3
Ntp1443
Rp1444
(dp1445
g39
I0
sg40
I17275
sg41
g148
sg42
I1
sg43
g373
sg44
I0
sg45
I64
sg46
I72
sg34
g1
(g47
g3
Ntp1446
Rp1447
(dp1448
g51
I0
sg40
I3639
sg52
g1444
sg53
I0
sg34
S'PingPingPingPingPingPingPingPingPingPingPingPing'
p1449
sbsg55
Nsg56
I0
sg57
I5
sg58
I4
sg59
I16691
sg52
g1441
sg60
I00
sbsg55
Nsg52
Nsg53
I2048
sg60
I00
sbsbag1
(g2
g3
Ntp1450
Rp1451
(dp1452
g7
g390
sg27
g1
(g28
g3
Ntp1453
Rp1454
(dp1455
g32
g393
sg33
g143
sg34
g1
(g35
g3
Ntp1456
Rp1457
(dp1458
g39
I0
sg40
I17019
sg41
g148
sg42
I1
sg43
g398
sg44
I0
sg45
I64
sg46
I72
sg34
g1
(g47
g3
Ntp1459
Rp1460
(dp1461
g51
I0
sg40
I1591
sg52
g1457
sg53
I8
sg34
S'PingPingPingPingPingPingPingPingPingPingPingPing'
p1462
sbsg55
Nsg56
I0
sg57
I5
sg58
I4
sg59
I16692
sg52
g1454
sg60
I00
sbsg55
Nsg52
Nsg53
I2048
sg60
I00
sbsbag1
(g2
g3
Ntp1463
Rp1464
(dp1465
g7
g415
sg27
g1
(g28
g3
Ntp1466
Rp1467
(dp1468
g32
g418
sg33
g143
sg34
g1
(g35
g3
Ntp1469
Rp1470
(dp1471
g39
I0
sg40
I17017
sg41
g148
sg42
I1
sg43
g423
sg44
I0
sg45
I64
sg46
I72
sg34
g1
(g47
g3
Ntp1472
Rp1473
(dp1474
g51
I0
sg40
I3639
sg52
g1470
sg53
I0
sg34
S'PingPingPingPingPingPingPingPingPingPingPingPing'
p1475
sbsg55
Nsg56
I0
sg57
I5
sg58
I4
sg59
I16693
sg52
g1467
sg60
I00
sbsg55
Nsg52
Nsg53
I2048
sg60
I00
sbsbag1
(g2
g3
Ntp1476
Rp1477
(dp1478
g7
g10
sg27
g1
(g28
g3
Ntp1479
Rp1480
(dp1481
g32
g15
sg33
g193
sg34
g1
(g35
g3
Ntp1482
Rp1483
(dp1484
g39
I0
sg40
I17020
sg41
g198
sg42
I1
sg43
g23
sg44
I0
sg45
I64
sg46
I72
sg34
g1
(g47
g3
Ntp1485
Rp1486
(dp1487
g51
I0
sg40
I3639
sg52
g1483
sg53
I0
sg34
S'PingPingPingPingPingPingPingPingPingPingPingPing'
p1488
sbsg55
Nsg56
I0
sg57
I5
sg58
I4
sg59
I16694
sg52
g1480
sg60
I00
sbsg55
Nsg52
Nsg53
I2048
sg60
I00
sbsbag1
(g2
g3
Ntp1489
Rp1490
(dp1491
g7
g65
sg27
g1
(g28
g3
Ntp1492
Rp1493
(dp1494
g32
g68
sg33
g193
sg34
g1
(g35
g3
Ntp1495
Rp1496
(dp1497
g39
I0
sg40
I17018
sg41
g198
sg42
I1
sg43
g73
sg44
I0
sg45
I64
sg46
I72
sg34
g1
(g47
g3
Ntp1498
Rp1499
(dp1500
g51
I0
sg40
I3639
sg52
g1496
sg53
I0
sg34
S'PingPingPingPingPingPingPingPingPingPingPingPing'
p1501
sbsg55
Nsg56
I0
sg57
I5
sg58
I4
sg59
I16695
sg52
g1493
sg60
I00
sbsg55
Nsg52
Nsg53
I2048
sg60
I00
sbsbag1
(g2
g3
Ntp1502
Rp1503
(dp1504
g7
g90
sg27
g1
(g28
g3
Ntp1505
Rp1506
(dp1507
g32
g93
sg33
g193
sg34
g1
(g35
g3
Ntp1508
Rp1509
(dp1510
g39
I0
sg40
I16762
sg41
g198
sg42
I1
sg43
g98
sg44
I0
sg45
I64
sg46
I72
sg34
g1
(g47
g3
Ntp1511
Rp1512
(dp1513
g51
I0
sg40
I3639
sg52
g1509
sg53
I0
sg34
S'PingPingPingPingPingPingPingPingPingPingPingPing'
p1514
sbsg55
Nsg56
I0
sg57
I5
sg58
I4
sg59
I16696
sg52
g1506
sg60
I00
sbsg55
Nsg52
Nsg53
I2048
sg60
I00
sbsbag1
(g2
g3
Ntp1515
Rp1516
(dp1517
g7
g115
sg27
g1
(g28
g3
Ntp1518
Rp1519
(dp1520
g32
g118
sg33
g193
sg34
g1
(g35
g3
Ntp1521
Rp1522
(dp1523
g39
I0
sg40
I16760
sg41
g198
sg42
I1
sg43
g123
sg44
I0
sg45
I64
sg46
I72
sg34
g1
(g47
g3
Ntp1524
Rp1525
(dp1526
g51
I0
sg40
I1591
sg52
g1522
sg53
I8
sg34
S'PingPingPingPingPingPingPingPingPingPingPingPing'
p1527
sbsg55
Nsg56
I0
sg57
I5
sg58
I4
sg59
I16697
sg52
g1519
sg60
I00
sbsg55
Nsg52
Nsg53
I2048
sg60
I00
sbsbag1
(g2
g3
Ntp1528
Rp1529
(dp1530
g7
g140
sg27
g1
(g28
g3
Ntp1531
Rp1532
(dp1533
g32
g143
sg33
g193
sg34
g1
(g35
g3
Ntp1534
Rp1535
(dp1536
g39
I0
sg40
I17015
sg41
g198
sg42
I1
sg43
g148
sg44
I0
sg45
I64
sg46
I72
sg34
g1
(g47
g3
Ntp1537
Rp1538
(dp1539
g51
I0
sg40
I3639
sg52
g1535
sg53
I0
sg34
S'PingPingPingPingPingPingPingPingPingPingPingPing'
p1540
sbsg55
Nsg56
I0
sg57
I5
sg58
I4
sg59
I16698
sg52
g1532
sg60
I00
sbsg55
Nsg52
Nsg53
I2048
sg60
I00
sbsbag1
(g2
g3
Ntp1541
Rp1542
(dp1543
g7
g165
sg27
g1
(g28
g3
Ntp1544
Rp1545
(dp1546
g32
g168
sg33
g193
sg34
g1
(g35
g3
Ntp1547
Rp1548
(dp1549
g39
I0
sg40
I17013
sg41
g198
sg42
I1
sg43
g173
sg44
I0
sg45
I64
sg46
I72
sg34
g1
(g47
g3
Ntp1550
Rp1551
(dp1552
g51
I0
sg40
I3639
sg52
g1548
sg53
I0
sg34
S'PingPingPingPingPingPingPingPingPingPingPingPing'
p1553
sbsg55
Nsg56
I0
sg57
I5
sg58
I4
sg59
I16699
sg52
g1545
sg60
I00
sbsg55
Nsg52
Nsg53
I2048
sg60
I00
sbsbag1
(g2
g3
Ntp1554
Rp1555
(dp1556
g7
g190
sg27
g1
(g28
g3
Ntp1557
Rp1558
(dp1559
g32
g193
sg33
g168
sg34
g1
(g35
g3
Ntp1560
Rp1561
(dp1562
g39
I0
sg40
I17012
sg41
g173
sg42
I1
sg43
g198
sg44
I0
sg45
I64
sg46
I72
sg34
g1
(g47
g3
Ntp1563
Rp1564
(dp1565
g51
I0
sg40
I3639
sg52
g1561
sg53
I0
sg34
S'PingPingPingPingPingPingPingPingPingPingPingPing'
p1566
sbsg55
Nsg56
I0
sg57
I5
sg58
I4
sg59
I16700
sg52
g1558
sg60
I00
sbsg55
Nsg52
Nsg53
I2048
sg60
I00
sbsbag1
(g2
g3
Ntp1567
Rp1568
(dp1569
g7
g215
sg27
g1
(g28
g3
Ntp1570
Rp1571
(dp1572
g32
g218
sg33
g168
sg34
g1
(g35
g3
Ntp1573
Rp1574
(dp1575
g39
I0
sg40
I17010
sg41
g173
sg42
I1
sg43
g223
sg44
I0
sg45
I64
sg46
I72
sg34
g1
(g47
g3
Ntp1576
Rp1577
(dp1578
g51
I0
sg40
I3639
sg52
g1574
sg53
I0
sg34
S'PingPingPingPingPingPingPingPingPingPingPingPing'
p1579
sbsg55
Nsg56
I0
sg57
I5
sg58
I4
sg59
I16701
sg52
g1571
sg60
I00
sbsg55
Nsg52
Nsg53
I2048
sg60
I00
sbsbag1
(g2
g3
Ntp1580
Rp1581
(dp1582
g7
g240
sg27
g1
(g28
g3
Ntp1583
Rp1584
(dp1585
g32
g243
sg33
g168
sg34
g1
(g35
g3
Ntp1586
Rp1587
(dp1588
g39
I0
sg40
I17265
sg41
g173
sg42
I1
sg43
g248
sg44
I0
sg45
I64
sg46
I72
sg34
g1
(g47
g3
Ntp1589
Rp1590
(dp1591
g51
I0
sg40
I1591
sg52
g1587
sg53
I8
sg34
S'PingPingPingPingPingPingPingPingPingPingPingPing'
p1592
sbsg55
Nsg56
I0
sg57
I5
sg58
I4
sg59
I16702
sg52
g1584
sg60
I00
sbsg55
Nsg52
Nsg53
I2048
sg60
I00
sbsbag1
(g2
g3
Ntp1593
Rp1594
(dp1595
g7
g265
sg27
g1
(g28
g3
Ntp1596
Rp1597
(dp1598
g32
g268
sg33
g168
sg34
g1
(g35
g3
Ntp1599
Rp1600
(dp1601
g39
I0
sg40
I17263
sg41
g173
sg42
I1
sg43
g273
sg44
I0
sg45
I64
sg46
I72
sg34
g1
(g47
g3
Ntp1602
Rp1603
(dp1604
g51
I0
sg40
I3639
sg52
g1600
sg53
I0
sg34
S'PingPingPingPingPingPingPingPingPingPingPingPing'
p1605
sbsg55
Nsg56
I0
sg57
I5
sg58
I4
sg59
I16703
sg52
g1597
sg60
I00
sbsg55
Nsg52
Nsg53
I2048
sg60
I00
sbsbag1
(g2
g3
Ntp1606
Rp1607
(dp1608
g7
g290
sg27
g1
(g28
g3
Ntp1609
Rp1610
(dp1611
g32
g293
sg33
g168
sg34
g1
(g35
g3
Ntp1612
Rp1613
(dp1614
g39
I0
sg40
I17007
sg41
g173
sg42
I1
sg43
g298
sg44
I0
sg45
I64
sg46
I72
sg34
g1
(g47
g3
Ntp1615
Rp1616
(dp1617
g51
I0
sg40
I3639
sg52
g1613
sg53
I0
sg34
S'PingPingPingPingPingPingPingPingPingPingPingPing'
p1618
sbsg55
Nsg56
I0
sg57
I5
sg58
I4
sg59
I16704
sg52
g1610
sg60
I00
sbsg55
Nsg52
Nsg53
I2048
sg60
I00
sbsbag1
(g2
g3
Ntp1619
Rp1620
(dp1621
g7
g315
sg27
g1
(g28
g3
Ntp1622
Rp1623
(dp1624
g32
g318
sg33
g168
sg34
g1
(g35
g3
Ntp1625
Rp1626
(dp1627
g39
I0
sg40
I17005
sg41
g173
sg42
I1
sg43
g323
sg44
I0
sg45
I64
sg46
I72
sg34
g1
(g47
g3
Ntp1628
Rp1629
(dp1630
g51
I0
sg40
I1591
sg52
g1626
sg53
I8
sg34
S'PingPingPingPingPingPingPingPingPingPingPingPing'
p1631
sbsg55
Nsg56
I0
sg57
I5
sg58
I4
sg59
I16705
sg52
g1623
sg60
I00
sbsg55
Nsg52
Nsg53
I2048
sg60
I00
sbsbag1
(g2
g3
Ntp1632
Rp1633
(dp1634
g7
g340
sg27
g1
(g28
g3
Ntp1635
Rp1636
(dp1637
g32
g343
sg33
g168
sg34
g1
(g35
g3
Ntp1638
Rp1639
(dp1640
g39
I0
sg40
I17260
sg41
g173
sg42
I1
sg43
g348
sg44
I0
sg45
I64
sg46
I72
sg34
g1
(g47
g3
Ntp1641
Rp1642
(dp1643
g51
I0
sg40
I3639
sg52
g1639
sg53
I0
sg34
S'PingPingPingPingPingPingPingPingPingPingPingPing'
p1644
sbsg55
Nsg56
I0
sg57
I5
sg58
I4
sg59
I16706
sg52
g1636
sg60
I00
sbsg55
Nsg52
Nsg53
I2048
sg60
I00
sbsbag1
(g2
g3
Ntp1645
Rp1646
(dp1647
g7
g365
sg27
g1
(g28
g3
Ntp1648
Rp1649
(dp1650
g32
g368
sg33
g168
sg34
g1
(g35
g3
Ntp1651
Rp1652
(dp1653
g39
I0
sg40
I17258
sg41
g173
sg42
I1
sg43
g373
sg44
I0
sg45
I64
sg46
I72
sg34
g1
(g47
g3
Ntp1654
Rp1655
(dp1656
g51
I0
sg40
I3639
sg52
g1652
sg53
I0
sg34
S'PingPingPingPingPingPingPingPingPingPingPingPing'
p1657
sbsg55
Nsg56
I0
sg57
I5
sg58
I4
sg59
I16707
sg52
g1649
sg60
I00
sbsg55
Nsg52
Nsg53
I2048
sg60
I00
sbsbag1
(g2
g3
Ntp1658
Rp1659
(dp1660
g7
g390
sg27
g1
(g28
g3
Ntp1661
Rp1662
(dp1663
g32
g393
sg33
g168
sg34
g1
(g35
g3
Ntp1664
Rp1665
(dp1666
g39
I0
sg40
I17002
sg41
g173
sg42
I1
sg43
g398
sg44
I0
sg45
I64
sg46
I72
sg34
g1
(g47
g3
Ntp1667
Rp1668
(dp1669
g51
I0
sg40
I1591
sg52
g1665
sg53
I8
sg34
S'PingPingPingPingPingPingPingPingPingPingPingPing'
p1670
sbsg55
Nsg56
I0
sg57
I5
sg58
I4
sg59
I16708
sg52
g1662
sg60
I00
sbsg55
Nsg52
Nsg53
I2048
sg60
I00
sbsbag1
(g2
g3
Ntp1671
Rp1672
(dp1673
g7
g415
sg27
g1
(g28
g3
Ntp1674
Rp1675
(dp1676
g32
g418
sg33
g168
sg34
g1
(g35
g3
Ntp1677
Rp1678
(dp1679
g39
I0
sg40
I17000
sg41
g173
sg42
I1
sg43
g423
sg44
I0
sg45
I64
sg46
I72
sg34
g1
(g47
g3
Ntp1680
Rp1681
(dp1682
g51
I0
sg40
I1591
sg52
g1678
sg53
I8
sg34
S'PingPingPingPingPingPingPingPingPingPingPingPing'
p1683
sbsg55
Nsg56
I0
sg57
I5
sg58
I4
sg59
I16709
sg52
g1675
sg60
I00
sbsg55
Nsg52
Nsg53
I2048
sg60
I00
sbsbag1
(g2
g3
Ntp1684
Rp1685
(dp1686
g7
g10
sg27
g1
(g28
g3
Ntp1687
Rp1688
(dp1689
g32
g15
sg33
g218
sg34
g1
(g35
g3
Ntp1690
Rp1691
(dp1692
g39
I0
sg40
I17003
sg41
g223
sg42
I1
sg43
g23
sg44
I0
sg45
I64
sg46
I72
sg34
g1
(g47
g3
Ntp1693
Rp1694
(dp1695
g51
I0
sg40
I3639
sg52
g1691
sg53
I0
sg34
S'PingPingPingPingPingPingPingPingPingPingPingPing'
p1696
sbsg55
Nsg56
I0
sg57
I5
sg58
I4
sg59
I16710
sg52
g1688
sg60
I00
sbsg55
Nsg52
Nsg53
I2048
sg60
I00
sbsbag1
(g2
g3
Ntp1697
Rp1698
(dp1699
g7
g65
sg27
g1
(g28
g3
Ntp1700
Rp1701
(dp1702
g32
g68
sg33
g218
sg34
g1
(g35
g3
Ntp1703
Rp1704
(dp1705
g39
I0
sg40
I17001
sg41
g223
sg42
I1
sg43
g73
sg44
I0
sg45
I64
sg46
I72
sg34
g1
(g47
g3
Ntp1706
Rp1707
(dp1708
g51
I0
sg40
I1591
sg52
g1704
sg53
I8
sg34
S'PingPingPingPingPingPingPingPingPingPingPingPing'
p1709
sbsg55
Nsg56
I0
sg57
I5
sg58
I4
sg59
I16711
sg52
g1701
sg60
I00
sbsg55
Nsg52
Nsg53
I2048
sg60
I00
sbsbag1
(g2
g3
Ntp1710
Rp1711
(dp1712
g7
g90
sg27
g1
(g28
g3
Ntp1713
Rp1714
(dp1715
g32
g93
sg33
g218
sg34
g1
(g35
g3
Ntp1716
Rp1717
(dp1718
g39
I0
sg40
I16745
sg41
g223
sg42
I1
sg43
g98
sg44
I0
sg45
I64
sg46
I72
sg34
g1
(g47
g3
Ntp1719
Rp1720
(dp1721
g51
I0
sg40
I3639
sg52
g1717
sg53
I0
sg34
S'PingPingPingPingPingPingPingPingPingPingPingPing'
p1722
sbsg55
Nsg56
I0
sg57
I5
sg58
I4
sg59
I16712
sg52
g1714
sg60
I00
sbsg55
Nsg52
Nsg53
I2048
sg60
I00
sbsbag1
(g2
g3
Ntp1723
Rp1724
(dp1725
g7
g115
sg27
g1
(g28
g3
Ntp1726
Rp1727
(dp1728
g32
g118
sg33
g218
sg34
g1
(g35
g3
Ntp1729
Rp1730
(dp1731
g39
I0
sg40
I16743
sg41
g223
sg42
I1
sg43
g123
sg44
I0
sg45
I64
sg46
I72
sg34
g1
(g47
g3
Ntp1732
Rp1733
(dp1734
g51
I0
sg40
I1591
sg52
g1730
sg53
I8
sg34
S'PingPingPingPingPingPingPingPingPingPingPingPing'
p1735
sbsg55
Nsg56
I0
sg57
I5
sg58
I4
sg59
I16713
sg52
g1727
sg60
I00
sbsg55
Nsg52
Nsg53
I2048
sg60
I00
sbsbag1
(g2
g3
Ntp1736
Rp1737
(dp1738
g7
g140
sg27
g1
(g28
g3
Ntp1739
Rp1740
(dp1741
g32
g143
sg33
g218
sg34
g1
(g35
g3
Ntp1742
Rp1743
(dp1744
g39
I0
sg40
I16998
sg41
g223
sg42
I1
sg43
g148
sg44
I0
sg45
I64
sg46
I72
sg34
g1
(g47
g3
Ntp1745
Rp1746
(dp1747
g51
I0
sg40
I3639
sg52
g1743
sg53
I0
sg34
S'PingPingPingPingPingPingPingPingPingPingPingPing'
p1748
sbsg55
Nsg56
I0
sg57
I5
sg58
I4
sg59
I16714
sg52
g1740
sg60
I00
sbsg55
Nsg52
Nsg53
I2048
sg60
I00
sbsbag1
(g2
g3
Ntp1749
Rp1750
(dp1751
g7
g165
sg27
g1
(g28
g3
Ntp1752
Rp1753
(dp1754
g32
g168
sg33
g218
sg34
g1
(g35
g3
Ntp1755
Rp1756
(dp1757
g39
I0
sg40
I16996
sg41
g223
sg42
I1
sg43
g173
sg44
I0
sg45
I64
sg46
I72
sg34
g1
(g47
g3
Ntp1758
Rp1759
(dp1760
g51
I0
sg40
I3639
sg52
g1756
sg53
I0
sg34
S'PingPingPingPingPingPingPingPingPingPingPingPing'
p1761
sbsg55
Nsg56
I0
sg57
I5
sg58
I4
sg59
I16715
sg52
g1753
sg60
I00
sbsg55
Nsg52
Nsg53
I2048
sg60
I00
sbsbag1
(g2
g3
Ntp1762
Rp1763
(dp1764
g7
g190
sg27
g1
(g28
g3
Ntp1765
Rp1766
(dp1767
g32
g193
sg33
g218
sg34
g1
(g35
g3
Ntp1768
Rp1769
(dp1770
g39
I0
sg40
I16740
sg41
g223
sg42
I1
sg43
g198
sg44
I0
sg45
I64
sg46
I72
sg34
g1
(g47
g3
Ntp1771
Rp1772
(dp1773
g51
I0
sg40
I3639
sg52
g1769
sg53
I0
sg34
S'PingPingPingPingPingPingPingPingPingPingPingPing'
p1774
sbsg55
Nsg56
I0
sg57
I5
sg58
I4
sg59
I16716
sg52
g1766
sg60
I00
sbsg55
Nsg52
Nsg53
I2048
sg60
I00
sbsbag1
(g2
g3
Ntp1775
Rp1776
(dp1777
g7
g215
sg27
g1
(g28
g3
Ntp1778
Rp1779
(dp1780
g32
g218
sg33
g193
sg34
g1
(g35
g3
Ntp1781
Rp1782
(dp1783
g39
I0
sg40
I16739
sg41
g198
sg42
I1
sg43
g223
sg44
I0
sg45
I64
sg46
I72
sg34
g1
(g47
g3
Ntp1784
Rp1785
(dp1786
g51
I0
sg40
I3639
sg52
g1782
sg53
I0
sg34
S'PingPingPingPingPingPingPingPingPingPingPingPing'
p1787
sbsg55
Nsg56
I0
sg57
I5
sg58
I4
sg59
I16717
sg52
g1779
sg60
I00
sbsg55
Nsg52
Nsg53
I2048
sg60
I00
sbsbag1
(g2
g3
Ntp1788
Rp1789
(dp1790
g7
g240
sg27
g1
(g28
g3
Ntp1791
Rp1792
(dp1793
g32
g243
sg33
g193
sg34
g1
(g35
g3
Ntp1794
Rp1795
(dp1796
g39
I0
sg40
I16994
sg41
g198
sg42
I1
sg43
g248
sg44
I0
sg45
I64
sg46
I72
sg34
g1
(g47
g3
Ntp1797
Rp1798
(dp1799
g51
I0
sg40
I1591
sg52
g1795
sg53
I8
sg34
S'PingPingPingPingPingPingPingPingPingPingPingPing'
p1800
sbsg55
Nsg56
I0
sg57
I5
sg58
I4
sg59
I16718
sg52
g1792
sg60
I00
sbsg55
Nsg52
Nsg53
I2048
sg60
I00
sbsbag1
(g2
g3
Ntp1801
Rp1802
(dp1803
g7
g265
sg27
g1
(g28
g3
Ntp1804
Rp1805
(dp1806
g32
g268
sg33
g193
sg34
g1
(g35
g3
Ntp1807
Rp1808
(dp1809
g39
I0
sg40
I16992
sg41
g198
sg42
I1
sg43
g273
sg44
I0
sg45
I64
sg46
I72
sg34
g1
(g47
g3
Ntp1810
Rp1811
(dp1812
g51
I0
sg40
I1591
sg52
g1808
sg53
I8
sg34
S'PingPingPingPingPingPingPingPingPingPingPingPing'
p1813
sbsg55
Nsg56
I0
sg57
I5
sg58
I4
sg59
I16719
sg52
g1805
sg60
I00
sbsg55
Nsg52
Nsg53
I2048
sg60
I00
sbsbag1
(g2
g3
Ntp1814
Rp1815
(dp1816
g7
g290
sg27
g1
(g28
g3
Ntp1817
Rp1818
(dp1819
g32
g293
sg33
g193
sg34
g1
(g35
g3
Ntp1820
Rp1821
(dp1822
g39
I0
sg40
I16736
sg41
g198
sg42
I1
sg43
g298
sg44
I0
sg45
I64
sg46
I72
sg34
g1
(g47
g3
Ntp1823
Rp1824
(dp1825
g51
I0
sg40
I1591
sg52
g1821
sg53
I8
sg34
S'PingPingPingPingPingPingPingPingPingPingPingPing'
p1826
sbsg55
Nsg56
I0
sg57
I5
sg58
I4
sg59
I16720
sg52
g1818
sg60
I00
sbsg55
Nsg52
Nsg53
I2048
sg60
I00
sbsbag1
(g2
g3
Ntp1827
Rp1828
(dp1829
g7
g315
sg27
g1
(g28
g3
Ntp1830
Rp1831
(dp1832
g32
g318
sg33
g193
sg34
g1
(g35
g3
Ntp1833
Rp1834
(dp1835
g39
I0
sg40
I16734
sg41
g198
sg42
I1
sg43
g323
sg44
I0
sg45
I64
sg46
I72
sg34
g1
(g47
g3
Ntp1836
Rp1837
(dp1838
g51
I0
sg40
I3639
sg52
g1834
sg53
I0
sg34
S'PingPingPingPingPingPingPingPingPingPingPingPing'
p1839
sbsg55
Nsg56
I0
sg57
I5
sg58
I4
sg59
I16721
sg52
g1831
sg60
I00
sbsg55
Nsg52
Nsg53
I2048
sg60
I00
sbsbag1
(g2
g3
Ntp1840
Rp1841
(dp1842
g7
g340
sg27
g1
(g28
g3
Ntp1843
Rp1844
(dp1845
g32
g343
sg33
g193
sg34
g1
(g35
g3
Ntp1846
Rp1847
(dp1848
g39
I0
sg40
I16989
sg41
g198
sg42
I1
sg43
g348
sg44
I0
sg45
I64
sg46
I72
sg34
g1
(g47
g3
Ntp1849
Rp1850
(dp1851
g51
I0
sg40
I1591
sg52
g1847
sg53
I8
sg34
S'PingPingPingPingPingPingPingPingPingPingPingPing'
p1852
sbsg55
Nsg56
I0
sg57
I5
sg58
I4
sg59
I16722
sg52
g1844
sg60
I00
sbsg55
Nsg52
Nsg53
I2048
sg60
I00
sbsbag1
(g2
g3
Ntp1853
Rp1854
(dp1855
g7
g365
sg27
g1
(g28
g3
Ntp1856
Rp1857
(dp1858
g32
g368
sg33
g193
sg34
g1
(g35
g3
Ntp1859
Rp1860
(dp1861
g39
I0
sg40
I16987
sg41
g198
sg42
I1
sg43
g373
sg44
I0
sg45
I64
sg46
I72
sg34
g1
(g47
g3
Ntp1862
Rp1863
(dp1864
g51
I0
sg40
I3639
sg52
g1860
sg53
I0
sg34
S'PingPingPingPingPingPingPingPingPingPingPingPing'
p1865
sbsg55
Nsg56
I0
sg57
I5
sg58
I4
sg59
I16723
sg52
g1857
sg60
I00
sbsg55
Nsg52
Nsg53
I2048
sg60
I00
sbsbag1
(g2
g3
Ntp1866
Rp1867
(dp1868
g7
g390
sg27
g1
(g28
g3
Ntp1869
Rp1870
(dp1871
g32
g393
sg33
g193
sg34
g1
(g35
g3
Ntp1872
Rp1873
(dp1874
g39
I0
sg40
I16731
sg41
g198
sg42
I1
sg43
g398
sg44
I0
sg45
I64
sg46
I72
sg34
g1
(g47
g3
Ntp1875
Rp1876
(dp1877
g51
I0
sg40
I1591
sg52
g1873
sg53
I8
sg34
S'PingPingPingPingPingPingPingPingPingPingPingPing'
p1878
sbsg55
Nsg56
I0
sg57
I5
sg58
I4
sg59
I16724
sg52
g1870
sg60
I00
sbsg55
Nsg52
Nsg53
I2048
sg60
I00
sbsbag1
(g2
g3
Ntp1879
Rp1880
(dp1881
g7
g415
sg27
g1
(g28
g3
Ntp1882
Rp1883
(dp1884
g32
g418
sg33
g193
sg34
g1
(g35
g3
Ntp1885
Rp1886
(dp1887
g39
I0
sg40
I16729
sg41
g198
sg42
I1
sg43
g423
sg44
I0
sg45
I64
sg46
I72
sg34
g1
(g47
g3
Ntp1888
Rp1889
(dp1890
g51
I0
sg40
I3639
sg52
g1886
sg53
I0
sg34
S'PingPingPingPingPingPingPingPingPingPingPingPing'
p1891
sbsg55
Nsg56
I0
sg57
I5
sg58
I4
sg59
I16725
sg52
g1883
sg60
I00
sbsg55
Nsg52
Nsg53
I2048
sg60
I00
sbsbag1
(g2
g3
Ntp1892
Rp1893
(dp1894
g7
g10
sg27
g1
(g28
g3
Ntp1895
Rp1896
(dp1897
g32
g15
sg33
g243
sg34
g1
(g35
g3
Ntp1898
Rp1899
(dp1900
g39
I0
sg40
I17243
sg41
g248
sg42
I1
sg43
g23
sg44
I0
sg45
I64
sg46
I72
sg34
g1
(g47
g3
Ntp1901
Rp1902
(dp1903
g51
I0
sg40
I3639
sg52
g1899
sg53
I0
sg34
S'PingPingPingPingPingPingPingPingPingPingPingPing'
p1904
sbsg55
Nsg56
I0
sg57
I5
sg58
I4
sg59
I16726
sg52
g1896
sg60
I00
sbsg55
Nsg52
Nsg53
I2048
sg60
I00
sbsbag1
(g2
g3
Ntp1905
Rp1906
(dp1907
g7
g65
sg27
g1
(g28
g3
Ntp1908
Rp1909
(dp1910
g32
g68
sg33
g243
sg34
g1
(g35
g3
Ntp1911
Rp1912
(dp1913
g39
I0
sg40
I17241
sg41
g248
sg42
I1
sg43
g73
sg44
I0
sg45
I64
sg46
I72
sg34
g1
(g47
g3
Ntp1914
Rp1915
(dp1916
g51
I0
sg40
I3639
sg52
g1912
sg53
I0
sg34
S'PingPingPingPingPingPingPingPingPingPingPingPing'
p1917
sbsg55
Nsg56
I0
sg57
I5
sg58
I4
sg59
I16727
sg52
g1909
sg60
I00
sbsg55
Nsg52
Nsg53
I2048
sg60
I00
sbsbag1
(g2
g3
Ntp1918
Rp1919
(dp1920
g7
g90
sg27
g1
(g28
g3
Ntp1921
Rp1922
(dp1923
g32
g93
sg33
g243
sg34
g1
(g35
g3
Ntp1924
Rp1925
(dp1926
g39
I0
sg40
I16985
sg41
g248
sg42
I1
sg43
g98
sg44
I0
sg45
I64
sg46
I72
sg34
g1
(g47
g3
Ntp1927
Rp1928
(dp1929
g51
I0
sg40
I3639
sg52
g1925
sg53
I0
sg34
S'PingPingPingPingPingPingPingPingPingPingPingPing'
p1930
sbsg55
Nsg56
I0
sg57
I5
sg58
I4
sg59
I16728
sg52
g1922
sg60
I00
sbsg55
Nsg52
Nsg53
I2048
sg60
I00
sbsbag1
(g2
g3
Ntp1931
Rp1932
(dp1933
g7
g115
sg27
g1
(g28
g3
Ntp1934
Rp1935
(dp1936
g32
g118
sg33
g243
sg34
g1
(g35
g3
Ntp1937
Rp1938
(dp1939
g39
I0
sg40
I16983
sg41
g248
sg42
I1
sg43
g123
sg44
I0
sg45
I64
sg46
I72
sg34
g1
(g47
g3
Ntp1940
Rp1941
(dp1942
g51
I0
sg40
I1591
sg52
g1938
sg53
I8
sg34
S'PingPingPingPingPingPingPingPingPingPingPingPing'
p1943
sbsg55
Nsg56
I0
sg57
I5
sg58
I4
sg59
I16729
sg52
g1935
sg60
I00
sbsg55
Nsg52
Nsg53
I2048
sg60
I00
sbsbag1
(g2
g3
Ntp1944
Rp1945
(dp1946
g7
g140
sg27
g1
(g28
g3
Ntp1947
Rp1948
(dp1949
g32
g143
sg33
g243
sg34
g1
(g35
g3
Ntp1950
Rp1951
(dp1952
g39
I0
sg40
I17238
sg41
g248
sg42
I1
sg43
g148
sg44
I0
sg45
I64
sg46
I72
sg34
g1
(g47
g3
Ntp1953
Rp1954
(dp1955
g51
I0
sg40
I1591
sg52
g1951
sg53
I8
sg34
S'PingPingPingPingPingPingPingPingPingPingPingPing'
p1956
sbsg55
Nsg56
I0
sg57
I5
sg58
I4
sg59
I16730
sg52
g1948
sg60
I00
sbsg55
Nsg52
Nsg53
I2048
sg60
I00
sbsbag1
(g2
g3
Ntp1957
Rp1958
(dp1959
g7
g165
sg27
g1
(g28
g3
Ntp1960
Rp1961
(dp1962
g32
g168
sg33
g243
sg34
g1
(g35
g3
Ntp1963
Rp1964
(dp1965
g39
I0
sg40
I17236
sg41
g248
sg42
I1
sg43
g173
sg44
I0
sg45
I64
sg46
I72
sg34
g1
(g47
g3
Ntp1966
Rp1967
(dp1968
g51
I0
sg40
I3639
sg52
g1964
sg53
I0
sg34
S'PingPingPingPingPingPingPingPingPingPingPingPing'
p1969
sbsg55
Nsg56
I0
sg57
I5
sg58
I4
sg59
I16731
sg52
g1961
sg60
I00
sbsg55
Nsg52
Nsg53
I2048
sg60
I00
sbsbag1
(g2
g3
Ntp1970
Rp1971
(dp1972
g7
g190
sg27
g1
(g28
g3
Ntp1973
Rp1974
(dp1975
g32
g193
sg33
g243
sg34
g1
(g35
g3
Ntp1976
Rp1977
(dp1978
g39
I0
sg40
I16980
sg41
g248
sg42
I1
sg43
g198
sg44
I0
sg45
I64
sg46
I72
sg34
g1
(g47
g3
Ntp1979
Rp1980
(dp1981
g51
I0
sg40
I1591
sg52
g1977
sg53
I8
sg34
S'PingPingPingPingPingPingPingPingPingPingPingPing'
p1982
sbsg55
Nsg56
I0
sg57
I5
sg58
I4
sg59
I16732
sg52
g1974
sg60
I00
sbsg55
Nsg52
Nsg53
I2048
sg60
I00
sbsbag1
(g2
g3
Ntp1983
Rp1984
(dp1985
g7
g215
sg27
g1
(g28
g3
Ntp1986
Rp1987
(dp1988
g32
g218
sg33
g243
sg34
g1
(g35
g3
Ntp1989
Rp1990
(dp1991
g39
I0
sg40
I16978
sg41
g248
sg42
I1
sg43
g223
sg44
I0
sg45
I64
sg46
I72
sg34
g1
(g47
g3
Ntp1992
Rp1993
(dp1994
g51
I0
sg40
I3639
sg52
g1990
sg53
I0
sg34
S'PingPingPingPingPingPingPingPingPingPingPingPing'
p1995
sbsg55
Nsg56
I0
sg57
I5
sg58
I4
sg59
I16733
sg52
g1987
sg60
I00
sbsg55
Nsg52
Nsg53
I2048
sg60
I00
sbsbag1
(g2
g3
Ntp1996
Rp1997
(dp1998
g7
g240
sg27
g1
(g28
g3
Ntp1999
Rp2000
(dp2001
g32
g243
sg33
g218
sg34
g1
(g35
g3
Ntp2002
Rp2003
(dp2004
g39
I0
sg40
I16977
sg41
g223
sg42
I1
sg43
g248
sg44
I0
sg45
I64
sg46
I72
sg34
g1
(g47
g3
Ntp2005
Rp2006
(dp2007
g51
I0
sg40
I3639
sg52
g2003
sg53
I0
sg34
S'PingPingPingPingPingPingPingPingPingPingPingPing'
p2008
sbsg55
Nsg56
I0
sg57
I5
sg58
I4
sg59
I16734
sg52
g2000
sg60
I00
sbsg55
Nsg52
Nsg53
I2048
sg60
I00
sbsbag1
(g2
g3
Ntp2009
Rp2010
(dp2011
g7
g265
sg27
g1
(g28
g3
Ntp2012
Rp2013
(dp2014
g32
g268
sg33
g218
sg34
g1
(g35
g3
Ntp2015
Rp2016
(dp2017
g39
I0
sg40
I16975
sg41
g223
sg42
I1
sg43
g273
sg44
I0
sg45
I64
sg46
I72
sg34
g1
(g47
g3
Ntp2018
Rp2019
(dp2020
g51
I0
sg40
I3639
sg52
g2016
sg53
I0
sg34
S'PingPingPingPingPingPingPingPingPingPingPingPing'
p2021
sbsg55
Nsg56
I0
sg57
I5
sg58
I4
sg59
I16735
sg52
g2013
sg60
I00
sbsg55
Nsg52
Nsg53
I2048
sg60
I00
sbsbag1
(g2
g3
Ntp2022
Rp2023
(dp2024
g7
g290
sg27
g1
(g28
g3
Ntp2025
Rp2026
(dp2027
g32
g293
sg33
g218
sg34
g1
(g35
g3
Ntp2028
Rp2029
(dp2030
g39
I0
sg40
I16719
sg41
g223
sg42
I1
sg43
g298
sg44
I0
sg45
I64
sg46
I72
sg34
g1
(g47
g3
Ntp2031
Rp2032
(dp2033
g51
I0
sg40
I3639
sg52
g2029
sg53
I0
sg34
S'PingPingPingPingPingPingPingPingPingPingPingPing'
p2034
sbsg55
Nsg56
I0
sg57
I5
sg58
I4
sg59
I16736
sg52
g2026
sg60
I00
sbsg55
Nsg52
Nsg53
I2048
sg60
I00
sbsbag1
(g2
g3
Ntp2035
Rp2036
(dp2037
g7
g315
sg27
g1
(g28
g3
Ntp2038
Rp2039
(dp2040
g32
g318
sg33
g218
sg34
g1
(g35
g3
Ntp2041
Rp2042
(dp2043
g39
I0
sg40
I16717
sg41
g223
sg42
I1
sg43
g323
sg44
I0
sg45
I64
sg46
I72
sg34
g1
(g47
g3
Ntp2044
Rp2045
(dp2046
g51
I0
sg40
I1591
sg52
g2042
sg53
I8
sg34
S'PingPingPingPingPingPingPingPingPingPingPingPing'
p2047
sbsg55
Nsg56
I0
sg57
I5
sg58
I4
sg59
I16737
sg52
g2039
sg60
I00
sbsg55
Nsg52
Nsg53
I2048
sg60
I00
sbsbag1
(g2
g3
Ntp2048
Rp2049
(dp2050
g7
g340
sg27
g1
(g28
g3
Ntp2051
Rp2052
(dp2053
g32
g343
sg33
g218
sg34
g1
(g35
g3
Ntp2054
Rp2055
(dp2056
g39
I0
sg40
I16972
sg41
g223
sg42
I1
sg43
g348
sg44
I0
sg45
I64
sg46
I72
sg34
g1
(g47
g3
Ntp2057
Rp2058
(dp2059
g51
I0
sg40
I3639
sg52
g2055
sg53
I0
sg34
S'PingPingPingPingPingPingPingPingPingPingPingPing'
p2060
sbsg55
Nsg56
I0
sg57
I5
sg58
I4
sg59
I16738
sg52
g2052
sg60
I00
sbsg55
Nsg52
Nsg53
I2048
sg60
I00
sbsbag1
(g2
g3
Ntp2061
Rp2062
(dp2063
g7
g365
sg27
g1
(g28
g3
Ntp2064
Rp2065
(dp2066
g32
g368
sg33
g218
sg34
g1
(g35
g3
Ntp2067
Rp2068
(dp2069
g39
I0
sg40
I16970
sg41
g223
sg42
I1
sg43
g373
sg44
I0
sg45
I64
sg46
I72
sg34
g1
(g47
g3
Ntp2070
Rp2071
(dp2072
g51
I0
sg40
I1591
sg52
g2068
sg53
I8
sg34
S'PingPingPingPingPingPingPingPingPingPingPingPing'
p2073
sbsg55
Nsg56
I0
sg57
I5
sg58
I4
sg59
I16739
sg52
g2065
sg60
I00
sbsg55
Nsg52
Nsg53
I2048
sg60
I00
sbsbag1
(g2
g3
Ntp2074
Rp2075
(dp2076
g7
g390
sg27
g1
(g28
g3
Ntp2077
Rp2078
(dp2079
g32
g393
sg33
g218
sg34
g1
(g35
g3
Ntp2080
Rp2081
(dp2082
g39
I0
sg40
I16714
sg41
g223
sg42
I1
sg43
g398
sg44
I0
sg45
I64
sg46
I72
sg34
g1
(g47
g3
Ntp2083
Rp2084
(dp2085
g51
I0
sg40
I3639
sg52
g2081
sg53
I0
sg34
S'PingPingPingPingPingPingPingPingPingPingPingPing'
p2086
sbsg55
Nsg56
I0
sg57
I5
sg58
I4
sg59
I16740
sg52
g2078
sg60
I00
sbsg55
Nsg52
Nsg53
I2048
sg60
I00
sbsbag1
(g2
g3
Ntp2087
Rp2088
(dp2089
g7
g415
sg27
g1
(g28
g3
Ntp2090
Rp2091
(dp2092
g32
g418
sg33
g218
sg34
g1
(g35
g3
Ntp2093
Rp2094
(dp2095
g39
I0
sg40
I16712
sg41
g223
sg42
I1
sg43
g423
sg44
I0
sg45
I64
sg46
I72
sg34
g1
(g47
g3
Ntp2096
Rp2097
(dp2098
g51
I0
sg40
I1591
sg52
g2094
sg53
I8
sg34
S'PingPingPingPingPingPingPingPingPingPingPingPing'
p2099
sbsg55
Nsg56
I0
sg57
I5
sg58
I4
sg59
I16741
sg52
g2091
sg60
I00
sbsg55
Nsg52
Nsg53
I2048
sg60
I00
sbsbag1
(g2
g3
Ntp2100
Rp2101
(dp2102
g7
g10
sg27
g1
(g28
g3
Ntp2103
Rp2104
(dp2105
g32
g15
sg33
g268
sg34
g1
(g35
g3
Ntp2106
Rp2107
(dp2108
g39
I0
sg40
I17226
sg41
g273
sg42
I1
sg43
g23
sg44
I0
sg45
I64
sg46
I72
sg34
g1
(g47
g3
Ntp2109
Rp2110
(dp2111
g51
I0
sg40
I1591
sg52
g2107
sg53
I8
sg34
S'PingPingPingPingPingPingPingPingPingPingPingPing'
p2112
sbsg55
Nsg56
I0
sg57
I5
sg58
I4
sg59
I16742
sg52
g2104
sg60
I00
sbsg55
Nsg52
Nsg53
I2048
sg60
I00
sbsbag1
(g2
g3
Ntp2113
Rp2114
(dp2115
g7
g65
sg27
g1
(g28
g3
Ntp2116
Rp2117
(dp2118
g32
g68
sg33
g268
sg34
g1
(g35
g3
Ntp2119
Rp2120
(dp2121
g39
I0
sg40
I17224
sg41
g273
sg42
I1
sg43
g73
sg44
I0
sg45
I64
sg46
I72
sg34
g1
(g47
g3
Ntp2122
Rp2123
(dp2124
g51
I0
sg40
I3639
sg52
g2120
sg53
I0
sg34
S'PingPingPingPingPingPingPingPingPingPingPingPing'
p2125
sbsg55
Nsg56
I0
sg57
I5
sg58
I4
sg59
I16743
sg52
g2117
sg60
I00
sbsg55
Nsg52
Nsg53
I2048
sg60
I00
sbsbag1
(g2
g3
Ntp2126
Rp2127
(dp2128
g7
g90
sg27
g1
(g28
g3
Ntp2129
Rp2130
(dp2131
g32
g93
sg33
g268
sg34
g1
(g35
g3
Ntp2132
Rp2133
(dp2134
g39
I0
sg40
I16968
sg41
g273
sg42
I1
sg43
g98
sg44
I0
sg45
I64
sg46
I72
sg34
g1
(g47
g3
Ntp2135
Rp2136
(dp2137
g51
I0
sg40
I3639
sg52
g2133
sg53
I0
sg34
S'PingPingPingPingPingPingPingPingPingPingPingPing'
p2138
sbsg55
Nsg56
I0
sg57
I5
sg58
I4
sg59
I16744
sg52
g2130
sg60
I00
sbsg55
Nsg52
Nsg53
I2048
sg60
I00
sbsbag1
(g2
g3
Ntp2139
Rp2140
(dp2141
g7
g115
sg27
g1
(g28
g3
Ntp2142
Rp2143
(dp2144
g32
g118
sg33
g268
sg34
g1
(g35
g3
Ntp2145
Rp2146
(dp2147
g39
I0
sg40
I16966
sg41
g273
sg42
I1
sg43
g123
sg44
I0
sg45
I64
sg46
I72
sg34
g1
(g47
g3
Ntp2148
Rp2149
(dp2150
g51
I0
sg40
I3639
sg52
g2146
sg53
I0
sg34
S'PingPingPingPingPingPingPingPingPingPingPingPing'
p2151
sbsg55
Nsg56
I0
sg57
I5
sg58
I4
sg59
I16745
sg52
g2143
sg60
I00
sbsg55
Nsg52
Nsg53
I2048
sg60
I00
sbsbag1
(g2
g3
Ntp2152
Rp2153
(dp2154
g7
g140
sg27
g1
(g28
g3
Ntp2155
Rp2156
(dp2157
g32
g143
sg33
g268
sg34
g1
(g35
g3
Ntp2158
Rp2159
(dp2160
g39
I0
sg40
I17221
sg41
g273
sg42
I1
sg43
g148
sg44
I0
sg45
I64
sg46
I72
sg34
g1
(g47
g3
Ntp2161
Rp2162
(dp2163
g51
I0
sg40
I3639
sg52
g2159
sg53
I0
sg34
S'PingPingPingPingPingPingPingPingPingPingPingPing'
p2164
sbsg55
Nsg56
I0
sg57
I5
sg58
I4
sg59
I16746
sg52
g2156
sg60
I00
sbsg55
Nsg52
Nsg53
I2048
sg60
I00
sbsbag1
(g2
g3
Ntp2165
Rp2166
(dp2167
g7
g165
sg27
g1
(g28
g3
Ntp2168
Rp2169
(dp2170
g32
g168
sg33
g268
sg34
g1
(g35
g3
Ntp2171
Rp2172
(dp2173
g39
I0
sg40
I17219
sg41
g273
sg42
I1
sg43
g173
sg44
I0
sg45
I64
sg46
I72
sg34
g1
(g47
g3
Ntp2174
Rp2175
(dp2176
g51
I0
sg40
I1591
sg52
g2172
sg53
I8
sg34
S'PingPingPingPingPingPingPingPingPingPingPingPing'
p2177
sbsg55
Nsg56
I0
sg57
I5
sg58
I4
sg59
I16747
sg52
g2169
sg60
I00
sbsg55
Nsg52
Nsg53
I2048
sg60
I00
sbsbag1
(g2
g3
Ntp2178
Rp2179
(dp2180
g7
g190
sg27
g1
(g28
g3
Ntp2181
Rp2182
(dp2183
g32
g193
sg33
g268
sg34
g1
(g35
g3
Ntp2184
Rp2185
(dp2186
g39
I0
sg40
I16963
sg41
g273
sg42
I1
sg43
g198
sg44
I0
sg45
I64
sg46
I72
sg34
g1
(g47
g3
Ntp2187
Rp2188
(dp2189
g51
I0
sg40
I3639
sg52
g2185
sg53
I0
sg34
S'PingPingPingPingPingPingPingPingPingPingPingPing'
p2190
sbsg55
Nsg56
I0
sg57
I5
sg58
I4
sg59
I16748
sg52
g2182
sg60
I00
sbsg55
Nsg52
Nsg53
I2048
sg60
I00
sbsbag1
(g2
g3
Ntp2191
Rp2192
(dp2193
g7
g215
sg27
g1
(g28
g3
Ntp2194
Rp2195
(dp2196
g32
g218
sg33
g268
sg34
g1
(g35
g3
Ntp2197
Rp2198
(dp2199
g39
I0
sg40
I16961
sg41
g273
sg42
I1
sg43
g223
sg44
I0
sg45
I64
sg46
I72
sg34
g1
(g47
g3
Ntp2200
Rp2201
(dp2202
g51
I0
sg40
I1591
sg52
g2198
sg53
I8
sg34
S'PingPingPingPingPingPingPingPingPingPingPingPing'
p2203
sbsg55
Nsg56
I0
sg57
I5
sg58
I4
sg59
I16749
sg52
g2195
sg60
I00
sbsg55
Nsg52
Nsg53
I2048
sg60
I00
sbsbag1
(g2
g3
Ntp2204
Rp2205
(dp2206
g7
g240
sg27
g1
(g28
g3
Ntp2207
Rp2208
(dp2209
g32
g243
sg33
g268
sg34
g1
(g35
g3
Ntp2210
Rp2211
(dp2212
g39
I0
sg40
I17216
sg41
g273
sg42
I1
sg43
g248
sg44
I0
sg45
I64
sg46
I72
sg34
g1
(g47
g3
Ntp2213
Rp2214
(dp2215
g51
I0
sg40
I3639
sg52
g2211
sg53
I0
sg34
S'PingPingPingPingPingPingPingPingPingPingPingPing'
p2216
sbsg55
Nsg56
I0
sg57
I5
sg58
I4
sg59
I16750
sg52
g2208
sg60
I00
sbsg55
Nsg52
Nsg53
I2048
sg60
I00
sbsbag1
(g2
g3
Ntp2217
Rp2218
(dp2219
g7
g265
sg27
g1
(g28
g3
Ntp2220
Rp2221
(dp2222
g32
g268
sg33
g243
sg34
g1
(g35
g3
Ntp2223
Rp2224
(dp2225
g39
I0
sg40
I17215
sg41
g248
sg42
I1
sg43
g273
sg44
I0
sg45
I64
sg46
I72
sg34
g1
(g47
g3
Ntp2226
Rp2227
(dp2228
g51
I0
sg40
I1591
sg52
g2224
sg53
I8
sg34
S'PingPingPingPingPingPingPingPingPingPingPingPing'
p2229
sbsg55
Nsg56
I0
sg57
I5
sg58
I4
sg59
I16751
sg52
g2221
sg60
I00
sbsg55
Nsg52
Nsg53
I2048
sg60
I00
sbsbag1
(g2
g3
Ntp2230
Rp2231
(dp2232
g7
g290
sg27
g1
(g28
g3
Ntp2233
Rp2234
(dp2235
g32
g293
sg33
g243
sg34
g1
(g35
g3
Ntp2236
Rp2237
(dp2238
g39
I0
sg40
I16959
sg41
g248
sg42
I1
sg43
g298
sg44
I0
sg45
I64
sg46
I72
sg34
g1
(g47
g3
Ntp2239
Rp2240
(dp2241
g51
I0
sg40
I3639
sg52
g2237
sg53
I0
sg34
S'PingPingPingPingPingPingPingPingPingPingPingPing'
p2242
sbsg55
Nsg56
I0
sg57
I5
sg58
I4
sg59
I16752
sg52
g2234
sg60
I00
sbsg55
Nsg52
Nsg53
I2048
sg60
I00
sbsbag1
(g2
g3
Ntp2243
Rp2244
(dp2245
g7
g315
sg27
g1
(g28
g3
Ntp2246
Rp2247
(dp2248
g32
g318
sg33
g243
sg34
g1
(g35
g3
Ntp2249
Rp2250
(dp2251
g39
I0
sg40
I16957
sg41
g248
sg42
I1
sg43
g323
sg44
I0
sg45
I64
sg46
I72
sg34
g1
(g47
g3
Ntp2252
Rp2253
(dp2254
g51
I0
sg40
I1591
sg52
g2250
sg53
I8
sg34
S'PingPingPingPingPingPingPingPingPingPingPingPing'
p2255
sbsg55
Nsg56
I0
sg57
I5
sg58
I4
sg59
I16753
sg52
g2247
sg60
I00
sbsg55
Nsg52
Nsg53
I2048
sg60
I00
sbsbag1
(g2
g3
Ntp2256
Rp2257
(dp2258
g7
g340
sg27
g1
(g28
g3
Ntp2259
Rp2260
(dp2261
g32
g343
sg33
g243
sg34
g1
(g35
g3
Ntp2262
Rp2263
(dp2264
g39
I0
sg40
I17212
sg41
g248
sg42
I1
sg43
g348
sg44
I0
sg45
I64
sg46
I72
sg34
g1
(g47
g3
Ntp2265
Rp2266
(dp2267
g51
I0
sg40
I3639
sg52
g2263
sg53
I0
sg34
S'PingPingPingPingPingPingPingPingPingPingPingPing'
p2268
sbsg55
Nsg56
I0
sg57
I5
sg58
I4
sg59
I16754
sg52
g2260
sg60
I00
sbsg55
Nsg52
Nsg53
I2048
sg60
I00
sbsbag1
(g2
g3
Ntp2269
Rp2270
(dp2271
g7
g365
sg27
g1
(g28
g3
Ntp2272
Rp2273
(dp2274
g32
g368
sg33
g243
sg34
g1
(g35
g3
Ntp2275
Rp2276
(dp2277
g39
I0
sg40
I17210
sg41
g248
sg42
I1
sg43
g373
sg44
I0
sg45
I64
sg46
I72
sg34
g1
(g47
g3
Ntp2278
Rp2279
(dp2280
g51
I0
sg40
I3639
sg52
g2276
sg53
I0
sg34
S'PingPingPingPingPingPingPingPingPingPingPingPing'
p2281
sbsg55
Nsg56
I0
sg57
I5
sg58
I4
sg59
I16755
sg52
g2273
sg60
I00
sbsg55
Nsg52
Nsg53
I2048
sg60
I00
sbsbag1
(g2
g3
Ntp2282
Rp2283
(dp2284
g7
g390
sg27
g1
(g28
g3
Ntp2285
Rp2286
(dp2287
g32
g393
sg33
g243
sg34
g1
(g35
g3
Ntp2288
Rp2289
(dp2290
g39
I0
sg40
I16954
sg41
g248
sg42
I1
sg43
g398
sg44
I0
sg45
I64
sg46
I72
sg34
g1
(g47
g3
Ntp2291
Rp2292
(dp2293
g51
I0
sg40
I1591
sg52
g2289
sg53
I8
sg34
S'PingPingPingPingPingPingPingPingPingPingPingPing'
p2294
sbsg55
Nsg56
I0
sg57
I5
sg58
I4
sg59
I16756
sg52
g2286
sg60
I00
sbsg55
Nsg52
Nsg53
I2048
sg60
I00
sbsbag1
(g2
g3
Ntp2295
Rp2296
(dp2297
g7
g415
sg27
g1
(g28
g3
Ntp2298
Rp2299
(dp2300
g32
g418
sg33
g243
sg34
g1
(g35
g3
Ntp2301
Rp2302
(dp2303
g39
I0
sg40
I16952
sg41
g248
sg42
I1
sg43
g423
sg44
I0
sg45
I64
sg46
I72
sg34
g1
(g47
g3
Ntp2304
Rp2305
(dp2306
g51
I0
sg40
I1591
sg52
g2302
sg53
I8
sg34
S'PingPingPingPingPingPingPingPingPingPingPingPing'
p2307
sbsg55
Nsg56
I0
sg57
I5
sg58
I4
sg59
I16757
sg52
g2299
sg60
I00
sbsg55
Nsg52
Nsg53
I2048
sg60
I00
sbsbag1
(g2
g3
Ntp2308
Rp2309
(dp2310
g7
g10
sg27
g1
(g28
g3
Ntp2311
Rp2312
(dp2313
g32
g15
sg33
g293
sg34
g1
(g35
g3
Ntp2314
Rp2315
(dp2316
g39
I0
sg40
I16955
sg41
g298
sg42
I1
sg43
g23
sg44
I0
sg45
I64
sg46
I72
sg34
g1
(g47
g3
Ntp2317
Rp2318
(dp2319
g51
I0
sg40
I1591
sg52
g2315
sg53
I8
sg34
S'PingPingPingPingPingPingPingPingPingPingPingPing'
p2320
sbsg55
Nsg56
I0
sg57
I5
sg58
I4
sg59
I16758
sg52
g2312
sg60
I00
sbsg55
Nsg52
Nsg53
I2048
sg60
I00
sbsbag1
(g2
g3
Ntp2321
Rp2322
(dp2323
g7
g65
sg27
g1
(g28
g3
Ntp2324
Rp2325
(dp2326
g32
g68
sg33
g293
sg34
g1
(g35
g3
Ntp2327
Rp2328
(dp2329
g39
I0
sg40
I16953
sg41
g298
sg42
I1
sg43
g73
sg44
I0
sg45
I64
sg46
I72
sg34
g1
(g47
g3
Ntp2330
Rp2331
(dp2332
g51
I0
sg40
I3639
sg52
g2328
sg53
I0
sg34
S'PingPingPingPingPingPingPingPingPingPingPingPing'
p2333
sbsg55
Nsg56
I0
sg57
I5
sg58
I4
sg59
I16759
sg52
g2325
sg60
I00
sbsg55
Nsg52
Nsg53
I2048
sg60
I00
sbsbag1
(g2
g3
Ntp2334
Rp2335
(dp2336
g7
g90
sg27
g1
(g28
g3
Ntp2337
Rp2338
(dp2339
g32
g93
sg33
g293
sg34
g1
(g35
g3
Ntp2340
Rp2341
(dp2342
g39
I0
sg40
I16697
sg41
g298
sg42
I1
sg43
g98
sg44
I0
sg45
I64
sg46
I72
sg34
g1
(g47
g3
Ntp2343
Rp2344
(dp2345
g51
I0
sg40
I1591
sg52
g2341
sg53
I8
sg34
S'PingPingPingPingPingPingPingPingPingPingPingPing'
p2346
sbsg55
Nsg56
I0
sg57
I5
sg58
I4
sg59
I16760
sg52
g2338
sg60
I00
sbsg55
Nsg52
Nsg53
I2048
sg60
I00
sbsbag1
(g2
g3
Ntp2347
Rp2348
(dp2349
g7
g115
sg27
g1
(g28
g3
Ntp2350
Rp2351
(dp2352
g32
g118
sg33
g293
sg34
g1
(g35
g3
Ntp2353
Rp2354
(dp2355
g39
I0
sg40
I16695
sg41
g298
sg42
I1
sg43
g123
sg44
I0
sg45
I64
sg46
I72
sg34
g1
(g47
g3
Ntp2356
Rp2357
(dp2358
g51
I0
sg40
I3639
sg52
g2354
sg53
I0
sg34
S'PingPingPingPingPingPingPingPingPingPingPingPing'
p2359
sbsg55
Nsg56
I0
sg57
I5
sg58
I4
sg59
I16761
sg52
g2351
sg60
I00
sbsg55
Nsg52
Nsg53
I2048
sg60
I00
sbsbag1
(g2
g3
Ntp2360
Rp2361
(dp2362
g7
g140
sg27
g1
(g28
g3
Ntp2363
Rp2364
(dp2365
g32
g143
sg33
g293
sg34
g1
(g35
g3
Ntp2366
Rp2367
(dp2368
g39
I0
sg40
I16950
sg41
g298
sg42
I1
sg43
g148
sg44
I0
sg45
I64
sg46
I72
sg34
g1
(g47
g3
Ntp2369
Rp2370
(dp2371
g51
I0
sg40
I1591
sg52
g2367
sg53
I8
sg34
S'PingPingPingPingPingPingPingPingPingPingPingPing'
p2372
sbsg55
Nsg56
I0
sg57
I5
sg58
I4
sg59
I16762
sg52
g2364
sg60
I00
sbsg55
Nsg52
Nsg53
I2048
sg60
I00
sbsbag1
(g2
g3
Ntp2373
Rp2374
(dp2375
g7
g165
sg27
g1
(g28
g3
Ntp2376
Rp2377
(dp2378
g32
g168
sg33
g293
sg34
g1
(g35
g3
Ntp2379
Rp2380
(dp2381
g39
I0
sg40
I16948
sg41
g298
sg42
I1
sg43
g173
sg44
I0
sg45
I64
sg46
I72
sg34
g1
(g47
g3
Ntp2382
Rp2383
(dp2384
g51
I0
sg40
I1591
sg52
g2380
sg53
I8
sg34
S'PingPingPingPingPingPingPingPingPingPingPingPing'
p2385
sbsg55
Nsg56
I0
sg57
I5
sg58
I4
sg59
I16763
sg52
g2377
sg60
I00
sbsg55
Nsg52
Nsg53
I2048
sg60
I00
sbsbag1
(g2
g3
Ntp2386
Rp2387
(dp2388
g7
g190
sg27
g1
(g28
g3
Ntp2389
Rp2390
(dp2391
g32
g193
sg33
g293
sg34
g1
(g35
g3
Ntp2392
Rp2393
(dp2394
g39
I0
sg40
I16692
sg41
g298
sg42
I1
sg43
g198
sg44
I0
sg45
I64
sg46
I72
sg34
g1
(g47
g3
Ntp2395
Rp2396
(dp2397
g51
I0
sg40
I1591
sg52
g2393
sg53
I8
sg34
S'PingPingPingPingPingPingPingPingPingPingPingPing'
p2398
sbsg55
Nsg56
I0
sg57
I5
sg58
I4
sg59
I16764
sg52
g2390
sg60
I00
sbsg55
Nsg52
Nsg53
I2048
sg60
I00
sbsbag1
(g2
g3
Ntp2399
Rp2400
(dp2401
g7
g215
sg27
g1
(g28
g3
Ntp2402
Rp2403
(dp2404
g32
g218
sg33
g293
sg34
g1
(g35
g3
Ntp2405
Rp2406
(dp2407
g39
I0
sg40
I16690
sg41
g298
sg42
I1
sg43
g223
sg44
I0
sg45
I64
sg46
I72
sg34
g1
(g47
g3
Ntp2408
Rp2409
(dp2410
g51
I0
sg40
I1591
sg52
g2406
sg53
I8
sg34
S'PingPingPingPingPingPingPingPingPingPingPingPing'
p2411
sbsg55
Nsg56
I0
sg57
I5
sg58
I4
sg59
I16765
sg52
g2403
sg60
I00
sbsg55
Nsg52
Nsg53
I2048
sg60
I00
sbsbag1
(g2
g3
Ntp2412
Rp2413
(dp2414
g7
g240
sg27
g1
(g28
g3
Ntp2415
Rp2416
(dp2417
g32
g243
sg33
g293
sg34
g1
(g35
g3
Ntp2418
Rp2419
(dp2420
g39
I0
sg40
I16945
sg41
g298
sg42
I1
sg43
g248
sg44
I0
sg45
I64
sg46
I72
sg34
g1
(g47
g3
Ntp2421
Rp2422
(dp2423
g51
I0
sg40
I3639
sg52
g2419
sg53
I0
sg34
S'PingPingPingPingPingPingPingPingPingPingPingPing'
p2424
sbsg55
Nsg56
I0
sg57
I5
sg58
I4
sg59
I16766
sg52
g2416
sg60
I00
sbsg55
Nsg52
Nsg53
I2048
sg60
I00
sbsbag1
(g2
g3
Ntp2425
Rp2426
(dp2427
g7
g265
sg27
g1
(g28
g3
Ntp2428
Rp2429
(dp2430
g32
g268
sg33
g293
sg34
g1
(g35
g3
Ntp2431
Rp2432
(dp2433
g39
I0
sg40
I16943
sg41
g298
sg42
I1
sg43
g273
sg44
I0
sg45
I64
sg46
I72
sg34
g1
(g47
g3
Ntp2434
Rp2435
(dp2436
g51
I0
sg40
I1591
sg52
g2432
sg53
I8
sg34
S'PingPingPingPingPingPingPingPingPingPingPingPing'
p2437
sbsg55
Nsg56
I0
sg57
I5
sg58
I4
sg59
I16767
sg52
g2429
sg60
I00
sbsg55
Nsg52
Nsg53
I2048
sg60
I00
sbsbag1
(g2
g3
Ntp2438
Rp2439
(dp2440
g7
g290
sg27
g1
(g28
g3
Ntp2441
Rp2442
(dp2443
g32
g293
sg33
g268
sg34
g1
(g35
g3
Ntp2444
Rp2445
(dp2446
g39
I0
sg40
I16942
sg41
g273
sg42
I1
sg43
g298
sg44
I0
sg45
I64
sg46
I72
sg34
g1
(g47
g3
Ntp2447
Rp2448
(dp2449
g51
I0
sg40
I3639
sg52
g2445
sg53
I0
sg34
S'PingPingPingPingPingPingPingPingPingPingPingPing'
p2450
sbsg55
Nsg56
I0
sg57
I5
sg58
I4
sg59
I16768
sg52
g2442
sg60
I00
sbsg55
Nsg52
Nsg53
I2048
sg60
I00
sbsbag1
(g2
g3
Ntp2451
Rp2452
(dp2453
g7
g315
sg27
g1
(g28
g3
Ntp2454
Rp2455
(dp2456
g32
g318
sg33
g268
sg34
g1
(g35
g3
Ntp2457
Rp2458
(dp2459
g39
I0
sg40
I16940
sg41
g273
sg42
I1
sg43
g323
sg44
I0
sg45
I64
sg46
I72
sg34
g1
(g47
g3
Ntp2460
Rp2461
(dp2462
g51
I0
sg40
I3639
sg52
g2458
sg53
I0
sg34
S'PingPingPingPingPingPingPingPingPingPingPingPing'
p2463
sbsg55
Nsg56
I0
sg57
I5
sg58
I4
sg59
I16769
sg52
g2455
sg60
I00
sbsg55
Nsg52
Nsg53
I2048
sg60
I00
sbsbag1
(g2
g3
Ntp2464
Rp2465
(dp2466
g7
g340
sg27
g1
(g28
g3
Ntp2467
Rp2468
(dp2469
g32
g343
sg33
g268
sg34
g1
(g35
g3
Ntp2470
Rp2471
(dp2472
g39
I0
sg40
I17195
sg41
g273
sg42
I1
sg43
g348
sg44
I0
sg45
I64
sg46
I72
sg34
g1
(g47
g3
Ntp2473
Rp2474
(dp2475
g51
I0
sg40
I1591
sg52
g2471
sg53
I8
sg34
S'PingPingPingPingPingPingPingPingPingPingPingPing'
p2476
sbsg55
Nsg56
I0
sg57
I5
sg58
I4
sg59
I16770
sg52
g2468
sg60
I00
sbsg55
Nsg52
Nsg53
I2048
sg60
I00
sbsbag1
(g2
g3
Ntp2477
Rp2478
(dp2479
g7
g365
sg27
g1
(g28
g3
Ntp2480
Rp2481
(dp2482
g32
g368
sg33
g268
sg34
g1
(g35
g3
Ntp2483
Rp2484
(dp2485
g39
I0
sg40
I17193
sg41
g273
sg42
I1
sg43
g373
sg44
I0
sg45
I64
sg46
I72
sg34
g1
(g47
g3
Ntp2486
Rp2487
(dp2488
g51
I0
sg40
I3639
sg52
g2484
sg53
I0
sg34
S'PingPingPingPingPingPingPingPingPingPingPingPing'
p2489
sbsg55
Nsg56
I0
sg57
I5
sg58
I4
sg59
I16771
sg52
g2481
sg60
I00
sbsg55
Nsg52
Nsg53
I2048
sg60
I00
sbsbag1
(g2
g3
Ntp2490
Rp2491
(dp2492
g7
g390
sg27
g1
(g28
g3
Ntp2493
Rp2494
(dp2495
g32
g393
sg33
g268
sg34
g1
(g35
g3
Ntp2496
Rp2497
(dp2498
g39
I0
sg40
I16937
sg41
g273
sg42
I1
sg43
g398
sg44
I0
sg45
I64
sg46
I72
sg34
g1
(g47
g3
Ntp2499
Rp2500
(dp2501
g51
I0
sg40
I1591
sg52
g2497
sg53
I8
sg34
S'PingPingPingPingPingPingPingPingPingPingPingPing'
p2502
sbsg55
Nsg56
I0
sg57
I5
sg58
I4
sg59
I16772
sg52
g2494
sg60
I00
sbsg55
Nsg52
Nsg53
I2048
sg60
I00
sbsbag1
(g2
g3
Ntp2503
Rp2504
(dp2505
g7
g415
sg27
g1
(g28
g3
Ntp2506
Rp2507
(dp2508
g32
g418
sg33
g268
sg34
g1
(g35
g3
Ntp2509
Rp2510
(dp2511
g39
I0
sg40
I16935
sg41
g273
sg42
I1
sg43
g423
sg44
I0
sg45
I64
sg46
I72
sg34
g1
(g47
g3
Ntp2512
Rp2513
(dp2514
g51
I0
sg40
I3639
sg52
g2510
sg53
I0
sg34
S'PingPingPingPingPingPingPingPingPingPingPingPing'
p2515
sbsg55
Nsg56
I0
sg57
I5
sg58
I4
sg59
I16773
sg52
g2507
sg60
I00
sbsg55
Nsg52
Nsg53
I2048
sg60
I00
sbsbag1
(g2
g3
Ntp2516
Rp2517
(dp2518
g7
g10
sg27
g1
(g28
g3
Ntp2519
Rp2520
(dp2521
g32
g15
sg33
g318
sg34
g1
(g35
g3
Ntp2522
Rp2523
(dp2524
g39
I0
sg40
I16938
sg41
g323
sg42
I1
sg43
g23
sg44
I0
sg45
I64
sg46
I72
sg34
g1
(g47
g3
Ntp2525
Rp2526
(dp2527
g51
I0
sg40
I3639
sg52
g2523
sg53
I0
sg34
S'PingPingPingPingPingPingPingPingPingPingPingPing'
p2528
sbsg55
Nsg56
I0
sg57
I5
sg58
I4
sg59
I16774
sg52
g2520
sg60
I00
sbsg55
Nsg52
Nsg53
I2048
sg60
I00
sbsbag1
(g2
g3
Ntp2529
Rp2530
(dp2531
g7
g65
sg27
g1
(g28
g3
Ntp2532
Rp2533
(dp2534
g32
g68
sg33
g318
sg34
g1
(g35
g3
Ntp2535
Rp2536
(dp2537
g39
I0
sg40
I16936
sg41
g323
sg42
I1
sg43
g73
sg44
I0
sg45
I64
sg46
I72
sg34
g1
(g47
g3
Ntp2538
Rp2539
(dp2540
g51
I0
sg40
I1591
sg52
g2536
sg53
I8
sg34
S'PingPingPingPingPingPingPingPingPingPingPingPing'
p2541
sbsg55
Nsg56
I0
sg57
I5
sg58
I4
sg59
I16775
sg52
g2533
sg60
I00
sbsg55
Nsg52
Nsg53
I2048
sg60
I00
sbsbag1
(g2
g3
Ntp2542
Rp2543
(dp2544
g7
g90
sg27
g1
(g28
g3
Ntp2545
Rp2546
(dp2547
g32
g93
sg33
g318
sg34
g1
(g35
g3
Ntp2548
Rp2549
(dp2550
g39
I0
sg40
I16680
sg41
g323
sg42
I1
sg43
g98
sg44
I0
sg45
I64
sg46
I72
sg34
g1
(g47
g3
Ntp2551
Rp2552
(dp2553
g51
I0
sg40
I3639
sg52
g2549
sg53
I0
sg34
S'PingPingPingPingPingPingPingPingPingPingPingPing'
p2554
sbsg55
Nsg56
I0
sg57
I5
sg58
I4
sg59
I16776
sg52
g2546
sg60
I00
sbsg55
Nsg52
Nsg53
I2048
sg60
I00
sbsbag1
(g2
g3
Ntp2555
Rp2556
(dp2557
g7
g115
sg27
g1
(g28
g3
Ntp2558
Rp2559
(dp2560
g32
g118
sg33
g318
sg34
g1
(g35
g3
Ntp2561
Rp2562
(dp2563
g39
I0
sg40
I16678
sg41
g323
sg42
I1
sg43
g123
sg44
I0
sg45
I64
sg46
I72
sg34
g1
(g47
g3
Ntp2564
Rp2565
(dp2566
g51
I0
sg40
I1591
sg52
g2562
sg53
I8
sg34
S'PingPingPingPingPingPingPingPingPingPingPingPing'
p2567
sbsg55
Nsg56
I0
sg57
I5
sg58
I4
sg59
I16777
sg52
g2559
sg60
I00
sbsg55
Nsg52
Nsg53
I2048
sg60
I00
sbsbag1
(g2
g3
Ntp2568
Rp2569
(dp2570
g7
g140
sg27
g1
(g28
g3
Ntp2571
Rp2572
(dp2573
g32
g143
sg33
g318
sg34
g1
(g35
g3
Ntp2574
Rp2575
(dp2576
g39
I0
sg40
I16933
sg41
g323
sg42
I1
sg43
g148
sg44
I0
sg45
I64
sg46
I72
sg34
g1
(g47
g3
Ntp2577
Rp2578
(dp2579
g51
I0
sg40
I1591
sg52
g2575
sg53
I8
sg34
S'PingPingPingPingPingPingPingPingPingPingPingPing'
p2580
sbsg55
Nsg56
I0
sg57
I5
sg58
I4
sg59
I16778
sg52
g2572
sg60
I00
sbsg55
Nsg52
Nsg53
I2048
sg60
I00
sbsbag1
(g2
g3
Ntp2581
Rp2582
(dp2583
g7
g165
sg27
g1
(g28
g3
Ntp2584
Rp2585
(dp2586
g32
g168
sg33
g318
sg34
g1
(g35
g3
Ntp2587
Rp2588
(dp2589
g39
I0
sg40
I16931
sg41
g323
sg42
I1
sg43
g173
sg44
I0
sg45
I64
sg46
I72
sg34
g1
(g47
g3
Ntp2590
Rp2591
(dp2592
g51
I0
sg40
I3639
sg52
g2588
sg53
I0
sg34
S'PingPingPingPingPingPingPingPingPingPingPingPing'
p2593
sbsg55
Nsg56
I0
sg57
I5
sg58
I4
sg59
I16779
sg52
g2585
sg60
I00
sbsg55
Nsg52
Nsg53
I2048
sg60
I00
sbsbag1
(g2
g3
Ntp2594
Rp2595
(dp2596
g7
g190
sg27
g1
(g28
g3
Ntp2597
Rp2598
(dp2599
g32
g193
sg33
g318
sg34
g1
(g35
g3
Ntp2600
Rp2601
(dp2602
g39
I0
sg40
I16675
sg41
g323
sg42
I1
sg43
g198
sg44
I0
sg45
I64
sg46
I72
sg34
g1
(g47
g3
Ntp2603
Rp2604
(dp2605
g51
I0
sg40
I1591
sg52
g2601
sg53
I8
sg34
S'PingPingPingPingPingPingPingPingPingPingPingPing'
p2606
sbsg55
Nsg56
I0
sg57
I5
sg58
I4
sg59
I16780
sg52
g2598
sg60
I00
sbsg55
Nsg52
Nsg53
I2048
sg60
I00
sbsbag1
(g2
g3
Ntp2607
Rp2608
(dp2609
g7
g215
sg27
g1
(g28
g3
Ntp2610
Rp2611
(dp2612
g32
g218
sg33
g318
sg34
g1
(g35
g3
Ntp2613
Rp2614
(dp2615
g39
I0
sg40
I16673
sg41
g323
sg42
I1
sg43
g223
sg44
I0
sg45
I64
sg46
I72
sg34
g1
(g47
g3
Ntp2616
Rp2617
(dp2618
g51
I0
sg40
I3639
sg52
g2614
sg53
I0
sg34
S'PingPingPingPingPingPingPingPingPingPingPingPing'
p2619
sbsg55
Nsg56
I0
sg57
I5
sg58
I4
sg59
I16781
sg52
g2611
sg60
I00
sbsg55
Nsg52
Nsg53
I2048
sg60
I00
sbsbag1
(g2
g3
Ntp2620
Rp2621
(dp2622
g7
g240
sg27
g1
(g28
g3
Ntp2623
Rp2624
(dp2625
g32
g243
sg33
g318
sg34
g1
(g35
g3
Ntp2626
Rp2627
(dp2628
g39
I0
sg40
I16928
sg41
g323
sg42
I1
sg43
g248
sg44
I0
sg45
I64
sg46
I72
sg34
g1
(g47
g3
Ntp2629
Rp2630
(dp2631
g51
I0
sg40
I3639
sg52
g2627
sg53
I0
sg34
S'PingPingPingPingPingPingPingPingPingPingPingPing'
p2632
sbsg55
Nsg56
I0
sg57
I5
sg58
I4
sg59
I16782
sg52
g2624
sg60
I00
sbsg55
Nsg52
Nsg53
I2048
sg60
I00
sbsbag1
(g2
g3
Ntp2633
Rp2634
(dp2635
g7
g265
sg27
g1
(g28
g3
Ntp2636
Rp2637
(dp2638
g32
g268
sg33
g318
sg34
g1
(g35
g3
Ntp2639
Rp2640
(dp2641
g39
I0
sg40
I16926
sg41
g323
sg42
I1
sg43
g273
sg44
I0
sg45
I64
sg46
I72
sg34
g1
(g47
g3
Ntp2642
Rp2643
(dp2644
g51
I0
sg40
I3639
sg52
g2640
sg53
I0
sg34
S'PingPingPingPingPingPingPingPingPingPingPingPing'
p2645
sbsg55
Nsg56
I0
sg57
I5
sg58
I4
sg59
I16783
sg52
g2637
sg60
I00
sbsg55
Nsg52
Nsg53
I2048
sg60
I00
sbsbag1
(g2
g3
Ntp2646
Rp2647
(dp2648
g7
g290
sg27
g1
(g28
g3
Ntp2649
Rp2650
(dp2651
g32
g293
sg33
g318
sg34
g1
(g35
g3
Ntp2652
Rp2653
(dp2654
g39
I0
sg40
I16670
sg41
g323
sg42
I1
sg43
g298
sg44
I0
sg45
I64
sg46
I72
sg34
g1
(g47
g3
Ntp2655
Rp2656
(dp2657
g51
I0
sg40
I3639
sg52
g2653
sg53
I0
sg34
S'PingPingPingPingPingPingPingPingPingPingPingPing'
p2658
sbsg55
Nsg56
I0
sg57
I5
sg58
I4
sg59
I16784
sg52
g2650
sg60
I00
sbsg55
Nsg52
Nsg53
I2048
sg60
I00
sbsbag1
(g2
g3
Ntp2659
Rp2660
(dp2661
g7
g315
sg27
g1
(g28
g3
Ntp2662
Rp2663
(dp2664
g32
g318
sg33
g293
sg34
g1
(g35
g3
Ntp2665
Rp2666
(dp2667
g39
I0
sg40
I16669
sg41
g298
sg42
I1
sg43
g323
sg44
I0
sg45
I64
sg46
I72
sg34
g1
(g47
g3
Ntp2668
Rp2669
(dp2670
g51
I0
sg40
I3639
sg52
g2666
sg53
I0
sg34
S'PingPingPingPingPingPingPingPingPingPingPingPing'
p2671
sbsg55
Nsg56
I0
sg57
I5
sg58
I4
sg59
I16785
sg52
g2663
sg60
I00
sbsg55
Nsg52
Nsg53
I2048
sg60
I00
sbsbag1
(g2
g3
Ntp2672
Rp2673
(dp2674
g7
g340
sg27
g1
(g28
g3
Ntp2675
Rp2676
(dp2677
g32
g343
sg33
g293
sg34
g1
(g35
g3
Ntp2678
Rp2679
(dp2680
g39
I0
sg40
I16924
sg41
g298
sg42
I1
sg43
g348
sg44
I0
sg45
I64
sg46
I72
sg34
g1
(g47
g3
Ntp2681
Rp2682
(dp2683
g51
I0
sg40
I3639
sg52
g2679
sg53
I0
sg34
S'PingPingPingPingPingPingPingPingPingPingPingPing'
p2684
sbsg55
Nsg56
I0
sg57
I5
sg58
I4
sg59
I16786
sg52
g2676
sg60
I00
sbsg55
Nsg52
Nsg53
I2048
sg60
I00
sbsbag1
(g2
g3
Ntp2685
Rp2686
(dp2687
g7
g365
sg27
g1
(g28
g3
Ntp2688
Rp2689
(dp2690
g32
g368
sg33
g293
sg34
g1
(g35
g3
Ntp2691
Rp2692
(dp2693
g39
I0
sg40
I16922
sg41
g298
sg42
I1
sg43
g373
sg44
I0
sg45
I64
sg46
I72
sg34
g1
(g47
g3
Ntp2694
Rp2695
(dp2696
g51
I0
sg40
I3639
sg52
g2692
sg53
I0
sg34
S'PingPingPingPingPingPingPingPingPingPingPingPing'
p2697
sbsg55
Nsg56
I0
sg57
I5
sg58
I4
sg59
I16787
sg52
g2689
sg60
I00
sbsg55
Nsg52
Nsg53
I2048
sg60
I00
sbsbag1
(g2
g3
Ntp2698
Rp2699
(dp2700
g7
g390
sg27
g1
(g28
g3
Ntp2701
Rp2702
(dp2703
g32
g393
sg33
g293
sg34
g1
(g35
g3
Ntp2704
Rp2705
(dp2706
g39
I0
sg40
I16666
sg41
g298
sg42
I1
sg43
g398
sg44
I0
sg45
I64
sg46
I72
sg34
g1
(g47
g3
Ntp2707
Rp2708
(dp2709
g51
I0
sg40
I3639
sg52
g2705
sg53
I0
sg34
S'PingPingPingPingPingPingPingPingPingPingPingPing'
p2710
sbsg55
Nsg56
I0
sg57
I5
sg58
I4
sg59
I16788
sg52
g2702
sg60
I00
sbsg55
Nsg52
Nsg53
I2048
sg60
I00
sbsbag1
(g2
g3
Ntp2711
Rp2712
(dp2713
g7
g415
sg27
g1
(g28
g3
Ntp2714
Rp2715
(dp2716
g32
g418
sg33
g293
sg34
g1
(g35
g3
Ntp2717
Rp2718
(dp2719
g39
I0
sg40
I16664
sg41
g298
sg42
I1
sg43
g423
sg44
I0
sg45
I64
sg46
I72
sg34
g1
(g47
g3
Ntp2720
Rp2721
(dp2722
g51
I0
sg40
I1591
sg52
g2718
sg53
I8
sg34
S'PingPingPingPingPingPingPingPingPingPingPingPing'
p2723
sbsg55
Nsg56
I0
sg57
I5
sg58
I4
sg59
I16789
sg52
g2715
sg60
I00
sbsg55
Nsg52
Nsg53
I2048
sg60
I00
sbsbag1
(g2
g3
Ntp2724
Rp2725
(dp2726
g7
g10
sg27
g1
(g28
g3
Ntp2727
Rp2728
(dp2729
g32
g15
sg33
g343
sg34
g1
(g35
g3
Ntp2730
Rp2731
(dp2732
g39
I0
sg40
I17178
sg41
g348
sg42
I1
sg43
g23
sg44
I0
sg45
I64
sg46
I72
sg34
g1
(g47
g3
Ntp2733
Rp2734
(dp2735
g51
I0
sg40
I3639
sg52
g2731
sg53
I0
sg34
S'PingPingPingPingPingPingPingPingPingPingPingPing'
p2736
sbsg55
Nsg56
I0
sg57
I5
sg58
I4
sg59
I16790
sg52
g2728
sg60
I00
sbsg55
Nsg52
Nsg53
I2048
sg60
I00
sbsbag1
(g2
g3
Ntp2737
Rp2738
(dp2739
g7
g65
sg27
g1
(g28
g3
Ntp2740
Rp2741
(dp2742
g32
g68
sg33
g343
sg34
g1
(g35
g3
Ntp2743
Rp2744
(dp2745
g39
I0
sg40
I17176
sg41
g348
sg42
I1
sg43
g73
sg44
I0
sg45
I64
sg46
I72
sg34
g1
(g47
g3
Ntp2746
Rp2747
(dp2748
g51
I0
sg40
I1591
sg52
g2744
sg53
I8
sg34
S'PingPingPingPingPingPingPingPingPingPingPingPing'
p2749
sbsg55
Nsg56
I0
sg57
I5
sg58
I4
sg59
I16791
sg52
g2741
sg60
I00
sbsg55
Nsg52
Nsg53
I2048
sg60
I00
sbsbag1
(g2
g3
Ntp2750
Rp2751
(dp2752
g7
g90
sg27
g1
(g28
g3
Ntp2753
Rp2754
(dp2755
g32
g93
sg33
g343
sg34
g1
(g35
g3
Ntp2756
Rp2757
(dp2758
g39
I0
sg40
I16920
sg41
g348
sg42
I1
sg43
g98
sg44
I0
sg45
I64
sg46
I72
sg34
g1
(g47
g3
Ntp2759
Rp2760
(dp2761
g51
I0
sg40
I1591
sg52
g2757
sg53
I8
sg34
S'PingPingPingPingPingPingPingPingPingPingPingPing'
p2762
sbsg55
Nsg56
I0
sg57
I5
sg58
I4
sg59
I16792
sg52
g2754
sg60
I00
sbsg55
Nsg52
Nsg53
I2048
sg60
I00
sbsbag1
(g2
g3
Ntp2763
Rp2764
(dp2765
g7
g115
sg27
g1
(g28
g3
Ntp2766
Rp2767
(dp2768
g32
g118
sg33
g343
sg34
g1
(g35
g3
Ntp2769
Rp2770
(dp2771
g39
I0
sg40
I16918
sg41
g348
sg42
I1
sg43
g123
sg44
I0
sg45
I64
sg46
I72
sg34
g1
(g47
g3
Ntp2772
Rp2773
(dp2774
g51
I0
sg40
I3639
sg52
g2770
sg53
I0
sg34
S'PingPingPingPingPingPingPingPingPingPingPingPing'
p2775
sbsg55
Nsg56
I0
sg57
I5
sg58
I4
sg59
I16793
sg52
g2767
sg60
I00
sbsg55
Nsg52
Nsg53
I2048
sg60
I00
sbsbag1
(g2
g3
Ntp2776
Rp2777
(dp2778
g7
g140
sg27
g1
(g28
g3
Ntp2779
Rp2780
(dp2781
g32
g143
sg33
g343
sg34
g1
(g35
g3
Ntp2782
Rp2783
(dp2784
g39
I0
sg40
I17173
sg41
g348
sg42
I1
sg43
g148
sg44
I0
sg45
I64
sg46
I72
sg34
g1
(g47
g3
Ntp2785
Rp2786
(dp2787
g51
I0
sg40
I3639
sg52
g2783
sg53
I0
sg34
S'PingPingPingPingPingPingPingPingPingPingPingPing'
p2788
sbsg55
Nsg56
I0
sg57
I5
sg58
I4
sg59
I16794
sg52
g2780
sg60
I00
sbsg55
Nsg52
Nsg53
I2048
sg60
I00
sbsbag1
(g2
g3
Ntp2789
Rp2790
(dp2791
g7
g165
sg27
g1
(g28
g3
Ntp2792
Rp2793
(dp2794
g32
g168
sg33
g343
sg34
g1
(g35
g3
Ntp2795
Rp2796
(dp2797
g39
I0
sg40
I17171
sg41
g348
sg42
I1
sg43
g173
sg44
I0
sg45
I64
sg46
I72
sg34
g1
(g47
g3
Ntp2798
Rp2799
(dp2800
g51
I0
sg40
I3639
sg52
g2796
sg53
I0
sg34
S'PingPingPingPingPingPingPingPingPingPingPingPing'
p2801
sbsg55
Nsg56
I0
sg57
I5
sg58
I4
sg59
I16795
sg52
g2793
sg60
I00
sbsg55
Nsg52
Nsg53
I2048
sg60
I00
sbsbag1
(g2
g3
Ntp2802
Rp2803
(dp2804
g7
g190
sg27
g1
(g28
g3
Ntp2805
Rp2806
(dp2807
g32
g193
sg33
g343
sg34
g1
(g35
g3
Ntp2808
Rp2809
(dp2810
g39
I0
sg40
I16915
sg41
g348
sg42
I1
sg43
g198
sg44
I0
sg45
I64
sg46
I72
sg34
g1
(g47
g3
Ntp2811
Rp2812
(dp2813
g51
I0
sg40
I3639
sg52
g2809
sg53
I0
sg34
S'PingPingPingPingPingPingPingPingPingPingPingPing'
p2814
sbsg55
Nsg56
I0
sg57
I5
sg58
I4
sg59
I16796
sg52
g2806
sg60
I00
sbsg55
Nsg52
Nsg53
I2048
sg60
I00
sbsbag1
(g2
g3
Ntp2815
Rp2816
(dp2817
g7
g215
sg27
g1
(g28
g3
Ntp2818
Rp2819
(dp2820
g32
g218
sg33
g343
sg34
g1
(g35
g3
Ntp2821
Rp2822
(dp2823
g39
I0
sg40
I16913
sg41
g348
sg42
I1
sg43
g223
sg44
I0
sg45
I64
sg46
I72
sg34
g1
(g47
g3
Ntp2824
Rp2825
(dp2826
g51
I0
sg40
I1591
sg52
g2822
sg53
I8
sg34
S'PingPingPingPingPingPingPingPingPingPingPingPing'
p2827
sbsg55
Nsg56
I0
sg57
I5
sg58
I4
sg59
I16797
sg52
g2819
sg60
I00
sbsg55
Nsg52
Nsg53
I2048
sg60
I00
sbsbag1
(g2
g3
Ntp2828
Rp2829
(dp2830
g7
g240
sg27
g1
(g28
g3
Ntp2831
Rp2832
(dp2833
g32
g243
sg33
g343
sg34
g1
(g35
g3
Ntp2834
Rp2835
(dp2836
g39
I0
sg40
I17168
sg41
g348
sg42
I1
sg43
g248
sg44
I0
sg45
I64
sg46
I72
sg34
g1
(g47
g3
Ntp2837
Rp2838
(dp2839
g51
I0
sg40
I3639
sg52
g2835
sg53
I0
sg34
S'PingPingPingPingPingPingPingPingPingPingPingPing'
p2840
sbsg55
Nsg56
I0
sg57
I5
sg58
I4
sg59
I16798
sg52
g2832
sg60
I00
sbsg55
Nsg52
Nsg53
I2048
sg60
I00
sbsbag1
(g2
g3
Ntp2841
Rp2842
(dp2843
g7
g265
sg27
g1
(g28
g3
Ntp2844
Rp2845
(dp2846
g32
g268
sg33
g343
sg34
g1
(g35
g3
Ntp2847
Rp2848
(dp2849
g39
I0
sg40
I17166
sg41
g348
sg42
I1
sg43
g273
sg44
I0
sg45
I64
sg46
I72
sg34
g1
(g47
g3
Ntp2850
Rp2851
(dp2852
g51
I0
sg40
I3639
sg52
g2848
sg53
I0
sg34
S'PingPingPingPingPingPingPingPingPingPingPingPing'
p2853
sbsg55
Nsg56
I0
sg57
I5
sg58
I4
sg59
I16799
sg52
g2845
sg60
I00
sbsg55
Nsg52
Nsg53
I2048
sg60
I00
sbsbag1
(g2
g3
Ntp2854
Rp2855
(dp2856
g7
g290
sg27
g1
(g28
g3
Ntp2857
Rp2858
(dp2859
g32
g293
sg33
g343
sg34
g1
(g35
g3
Ntp2860
Rp2861
(dp2862
g39
I0
sg40
I16910
sg41
g348
sg42
I1
sg43
g298
sg44
I0
sg45
I64
sg46
I72
sg34
g1
(g47
g3
Ntp2863
Rp2864
(dp2865
g51
I0
sg40
I3639
sg52
g2861
sg53
I0
sg34
S'PingPingPingPingPingPingPingPingPingPingPingPing'
p2866
sbsg55
Nsg56
I0
sg57
I5
sg58
I4
sg59
I16800
sg52
g2858
sg60
I00
sbsg55
Nsg52
Nsg53
I2048
sg60
I00
sbsbag1
(g2
g3
Ntp2867
Rp2868
(dp2869
g7
g315
sg27
g1
(g28
g3
Ntp2870
Rp2871
(dp2872
g32
g318
sg33
g343
sg34
g1
(g35
g3
Ntp2873
Rp2874
(dp2875
g39
I0
sg40
I16908
sg41
g348
sg42
I1
sg43
g323
sg44
I0
sg45
I64
sg46
I72
sg34
g1
(g47
g3
Ntp2876
Rp2877
(dp2878
g51
I0
sg40
I1591
sg52
g2874
sg53
I8
sg34
S'PingPingPingPingPingPingPingPingPingPingPingPing'
p2879
sbsg55
Nsg56
I0
sg57
I5
sg58
I4
sg59
I16801
sg52
g2871
sg60
I00
sbsg55
Nsg52
Nsg53
I2048
sg60
I00
sbsbag1
(g2
g3
Ntp2880
Rp2881
(dp2882
g7
g340
sg27
g1
(g28
g3
Ntp2883
Rp2884
(dp2885
g32
g343
sg33
g318
sg34
g1
(g35
g3
Ntp2886
Rp2887
(dp2888
g39
I0
sg40
I16907
sg41
g323
sg42
I1
sg43
g348
sg44
I0
sg45
I64
sg46
I72
sg34
g1
(g47
g3
Ntp2889
Rp2890
(dp2891
g51
I0
sg40
I1591
sg52
g2887
sg53
I8
sg34
S'PingPingPingPingPingPingPingPingPingPingPingPing'
p2892
sbsg55
Nsg56
I0
sg57
I5
sg58
I4
sg59
I16802
sg52
g2884
sg60
I00
sbsg55
Nsg52
Nsg53
I2048
sg60
I00
sbsbag1
(g2
g3
Ntp2893
Rp2894
(dp2895
g7
g365
sg27
g1
(g28
g3
Ntp2896
Rp2897
(dp2898
g32
g368
sg33
g318
sg34
g1
(g35
g3
Ntp2899
Rp2900
(dp2901
g39
I0
sg40
I16905
sg41
g323
sg42
I1
sg43
g373
sg44
I0
sg45
I64
sg46
I72
sg34
g1
(g47
g3
Ntp2902
Rp2903
(dp2904
g51
I0
sg40
I3639
sg52
g2900
sg53
I0
sg34
S'PingPingPingPingPingPingPingPingPingPingPingPing'
p2905
sbsg55
Nsg56
I0
sg57
I5
sg58
I4
sg59
I16803
sg52
g2897
sg60
I00
sbsg55
Nsg52
Nsg53
I2048
sg60
I00
sbsbag1
(g2
g3
Ntp2906
Rp2907
(dp2908
g7
g390
sg27
g1
(g28
g3
Ntp2909
Rp2910
(dp2911
g32
g393
sg33
g318
sg34
g1
(g35
g3
Ntp2912
Rp2913
(dp2914
g39
I0
sg40
I16649
sg41
g323
sg42
I1
sg43
g398
sg44
I0
sg45
I64
sg46
I72
sg34
g1
(g47
g3
Ntp2915
Rp2916
(dp2917
g51
I0
sg40
I3639
sg52
g2913
sg53
I0
sg34
S'PingPingPingPingPingPingPingPingPingPingPingPing'
p2918
sbsg55
Nsg56
I0
sg57
I5
sg58
I4
sg59
I16804
sg52
g2910
sg60
I00
sbsg55
Nsg52
Nsg53
I2048
sg60
I00
sbsbag1
(g2
g3
Ntp2919
Rp2920
(dp2921
g7
g415
sg27
g1
(g28
g3
Ntp2922
Rp2923
(dp2924
g32
g418
sg33
g318
sg34
g1
(g35
g3
Ntp2925
Rp2926
(dp2927
g39
I0
sg40
I16647
sg41
g323
sg42
I1
sg43
g423
sg44
I0
sg45
I64
sg46
I72
sg34
g1
(g47
g3
Ntp2928
Rp2929
(dp2930
g51
I0
sg40
I3639
sg52
g2926
sg53
I0
sg34
S'PingPingPingPingPingPingPingPingPingPingPingPing'
p2931
sbsg55
Nsg56
I0
sg57
I5
sg58
I4
sg59
I16805
sg52
g2923
sg60
I00
sbsg55
Nsg52
Nsg53
I2048
sg60
I00
sbsbag1
(g2
g3
Ntp2932
Rp2933
(dp2934
g7
g10
sg27
g1
(g28
g3
Ntp2935
Rp2936
(dp2937
g32
g15
sg33
g368
sg34
g1
(g35
g3
Ntp2938
Rp2939
(dp2940
g39
I0
sg40
I17161
sg41
g373
sg42
I1
sg43
g23
sg44
I0
sg45
I64
sg46
I72
sg34
g1
(g47
g3
Ntp2941
Rp2942
(dp2943
g51
I0
sg40
I1591
sg52
g2939
sg53
I8
sg34
S'PingPingPingPingPingPingPingPingPingPingPingPing'
p2944
sbsg55
Nsg56
I0
sg57
I5
sg58
I4
sg59
I16806
sg52
g2936
sg60
I00
sbsg55
Nsg52
Nsg53
I2048
sg60
I00
sbsbag1
(g2
g3
Ntp2945
Rp2946
(dp2947
g7
g65
sg27
g1
(g28
g3
Ntp2948
Rp2949
(dp2950
g32
g68
sg33
g368
sg34
g1
(g35
g3
Ntp2951
Rp2952
(dp2953
g39
I0
sg40
I17159
sg41
g373
sg42
I1
sg43
g73
sg44
I0
sg45
I64
sg46
I72
sg34
g1
(g47
g3
Ntp2954
Rp2955
(dp2956
g51
I0
sg40
I1591
sg52
g2952
sg53
I8
sg34
S'PingPingPingPingPingPingPingPingPingPingPingPing'
p2957
sbsg55
Nsg56
I0
sg57
I5
sg58
I4
sg59
I16807
sg52
g2949
sg60
I00
sbsg55
Nsg52
Nsg53
I2048
sg60
I00
sbsbag1
(g2
g3
Ntp2958
Rp2959
(dp2960
g7
g90
sg27
g1
(g28
g3
Ntp2961
Rp2962
(dp2963
g32
g93
sg33
g368
sg34
g1
(g35
g3
Ntp2964
Rp2965
(dp2966
g39
I0
sg40
I16903
sg41
g373
sg42
I1
sg43
g98
sg44
I0
sg45
I64
sg46
I72
sg34
g1
(g47
g3
Ntp2967
Rp2968
(dp2969
g51
I0
sg40
I3639
sg52
g2965
sg53
I0
sg34
S'PingPingPingPingPingPingPingPingPingPingPingPing'
p2970
sbsg55
Nsg56
I0
sg57
I5
sg58
I4
sg59
I16808
sg52
g2962
sg60
I00
sbsg55
Nsg52
Nsg53
I2048
sg60
I00
sbsbag1
(g2
g3
Ntp2971
Rp2972
(dp2973
g7
g115
sg27
g1
(g28
g3
Ntp2974
Rp2975
(dp2976
g32
g118
sg33
g368
sg34
g1
(g35
g3
Ntp2977
Rp2978
(dp2979
g39
I0
sg40
I16901
sg41
g373
sg42
I1
sg43
g123
sg44
I0
sg45
I64
sg46
I72
sg34
g1
(g47
g3
Ntp2980
Rp2981
(dp2982
g51
I0
sg40
I1591
sg52
g2978
sg53
I8
sg34
S'PingPingPingPingPingPingPingPingPingPingPingPing'
p2983
sbsg55
Nsg56
I0
sg57
I5
sg58
I4
sg59
I16809
sg52
g2975
sg60
I00
sbsg55
Nsg52
Nsg53
I2048
sg60
I00
sbsbag1
(g2
g3
Ntp2984
Rp2985
(dp2986
g7
g140
sg27
g1
(g28
g3
Ntp2987
Rp2988
(dp2989
g32
g143
sg33
g368
sg34
g1
(g35
g3
Ntp2990
Rp2991
(dp2992
g39
I0
sg40
I17156
sg41
g373
sg42
I1
sg43
g148
sg44
I0
sg45
I64
sg46
I72
sg34
g1
(g47
g3
Ntp2993
Rp2994
(dp2995
g51
I0
sg40
I1591
sg52
g2991
sg53
I8
sg34
S'PingPingPingPingPingPingPingPingPingPingPingPing'
p2996
sbsg55
Nsg56
I0
sg57
I5
sg58
I4
sg59
I16810
sg52
g2988
sg60
I00
sbsg55
Nsg52
Nsg53
I2048
sg60
I00
sbsbag1
(g2
g3
Ntp2997
Rp2998
(dp2999
g7
g165
sg27
g1
(g28
g3
Ntp3000
Rp3001
(dp3002
g32
g168
sg33
g368
sg34
g1
(g35
g3
Ntp3003
Rp3004
(dp3005
g39
I0
sg40
I17154
sg41
g373
sg42
I1
sg43
g173
sg44
I0
sg45
I64
sg46
I72
sg34
g1
(g47
g3
Ntp3006
Rp3007
(dp3008
g51
I0
sg40
I3639
sg52
g3004
sg53
I0
sg34
S'PingPingPingPingPingPingPingPingPingPingPingPing'
p3009
sbsg55
Nsg56
I0
sg57
I5
sg58
I4
sg59
I16811
sg52
g3001
sg60
I00
sbsg55
Nsg52
Nsg53
I2048
sg60
I00
sbsbag1
(g2
g3
Ntp3010
Rp3011
(dp3012
g7
g190
sg27
g1
(g28
g3
Ntp3013
Rp3014
(dp3015
g32
g193
sg33
g368
sg34
g1
(g35
g3
Ntp3016
Rp3017
(dp3018
g39
I0
sg40
I16898
sg41
g373
sg42
I1
sg43
g198
sg44
I0
sg45
I64
sg46
I72
sg34
g1
(g47
g3
Ntp3019
Rp3020
(dp3021
g51
I0
sg40
I1591
sg52
g3017
sg53
I8
sg34
S'PingPingPingPingPingPingPingPingPingPingPingPing'
p3022
sbsg55
Nsg56
I0
sg57
I5
sg58
I4
sg59
I16812
sg52
g3014
sg60
I00
sbsg55
Nsg52
Nsg53
I2048
sg60
I00
sbsbag1
(g2
g3
Ntp3023
Rp3024
(dp3025
g7
g215
sg27
g1
(g28
g3
Ntp3026
Rp3027
(dp3028
g32
g218
sg33
g368
sg34
g1
(g35
g3
Ntp3029
Rp3030
(dp3031
g39
I0
sg40
I16896
sg41
g373
sg42
I1
sg43
g223
sg44
I0
sg45
I64
sg46
I72
sg34
g1
(g47
g3
Ntp3032
Rp3033
(dp3034
g51
I0
sg40
I3639
sg52
g3030
sg53
I0
sg34
S'PingPingPingPingPingPingPingPingPingPingPingPing'
p3035
sbsg55
Nsg56
I0
sg57
I5
sg58
I4
sg59
I16813
sg52
g3027
sg60
I00
sbsg55
Nsg52
Nsg53
I2048
sg60
I00
sbsbag1
(g2
g3
Ntp3036
Rp3037
(dp3038
g7
g240
sg27
g1
(g28
g3
Ntp3039
Rp3040
(dp3041
g32
g243
sg33
g368
sg34
g1
(g35
g3
Ntp3042
Rp3043
(dp3044
g39
I0
sg40
I17151
sg41
g373
sg42
I1
sg43
g248
sg44
I0
sg45
I64
sg46
I72
sg34
g1
(g47
g3
Ntp3045
Rp3046
(dp3047
g51
I0
sg40
I1591
sg52
g3043
sg53
I8
sg34
S'PingPingPingPingPingPingPingPingPingPingPingPing'
p3048
sbsg55
Nsg56
I0
sg57
I5
sg58
I4
sg59
I16814
sg52
g3040
sg60
I00
sbsg55
Nsg52
Nsg53
I2048
sg60
I00
sbsbag1
(g2
g3
Ntp3049
Rp3050
(dp3051
g7
g265
sg27
g1
(g28
g3
Ntp3052
Rp3053
(dp3054
g32
g268
sg33
g368
sg34
g1
(g35
g3
Ntp3055
Rp3056
(dp3057
g39
I0
sg40
I17149
sg41
g373
sg42
I1
sg43
g273
sg44
I0
sg45
I64
sg46
I72
sg34
g1
(g47
g3
Ntp3058
Rp3059
(dp3060
g51
I0
sg40
I1591
sg52
g3056
sg53
I8
sg34
S'PingPingPingPingPingPingPingPingPingPingPingPing'
p3061
sbsg55
Nsg56
I0
sg57
I5
sg58
I4
sg59
I16815
sg52
g3053
sg60
I00
sbsg55
Nsg52
Nsg53
I2048
sg60
I00
sbsbag1
(g2
g3
Ntp3062
Rp3063
(dp3064
g7
g290
sg27
g1
(g28
g3
Ntp3065
Rp3066
(dp3067
g32
g293
sg33
g368
sg34
g1
(g35
g3
Ntp3068
Rp3069
(dp3070
g39
I0
sg40
I16893
sg41
g373
sg42
I1
sg43
g298
sg44
I0
sg45
I64
sg46
I72
sg34
g1
(g47
g3
Ntp3071
Rp3072
(dp3073
g51
I0
sg40
I3639
sg52
g3069
sg53
I0
sg34
S'PingPingPingPingPingPingPingPingPingPingPingPing'
p3074
sbsg55
Nsg56
I0
sg57
I5
sg58
I4
sg59
I16816
sg52
g3066
sg60
I00
sbsg55
Nsg52
Nsg53
I2048
sg60
I00
sbsbag1
(g2
g3
Ntp3075
Rp3076
(dp3077
g7
g315
sg27
g1
(g28
g3
Ntp3078
Rp3079
(dp3080
g32
g318
sg33
g368
sg34
g1
(g35
g3
Ntp3081
Rp3082
(dp3083
g39
I0
sg40
I16891
sg41
g373
sg42
I1
sg43
g323
sg44
I0
sg45
I64
sg46
I72
sg34
g1
(g47
g3
Ntp3084
Rp3085
(dp3086
g51
I0
sg40
I3639
sg52
g3082
sg53
I0
sg34
S'PingPingPingPingPingPingPingPingPingPingPingPing'
p3087
sbsg55
Nsg56
I0
sg57
I5
sg58
I4
sg59
I16817
sg52
g3079
sg60
I00
sbsg55
Nsg52
Nsg53
I2048
sg60
I00
sbsbag1
(g2
g3
Ntp3088
Rp3089
(dp3090
g7
g340
sg27
g1
(g28
g3
Ntp3091
Rp3092
(dp3093
g32
g343
sg33
g368
sg34
g1
(g35
g3
Ntp3094
Rp3095
(dp3096
g39
I0
sg40
I17146
sg41
g373
sg42
I1
sg43
g348
sg44
I0
sg45
I64
sg46
I72
sg34
g1
(g47
g3
Ntp3097
Rp3098
(dp3099
g51
I0
sg40
I1591
sg52
g3095
sg53
I8
sg34
S'PingPingPingPingPingPingPingPingPingPingPingPing'
p3100
sbsg55
Nsg56
I0
sg57
I5
sg58
I4
sg59
I16818
sg52
g3092
sg60
I00
sbsg55
Nsg52
Nsg53
I2048
sg60
I00
sbsbag1
(g2
g3
Ntp3101
Rp3102
(dp3103
g7
g365
sg27
g1
(g28
g3
Ntp3104
Rp3105
(dp3106
g32
g368
sg33
g343
sg34
g1
(g35
g3
Ntp3107
Rp3108
(dp3109
g39
I0
sg40
I17145
sg41
g348
sg42
I1
sg43
g373
sg44
I0
sg45
I64
sg46
I72
sg34
g1
(g47
g3
Ntp3110
Rp3111
(dp3112
g51
I0
sg40
I1591
sg52
g3108
sg53
I8
sg34
S'PingPingPingPingPingPingPingPingPingPingPingPing'
p3113
sbsg55
Nsg56
I0
sg57
I5
sg58
I4
sg59
I16819
sg52
g3105
sg60
I00
sbsg55
Nsg52
Nsg53
I2048
sg60
I00
sbsbag1
(g2
g3
Ntp3114
Rp3115
(dp3116
g7
g390
sg27
g1
(g28
g3
Ntp3117
Rp3118
(dp3119
g32
g393
sg33
g343
sg34
g1
(g35
g3
Ntp3120
Rp3121
(dp3122
g39
I0
sg40
I16889
sg41
g348
sg42
I1
sg43
g398
sg44
I0
sg45
I64
sg46
I72
sg34
g1
(g47
g3
Ntp3123
Rp3124
(dp3125
g51
I0
sg40
I3639
sg52
g3121
sg53
I0
sg34
S'PingPingPingPingPingPingPingPingPingPingPingPing'
p3126
sbsg55
Nsg56
I0
sg57
I5
sg58
I4
sg59
I16820
sg52
g3118
sg60
I00
sbsg55
Nsg52
Nsg53
I2048
sg60
I00
sbsbag1
(g2
g3
Ntp3127
Rp3128
(dp3129
g7
g415
sg27
g1
(g28
g3
Ntp3130
Rp3131
(dp3132
g32
g418
sg33
g343
sg34
g1
(g35
g3
Ntp3133
Rp3134
(dp3135
g39
I0
sg40
I16887
sg41
g348
sg42
I1
sg43
g423
sg44
I0
sg45
I64
sg46
I72
sg34
g1
(g47
g3
Ntp3136
Rp3137
(dp3138
g51
I0
sg40
I1591
sg52
g3134
sg53
I8
sg34
S'PingPingPingPingPingPingPingPingPingPingPingPing'
p3139
sbsg55
Nsg56
I0
sg57
I5
sg58
I4
sg59
I16821
sg52
g3131
sg60
I00
sbsg55
Nsg52
Nsg53
I2048
sg60
I00
sbsbag1
(g2
g3
Ntp3140
Rp3141
(dp3142
g7
g10
sg27
g1
(g28
g3
Ntp3143
Rp3144
(dp3145
g32
g15
sg33
g393
sg34
g1
(g35
g3
Ntp3146
Rp3147
(dp3148
g39
I0
sg40
I16890
sg41
g398
sg42
I1
sg43
g23
sg44
I0
sg45
I64
sg46
I72
sg34
g1
(g47
g3
Ntp3149
Rp3150
(dp3151
g51
I0
sg40
I1591
sg52
g3147
sg53
I8
sg34
S'PingPingPingPingPingPingPingPingPingPingPingPing'
p3152
sbsg55
Nsg56
I0
sg57
I5
sg58
I4
sg59
I16822
sg52
g3144
sg60
I00
sbsg55
Nsg52
Nsg53
I2048
sg60
I00
sbsbag1
(g2
g3
Ntp3153
Rp3154
(dp3155
g7
g65
sg27
g1
(g28
g3
Ntp3156
Rp3157
(dp3158
g32
g68
sg33
g393
sg34
g1
(g35
g3
Ntp3159
Rp3160
(dp3161
g39
I0
sg40
I16888
sg41
g398
sg42
I1
sg43
g73
sg44
I0
sg45
I64
sg46
I72
sg34
g1
(g47
g3
Ntp3162
Rp3163
(dp3164
g51
I0
sg40
I1591
sg52
g3160
sg53
I8
sg34
S'PingPingPingPingPingPingPingPingPingPingPingPing'
p3165
sbsg55
Nsg56
I0
sg57
I5
sg58
I4
sg59
I16823
sg52
g3157
sg60
I00
sbsg55
Nsg52
Nsg53
I2048
sg60
I00
sbsbag1
(g2
g3
Ntp3166
Rp3167
(dp3168
g7
g90
sg27
g1
(g28
g3
Ntp3169
Rp3170
(dp3171
g32
g93
sg33
g393
sg34
g1
(g35
g3
Ntp3172
Rp3173
(dp3174
g39
I0
sg40
I16632
sg41
g398
sg42
I1
sg43
g98
sg44
I0
sg45
I64
sg46
I72
sg34
g1
(g47
g3
Ntp3175
Rp3176
(dp3177
g51
I0
sg40
I1591
sg52
g3173
sg53
I8
sg34
S'PingPingPingPingPingPingPingPingPingPingPingPing'
p3178
sbsg55
Nsg56
I0
sg57
I5
sg58
I4
sg59
I16824
sg52
g3170
sg60
I00
sbsg55
Nsg52
Nsg53
I2048
sg60
I00
sbsbag1
(g2
g3
Ntp3179
Rp3180
(dp3181
g7
g115
sg27
g1
(g28
g3
Ntp3182
Rp3183
(dp3184
g32
g118
sg33
g393
sg34
g1
(g35
g3
Ntp3185
Rp3186
(dp3187
g39
I0
sg40
I16630
sg41
g398
sg42
I1
sg43
g123
sg44
I0
sg45
I64
sg46
I72
sg34
g1
(g47
g3
Ntp3188
Rp3189
(dp3190
g51
I0
sg40
I1591
sg52
g3186
sg53
I8
sg34
S'PingPingPingPingPingPingPingPingPingPingPingPing'
p3191
sbsg55
Nsg56
I0
sg57
I5
sg58
I4
sg59
I16825
sg52
g3183
sg60
I00
sbsg55
Nsg52
Nsg53
I2048
sg60
I00
sbsbag1
(g2
g3
Ntp3192
Rp3193
(dp3194
g7
g140
sg27
g1
(g28
g3
Ntp3195
Rp3196
(dp3197
g32
g143
sg33
g393
sg34
g1
(g35
g3
Ntp3198
Rp3199
(dp3200
g39
I0
sg40
I16885
sg41
g398
sg42
I1
sg43
g148
sg44
I0
sg45
I64
sg46
I72
sg34
g1
(g47
g3
Ntp3201
Rp3202
(dp3203
g51
I0
sg40
I1591
sg52
g3199
sg53
I8
sg34
S'PingPingPingPingPingPingPingPingPingPingPingPing'
p3204
sbsg55
Nsg56
I0
sg57
I5
sg58
I4
sg59
I16826
sg52
g3196
sg60
I00
sbsg55
Nsg52
Nsg53
I2048
sg60
I00
sbsbag1
(g2
g3
Ntp3205
Rp3206
(dp3207
g7
g165
sg27
g1
(g28
g3
Ntp3208
Rp3209
(dp3210
g32
g168
sg33
g393
sg34
g1
(g35
g3
Ntp3211
Rp3212
(dp3213
g39
I0
sg40
I16883
sg41
g398
sg42
I1
sg43
g173
sg44
I0
sg45
I64
sg46
I72
sg34
g1
(g47
g3
Ntp3214
Rp3215
(dp3216
g51
I0
sg40
I1591
sg52
g3212
sg53
I8
sg34
S'PingPingPingPingPingPingPingPingPingPingPingPing'
p3217
sbsg55
Nsg56
I0
sg57
I5
sg58
I4
sg59
I16827
sg52
g3209
sg60
I00
sbsg55
Nsg52
Nsg53
I2048
sg60
I00
sbsbag1
(g2
g3
Ntp3218
Rp3219
(dp3220
g7
g190
sg27
g1
(g28
g3
Ntp3221
Rp3222
(dp3223
g32
g193
sg33
g393
sg34
g1
(g35
g3
Ntp3224
Rp3225
(dp3226
g39
I0
sg40
I16627
sg41
g398
sg42
I1
sg43
g198
sg44
I0
sg45
I64
sg46
I72
sg34
g1
(g47
g3
Ntp3227
Rp3228
(dp3229
g51
I0
sg40
I3639
sg52
g3225
sg53
I0
sg34
S'PingPingPingPingPingPingPingPingPingPingPingPing'
p3230
sbsg55
Nsg56
I0
sg57
I5
sg58
I4
sg59
I16828
sg52
g3222
sg60
I00
sbsg55
Nsg52
Nsg53
I2048
sg60
I00
sbsbag1
(g2
g3
Ntp3231
Rp3232
(dp3233
g7
g215
sg27
g1
(g28
g3
Ntp3234
Rp3235
(dp3236
g32
g218
sg33
g393
sg34
g1
(g35
g3
Ntp3237
Rp3238
(dp3239
g39
I0
sg40
I16625
sg41
g398
sg42
I1
sg43
g223
sg44
I0
sg45
I64
sg46
I72
sg34
g1
(g47
g3
Ntp3240
Rp3241
(dp3242
g51
I0
sg40
I1591
sg52
g3238
sg53
I8
sg34
S'PingPingPingPingPingPingPingPingPingPingPingPing'
p3243
sbsg55
Nsg56
I0
sg57
I5
sg58
I4
sg59
I16829
sg52
g3235
sg60
I00
sbsg55
Nsg52
Nsg53
I2048
sg60
I00
sbsbag1
(g2
g3
Ntp3244
Rp3245
(dp3246
g7
g240
sg27
g1
(g28
g3
Ntp3247
Rp3248
(dp3249
g32
g243
sg33
g393
sg34
g1
(g35
g3
Ntp3250
Rp3251
(dp3252
g39
I0
sg40
I16880
sg41
g398
sg42
I1
sg43
g248
sg44
I0
sg45
I64
sg46
I72
sg34
g1
(g47
g3
Ntp3253
Rp3254
(dp3255
g51
I0
sg40
I3639
sg52
g3251
sg53
I0
sg34
S'PingPingPingPingPingPingPingPingPingPingPingPing'
p3256
sbsg55
Nsg56
I0
sg57
I5
sg58
I4
sg59
I16830
sg52
g3248
sg60
I00
sbsg55
Nsg52
Nsg53
I2048
sg60
I00
sbsbag1
(g2
g3
Ntp3257
Rp3258
(dp3259
g7
g265
sg27
g1
(g28
g3
Ntp3260
Rp3261
(dp3262
g32
g268
sg33
g393
sg34
g1
(g35
g3
Ntp3263
Rp3264
(dp3265
g39
I0
sg40
I16878
sg41
g398
sg42
I1
sg43
g273
sg44
I0
sg45
I64
sg46
I72
sg34
g1
(g47
g3
Ntp3266
Rp3267
(dp3268
g51
I0
sg40
I3639
sg52
g3264
sg53
I0
sg34
S'PingPingPingPingPingPingPingPingPingPingPingPing'
p3269
sbsg55
Nsg56
I0
sg57
I5
sg58
I4
sg59
I16831
sg52
g3261
sg60
I00
sbsg55
Nsg52
Nsg53
I2048
sg60
I00
sbsbag1
(g2
g3
Ntp3270
Rp3271
(dp3272
g7
g290
sg27
g1
(g28
g3
Ntp3273
Rp3274
(dp3275
g32
g293
sg33
g393
sg34
g1
(g35
g3
Ntp3276
Rp3277
(dp3278
g39
I0
sg40
I16622
sg41
g398
sg42
I1
sg43
g298
sg44
I0
sg45
I64
sg46
I72
sg34
g1
(g47
g3
Ntp3279
Rp3280
(dp3281
g51
I0
sg40
I3639
sg52
g3277
sg53
I0
sg34
S'PingPingPingPingPingPingPingPingPingPingPingPing'
p3282
sbsg55
Nsg56
I0
sg57
I5
sg58
I4
sg59
I16832
sg52
g3274
sg60
I00
sbsg55
Nsg52
Nsg53
I2048
sg60
I00
sbsbag1
(g2
g3
Ntp3283
Rp3284
(dp3285
g7
g315
sg27
g1
(g28
g3
Ntp3286
Rp3287
(dp3288
g32
g318
sg33
g393
sg34
g1
(g35
g3
Ntp3289
Rp3290
(dp3291
g39
I0
sg40
I16620
sg41
g398
sg42
I1
sg43
g323
sg44
I0
sg45
I64
sg46
I72
sg34
g1
(g47
g3
Ntp3292
Rp3293
(dp3294
g51
I0
sg40
I1591
sg52
g3290
sg53
I8
sg34
S'PingPingPingPingPingPingPingPingPingPingPingPing'
p3295
sbsg55
Nsg56
I0
sg57
I5
sg58
I4
sg59
I16833
sg52
g3287
sg60
I00
sbsg55
Nsg52
Nsg53
I2048
sg60
I00
sbsbag1
(g2
g3
Ntp3296
Rp3297
(dp3298
g7
g340
sg27
g1
(g28
g3
Ntp3299
Rp3300
(dp3301
g32
g343
sg33
g393
sg34
g1
(g35
g3
Ntp3302
Rp3303
(dp3304
g39
I0
sg40
I16875
sg41
g398
sg42
I1
sg43
g348
sg44
I0
sg45
I64
sg46
I72
sg34
g1
(g47
g3
Ntp3305
Rp3306
(dp3307
g51
I0
sg40
I3639
sg52
g3303
sg53
I0
sg34
S'PingPingPingPingPingPingPingPingPingPingPingPing'
p3308
sbsg55
Nsg56
I0
sg57
I5
sg58
I4
sg59
I16834
sg52
g3300
sg60
I00
sbsg55
Nsg52
Nsg53
I2048
sg60
I00
sbsbag1
(g2
g3
Ntp3309
Rp3310
(dp3311
g7
g365
sg27
g1
(g28
g3
Ntp3312
Rp3313
(dp3314
g32
g368
sg33
g393
sg34
g1
(g35
g3
Ntp3315
Rp3316
(dp3317
g39
I0
sg40
I16873
sg41
g398
sg42
I1
sg43
g373
sg44
I0
sg45
I64
sg46
I72
sg34
g1
(g47
g3
Ntp3318
Rp3319
(dp3320
g51
I0
sg40
I3639
sg52
g3316
sg53
I0
sg34
S'PingPingPingPingPingPingPingPingPingPingPingPing'
p3321
sbsg55
Nsg56
I0
sg57
I5
sg58
I4
sg59
I16835
sg52
g3313
sg60
I00
sbsg55
Nsg52
Nsg53
I2048
sg60
I00
sbsbag1
(g2
g3
Ntp3322
Rp3323
(dp3324
g7
g390
sg27
g1
(g28
g3
Ntp3325
Rp3326
(dp3327
g32
g393
sg33
g368
sg34
g1
(g35
g3
Ntp3328
Rp3329
(dp3330
g39
I0
sg40
I16872
sg41
g373
sg42
I1
sg43
g398
sg44
I0
sg45
I64
sg46
I72
sg34
g1
(g47
g3
Ntp3331
Rp3332
(dp3333
g51
I0
sg40
I1591
sg52
g3329
sg53
I8
sg34
S'PingPingPingPingPingPingPingPingPingPingPingPing'
p3334
sbsg55
Nsg56
I0
sg57
I5
sg58
I4
sg59
I16836
sg52
g3326
sg60
I00
sbsg55
Nsg52
Nsg53
I2048
sg60
I00
sbsbag1
(g2
g3
Ntp3335
Rp3336
(dp3337
g7
g415
sg27
g1
(g28
g3
Ntp3338
Rp3339
(dp3340
g32
g418
sg33
g368
sg34
g1
(g35
g3
Ntp3341
Rp3342
(dp3343
g39
I0
sg40
I16870
sg41
g373
sg42
I1
sg43
g423
sg44
I0
sg45
I64
sg46
I72
sg34
g1
(g47
g3
Ntp3344
Rp3345
(dp3346
g51
I0
sg40
I3639
sg52
g3342
sg53
I0
sg34
S'PingPingPingPingPingPingPingPingPingPingPingPing'
p3347
sbsg55
Nsg56
I0
sg57
I5
sg58
I4
sg59
I16837
sg52
g3339
sg60
I00
sbsg55
Nsg52
Nsg53
I2048
sg60
I00
sbsbag1
(g2
g3
Ntp3348
Rp3349
(dp3350
g7
g10
sg27
g1
(g28
g3
Ntp3351
Rp3352
(dp3353
g32
g15
sg33
g418
sg34
g1
(g35
g3
Ntp3354
Rp3355
(dp3356
g39
I0
sg40
I16873
sg41
g423
sg42
I1
sg43
g23
sg44
I0
sg45
I64
sg46
I72
sg34
g1
(g47
g3
Ntp3357
Rp3358
(dp3359
g51
I0
sg40
I3639
sg52
g3355
sg53
I0
sg34
S'PingPingPingPingPingPingPingPingPingPingPingPing'
p3360
sbsg55
Nsg56
I0
sg57
I5
sg58
I4
sg59
I16838
sg52
g3352
sg60
I00
sbsg55
Nsg52
Nsg53
I2048
sg60
I00
sbsbag1
(g2
g3
Ntp3361
Rp3362
(dp3363
g7
g65
sg27
g1
(g28
g3
Ntp3364
Rp3365
(dp3366
g32
g68
sg33
g418
sg34
g1
(g35
g3
Ntp3367
Rp3368
(dp3369
g39
I0
sg40
I16871
sg41
g423
sg42
I1
sg43
g73
sg44
I0
sg45
I64
sg46
I72
sg34
g1
(g47
g3
Ntp3370
Rp3371
(dp3372
g51
I0
sg40
I3639
sg52
g3368
sg53
I0
sg34
S'PingPingPingPingPingPingPingPingPingPingPingPing'
p3373
sbsg55
Nsg56
I0
sg57
I5
sg58
I4
sg59
I16839
sg52
g3365
sg60
I00
sbsg55
Nsg52
Nsg53
I2048
sg60
I00
sbsbag1
(g2
g3
Ntp3374
Rp3375
(dp3376
g7
g90
sg27
g1
(g28
g3
Ntp3377
Rp3378
(dp3379
g32
g93
sg33
g418
sg34
g1
(g35
g3
Ntp3380
Rp3381
(dp3382
g39
I0
sg40
I16615
sg41
g423
sg42
I1
sg43
g98
sg44
I0
sg45
I64
sg46
I72
sg34
g1
(g47
g3
Ntp3383
Rp3384
(dp3385
g51
I0
sg40
I1591
sg52
g3381
sg53
I8
sg34
S'PingPingPingPingPingPingPingPingPingPingPingPing'
p3386
sbsg55
Nsg56
I0
sg57
I5
sg58
I4
sg59
I16840
sg52
g3378
sg60
I00
sbsg55
Nsg52
Nsg53
I2048
sg60
I00
sbsbag1
(g2
g3
Ntp3387
Rp3388
(dp3389
g7
g115
sg27
g1
(g28
g3
Ntp3390
Rp3391
(dp3392
g32
g118
sg33
g418
sg34
g1
(g35
g3
Ntp3393
Rp3394
(dp3395
g39
I0
sg40
I16613
sg41
g423
sg42
I1
sg43
g123
sg44
I0
sg45
I64
sg46
I72
sg34
g1
(g47
g3
Ntp3396
Rp3397
(dp3398
g51
I0
sg40
I3639
sg52
g3394
sg53
I0
sg34
S'PingPingPingPingPingPingPingPingPingPingPingPing'
p3399
sbsg55
Nsg56
I0
sg57
I5
sg58
I4
sg59
I16841
sg52
g3391
sg60
I00
sbsg55
Nsg52
Nsg53
I2048
sg60
I00
sbsbag1
(g2
g3
Ntp3400
Rp3401
(dp3402
g7
g140
sg27
g1
(g28
g3
Ntp3403
Rp3404
(dp3405
g32
g143
sg33
g418
sg34
g1
(g35
g3
Ntp3406
Rp3407
(dp3408
g39
I0
sg40
I16868
sg41
g423
sg42
I1
sg43
g148
sg44
I0
sg45
I64
sg46
I72
sg34
g1
(g47
g3
Ntp3409
Rp3410
(dp3411
g51
I0
sg40
I1591
sg52
g3407
sg53
I8
sg34
S'PingPingPingPingPingPingPingPingPingPingPingPing'
p3412
sbsg55
Nsg56
I0
sg57
I5
sg58
I4
sg59
I16842
sg52
g3404
sg60
I00
sbsg55
Nsg52
Nsg53
I2048
sg60
I00
sbsbag1
(g2
g3
Ntp3413
Rp3414
(dp3415
g7
g165
sg27
g1
(g28
g3
Ntp3416
Rp3417
(dp3418
g32
g168
sg33
g418
sg34
g1
(g35
g3
Ntp3419
Rp3420
(dp3421
g39
I0
sg40
I16866
sg41
g423
sg42
I1
sg43
g173
sg44
I0
sg45
I64
sg46
I72
sg34
g1
(g47
g3
Ntp3422
Rp3423
(dp3424
g51
I0
sg40
I3639
sg52
g3420
sg53
I0
sg34
S'PingPingPingPingPingPingPingPingPingPingPingPing'
p3425
sbsg55
Nsg56
I0
sg57
I5
sg58
I4
sg59
I16843
sg52
g3417
sg60
I00
sbsg55
Nsg52
Nsg53
I2048
sg60
I00
sbsbag1
(g2
g3
Ntp3426
Rp3427
(dp3428
g7
g190
sg27
g1
(g28
g3
Ntp3429
Rp3430
(dp3431
g32
g193
sg33
g418
sg34
g1
(g35
g3
Ntp3432
Rp3433
(dp3434
g39
I0
sg40
I16610
sg41
g423
sg42
I1
sg43
g198
sg44
I0
sg45
I64
sg46
I72
sg34
g1
(g47
g3
Ntp3435
Rp3436
(dp3437
g51
I0
sg40
I1591
sg52
g3433
sg53
I8
sg34
S'PingPingPingPingPingPingPingPingPingPingPingPing'
p3438
sbsg55
Nsg56
I0
sg57
I5
sg58
I4
sg59
I16844
sg52
g3430
sg60
I00
sbsg55
Nsg52
Nsg53
I2048
sg60
I00
sbsbag1
(g2
g3
Ntp3439
Rp3440
(dp3441
g7
g215
sg27
g1
(g28
g3
Ntp3442
Rp3443
(dp3444
g32
g218
sg33
g418
sg34
g1
(g35
g3
Ntp3445
Rp3446
(dp3447
g39
I0
sg40
I16608
sg41
g423
sg42
I1
sg43
g223
sg44
I0
sg45
I64
sg46
I72
sg34
g1
(g47
g3
Ntp3448
Rp3449
(dp3450
g51
I0
sg40
I3639
sg52
g3446
sg53
I0
sg34
S'PingPingPingPingPingPingPingPingPingPingPingPing'
p3451
sbsg55
Nsg56
I0
sg57
I5
sg58
I4
sg59
I16845
sg52
g3443
sg60
I00
sbsg55
Nsg52
Nsg53
I2048
sg60
I00
sbsbag1
(g2
g3
Ntp3452
Rp3453
(dp3454
g7
g240
sg27
g1
(g28
g3
Ntp3455
Rp3456
(dp3457
g32
g243
sg33
g418
sg34
g1
(g35
g3
Ntp3458
Rp3459
(dp3460
g39
I0
sg40
I16863
sg41
g423
sg42
I1
sg43
g248
sg44
I0
sg45
I64
sg46
I72
sg34
g1
(g47
g3
Ntp3461
Rp3462
(dp3463
g51
I0
sg40
I3639
sg52
g3459
sg53
I0
sg34
S'PingPingPingPingPingPingPingPingPingPingPingPing'
p3464
sbsg55
Nsg56
I0
sg57
I5
sg58
I4
sg59
I16846
sg52
g3456
sg60
I00
sbsg55
Nsg52
Nsg53
I2048
sg60
I00
sbsbag1
(g2
g3
Ntp3465
Rp3466
(dp3467
g7
g265
sg27
g1
(g28
g3
Ntp3468
Rp3469
(dp3470
g32
g268
sg33
g418
sg34
g1
(g35
g3
Ntp3471
Rp3472
(dp3473
g39
I0
sg40
I16861
sg41
g423
sg42
I1
sg43
g273
sg44
I0
sg45
I64
sg46
I72
sg34
g1
(g47
g3
Ntp3474
Rp3475
(dp3476
g51
I0
sg40
I3639
sg52
g3472
sg53
I0
sg34
S'PingPingPingPingPingPingPingPingPingPingPingPing'
p3477
sbsg55
Nsg56
I0
sg57
I5
sg58
I4
sg59
I16847
sg52
g3469
sg60
I00
sbsg55
Nsg52
Nsg53
I2048
sg60
I00
sbsbag1
(g2
g3
Ntp3478
Rp3479
(dp3480
g7
g290
sg27
g1
(g28
g3
Ntp3481
Rp3482
(dp3483
g32
g293
sg33
g418
sg34
g1
(g35
g3
Ntp3484
Rp3485
(dp3486
g39
I0
sg40
I16605
sg41
g423
sg42
I1
sg43
g298
sg44
I0
sg45
I64
sg46
I72
sg34
g1
(g47
g3
Ntp3487
Rp3488
(dp3489
g51
I0
sg40
I1591
sg52
g3485
sg53
I8
sg34
S'PingPingPingPingPingPingPingPingPingPingPingPing'
p3490
sbsg55
Nsg56
I0
sg57
I5
sg58
I4
sg59
I16848
sg52
g3482
sg60
I00
sbsg55
Nsg52
Nsg53
I2048
sg60
I00
sbsbag1
(g2
g3
Ntp3491
Rp3492
(dp3493
g7
g315
sg27
g1
(g28
g3
Ntp3494
Rp3495
(dp3496
g32
g318
sg33
g418
sg34
g1
(g35
g3
Ntp3497
Rp3498
(dp3499
g39
I0
sg40
I16603
sg41
g423
sg42
I1
sg43
g323
sg44
I0
sg45
I64
sg46
I72
sg34
g1
(g47
g3
Ntp3500
Rp3501
(dp3502
g51
I0
sg40
I3639
sg52
g3498
sg53
I0
sg34
S'PingPingPingPingPingPingPingPingPingPingPingPing'
p3503
sbsg55
Nsg56
I0
sg57
I5
sg58
I4
sg59
I16849
sg52
g3495
sg60
I00
sbsg55
Nsg52
Nsg53
I2048
sg60
I00
sbsbag1
(g2
g3
Ntp3504
Rp3505
(dp3506
g7
g340
sg27
g1
(g28
g3
Ntp3507
Rp3508
(dp3509
g32
g343
sg33
g418
sg34
g1
(g35
g3
Ntp3510
Rp3511
(dp3512
g39
I0
sg40
I16858
sg41
g423
sg42
I1
sg43
g348
sg44
I0
sg45
I64
sg46
I72
sg34
g1
(g47
g3
Ntp3513
Rp3514
(dp3515
g51
I0
sg40
I3639
sg52
g3511
sg53
I0
sg34
S'PingPingPingPingPingPingPingPingPingPingPingPing'
p3516
sbsg55
Nsg56
I0
sg57
I5
sg58
I4
sg59
I16850
sg52
g3508
sg60
I00
sbsg55
Nsg52
Nsg53
I2048
sg60
I00
sbsbag1
(g2
g3
Ntp3517
Rp3518
(dp3519
g7
g365
sg27
g1
(g28
g3
Ntp3520
Rp3521
(dp3522
g32
g368
sg33
g418
sg34
g1
(g35
g3
Ntp3523
Rp3524
(dp3525
g39
I0
sg40
I16856
sg41
g423
sg42
I1
sg43
g373
sg44
I0
sg45
I64
sg46
I72
sg34
g1
(g47
g3
Ntp3526
Rp3527
(dp3528
g51
I0
sg40
I3639
sg52
g3524
sg53
I0
sg34
S'PingPingPingPingPingPingPingPingPingPingPingPing'
p3529
sbsg55
Nsg56
I0
sg57
I5
sg58
I4
sg59
I16851
sg52
g3521
sg60
I00
sbsg55
Nsg52
Nsg53
I2048
sg60
I00
sbsbag1
(g2
g3
Ntp3530
Rp3531
(dp3532
g7
g390
sg27
g1
(g28
g3
Ntp3533
Rp3534
(dp3535
g32
g393
sg33
g418
sg34
g1
(g35
g3
Ntp3536
Rp3537
(dp3538
g39
I0
sg40
I16600
sg41
g423
sg42
I1
sg43
g398
sg44
I0
sg45
I64
sg46
I72
sg34
g1
(g47
g3
Ntp3539
Rp3540
(dp3541
g51
I0
sg40
I1591
sg52
g3537
sg53
I8
sg34
S'PingPingPingPingPingPingPingPingPingPingPingPing'
p3542
sbsg55
Nsg56
I0
sg57
I5
sg58
I4
sg59
I16852
sg52
g3534
sg60
I00
sbsg55
Nsg52
Nsg53
I2048
sg60
I00
sbsbag1
(g2
g3
Ntp3543
Rp3544
(dp3545
g7
g415
sg27
g1
(g28
g3
Ntp3546
Rp3547
(dp3548
g32
g418
sg33
g393
sg34
g1
(g35
g3
Ntp3549
Rp3550
(dp3551
g39
I0
sg40
I16599
sg41
g398
sg42
I1
sg43
g423
sg44
I0
sg45
I64
sg46
I72
sg34
g1
(g47
g3
Ntp3552
Rp3553
(dp3554
g51
I0
sg40
I3639
sg52
g3550
sg53
I0
sg34
S'PingPingPingPingPingPingPingPingPingPingPingPing'
p3555
sbsg55
Nsg56
I0
sg57
I5
sg58
I4
sg59
I16853
sg52
g3547
sg60
I00
sbsg55
Nsg52
Nsg53
I2048
sg60
I00
sbsbag1
(g2
g3
Ntp3556
Rp3557
(dp3558
g7
g10
sg27
g1
(g28
g3
Ntp3559
Rp3560
(dp3561
g32
g15
sg33
g68
sg34
g1
(g35
g3
Ntp3562
Rp3563
(dp3564
g39
I0
sg40
I17116
sg41
g73
sg42
I1
sg43
g23
sg44
I0
sg45
I64
sg46
I72
sg34
g1
(g47
g3
Ntp3565
Rp3566
(dp3567
g51
I0
sg40
I1591
sg52
g3563
sg53
I8
sg34
S'PingPingPingPingPingPingPingPingPingPingPingPing'
p3568
sbsg55
Nsg56
I0
sg57
I5
sg58
I4
sg59
I16854
sg52
g3560
sg60
I00
sbsg55
Nsg52
Nsg53
I2048
sg60
I00
sbsbag1
(g2
g3
Ntp3569
Rp3570
(dp3571
g7
g65
sg27
g1
(g28
g3
Ntp3572
Rp3573
(dp3574
g32
g68
sg33
g15
sg34
g1
(g35
g3
Ntp3575
Rp3576
(dp3577
g39
I0
sg40
I17115
sg41
g23
sg42
I1
sg43
g73
sg44
I0
sg45
I64
sg46
I72
sg34
g1
(g47
g3
Ntp3578
Rp3579
(dp3580
g51
I0
sg40
I1591
sg52
g3576
sg53
I8
sg34
S'PingPingPingPingPingPingPingPingPingPingPingPing'
p3581
sbsg55
Nsg56
I0
sg57
I5
sg58
I4
sg59
I16855
sg52
g3573
sg60
I00
sbsg55
Nsg52
Nsg53
I2048
sg60
I00
sbsbag1
(g2
g3
Ntp3582
Rp3583
(dp3584
g7
g90
sg27
g1
(g28
g3
Ntp3585
Rp3586
(dp3587
g32
g93
sg33
g15
sg34
g1
(g35
g3
Ntp3588
Rp3589
(dp3590
g39
I0
sg40
I16859
sg41
g23
sg42
I1
sg43
g98
sg44
I0
sg45
I64
sg46
I72
sg34
g1
(g47
g3
Ntp3591
Rp3592
(dp3593
g51
I0
sg40
I1591
sg52
g3589
sg53
I8
sg34
S'PingPingPingPingPingPingPingPingPingPingPingPing'
p3594
sbsg55
Nsg56
I0
sg57
I5
sg58
I4
sg59
I16856
sg52
g3586
sg60
I00
sbsg55
Nsg52
Nsg53
I2048
sg60
I00
sbsbag1
(g2
g3
Ntp3595
Rp3596
(dp3597
g7
g115
sg27
g1
(g28
g3
Ntp3598
Rp3599
(dp3600
g32
g118
sg33
g15
sg34
g1
(g35
g3
Ntp3601
Rp3602
(dp3603
g39
I0
sg40
I16857
sg41
g23
sg42
I1
sg43
g123
sg44
I0
sg45
I64
sg46
I72
sg34
g1
(g47
g3
Ntp3604
Rp3605
(dp3606
g51
I0
sg40
I3639
sg52
g3602
sg53
I0
sg34
S'PingPingPingPingPingPingPingPingPingPingPingPing'
p3607
sbsg55
Nsg56
I0
sg57
I5
sg58
I4
sg59
I16857
sg52
g3599
sg60
I00
sbsg55
Nsg52
Nsg53
I2048
sg60
I00
sbsbag1
(g2
g3
Ntp3608
Rp3609
(dp3610
g7
g140
sg27
g1
(g28
g3
Ntp3611
Rp3612
(dp3613
g32
g143
sg33
g15
sg34
g1
(g35
g3
Ntp3614
Rp3615
(dp3616
g39
I0
sg40
I17112
sg41
g23
sg42
I1
sg43
g148
sg44
I0
sg45
I64
sg46
I72
sg34
g1
(g47
g3
Ntp3617
Rp3618
(dp3619
g51
I0
sg40
I3639
sg52
g3615
sg53
I0
sg34
S'PingPingPingPingPingPingPingPingPingPingPingPing'
p3620
sbsg55
Nsg56
I0
sg57
I5
sg58
I4
sg59
I16858
sg52
g3612
sg60
I00
sbsg55
Nsg52
Nsg53
I2048
sg60
I00
sbsbag1
(g2
g3
Ntp3621
Rp3622
(dp3623
g7
g165
sg27
g1
(g28
g3
Ntp3624
Rp3625
(dp3626
g32
g168
sg33
g15
sg34
g1
(g35
g3
Ntp3627
Rp3628
(dp3629
g39
I0
sg40
I17110
sg41
g23
sg42
I1
sg43
g173
sg44
I0
sg45
I64
sg46
I72
sg34
g1
(g47
g3
Ntp3630
Rp3631
(dp3632
g51
I0
sg40
I1591
sg52
g3628
sg53
I8
sg34
S'PingPingPingPingPingPingPingPingPingPingPingPing'
p3633
sbsg55
Nsg56
I0
sg57
I5
sg58
I4
sg59
I16859
sg52
g3625
sg60
I00
sbsg55
Nsg52
Nsg53
I2048
sg60
I00
sbsbag1
(g2
g3
Ntp3634
Rp3635
(dp3636
g7
g190
sg27
g1
(g28
g3
Ntp3637
Rp3638
(dp3639
g32
g193
sg33
g15
sg34
g1
(g35
g3
Ntp3640
Rp3641
(dp3642
g39
I0
sg40
I16854
sg41
g23
sg42
I1
sg43
g198
sg44
I0
sg45
I64
sg46
I72
sg34
g1
(g47
g3
Ntp3643
Rp3644
(dp3645
g51
I0
sg40
I1591
sg52
g3641
sg53
I8
sg34
S'PingPingPingPingPingPingPingPingPingPingPingPing'
p3646
sbsg55
Nsg56
I0
sg57
I5
sg58
I4
sg59
I16860
sg52
g3638
sg60
I00
sbsg55
Nsg52
Nsg53
I2048
sg60
I00
sbsbag1
(g2
g3
Ntp3647
Rp3648
(dp3649
g7
g215
sg27
g1
(g28
g3
Ntp3650
Rp3651
(dp3652
g32
g218
sg33
g15
sg34
g1
(g35
g3
Ntp3653
Rp3654
(dp3655
g39
I0
sg40
I16852
sg41
g23
sg42
I1
sg43
g223
sg44
I0
sg45
I64
sg46
I72
sg34
g1
(g47
g3
Ntp3656
Rp3657
(dp3658
g51
I0
sg40
I1591
sg52
g3654
sg53
I8
sg34
S'PingPingPingPingPingPingPingPingPingPingPingPing'
p3659
sbsg55
Nsg56
I0
sg57
I5
sg58
I4
sg59
I16861
sg52
g3651
sg60
I00
sbsg55
Nsg52
Nsg53
I2048
sg60
I00
sbsbag1
(g2
g3
Ntp3660
Rp3661
(dp3662
g7
g240
sg27
g1
(g28
g3
Ntp3663
Rp3664
(dp3665
g32
g243
sg33
g15
sg34
g1
(g35
g3
Ntp3666
Rp3667
(dp3668
g39
I0
sg40
I17107
sg41
g23
sg42
I1
sg43
g248
sg44
I0
sg45
I64
sg46
I72
sg34
g1
(g47
g3
Ntp3669
Rp3670
(dp3671
g51
I0
sg40
I1591
sg52
g3667
sg53
I8
sg34
S'PingPingPingPingPingPingPingPingPingPingPingPing'
p3672
sbsg55
Nsg56
I0
sg57
I5
sg58
I4
sg59
I16862
sg52
g3664
sg60
I00
sbsg55
Nsg52
Nsg53
I2048
sg60
I00
sbsbag1
(g2
g3
Ntp3673
Rp3674
(dp3675
g7
g265
sg27
g1
(g28
g3
Ntp3676
Rp3677
(dp3678
g32
g268
sg33
g15
sg34
g1
(g35
g3
Ntp3679
Rp3680
(dp3681
g39
I0
sg40
I17105
sg41
g23
sg42
I1
sg43
g273
sg44
I0
sg45
I64
sg46
I72
sg34
g1
(g47
g3
Ntp3682
Rp3683
(dp3684
g51
I0
sg40
I3639
sg52
g3680
sg53
I0
sg34
S'PingPingPingPingPingPingPingPingPingPingPingPing'
p3685
sbsg55
Nsg56
I0
sg57
I5
sg58
I4
sg59
I16863
sg52
g3677
sg60
I00
sbsg55
Nsg52
Nsg53
I2048
sg60
I00
sbsbag1
(g2
g3
Ntp3686
Rp3687
(dp3688
g7
g290
sg27
g1
(g28
g3
Ntp3689
Rp3690
(dp3691
g32
g293
sg33
g15
sg34
g1
(g35
g3
Ntp3692
Rp3693
(dp3694
g39
I0
sg40
I16849
sg41
g23
sg42
I1
sg43
g298
sg44
I0
sg45
I64
sg46
I72
sg34
g1
(g47
g3
Ntp3695
Rp3696
(dp3697
g51
I0
sg40
I3639
sg52
g3693
sg53
I0
sg34
S'PingPingPingPingPingPingPingPingPingPingPingPing'
p3698
sbsg55
Nsg56
I0
sg57
I5
sg58
I4
sg59
I16864
sg52
g3690
sg60
I00
sbsg55
Nsg52
Nsg53
I2048
sg60
I00
sbsbag1
(g2
g3
Ntp3699
Rp3700
(dp3701
g7
g315
sg27
g1
(g28
g3
Ntp3702
Rp3703
(dp3704
g32
g318
sg33
g15
sg34
g1
(g35
g3
Ntp3705
Rp3706
(dp3707
g39
I0
sg40
I16847
sg41
g23
sg42
I1
sg43
g323
sg44
I0
sg45
I64
sg46
I72
sg34
g1
(g47
g3
Ntp3708
Rp3709
(dp3710
g51
I0
sg40
I3639
sg52
g3706
sg53
I0
sg34
S'PingPingPingPingPingPingPingPingPingPingPingPing'
p3711
sbsg55
Nsg56
I0
sg57
I5
sg58
I4
sg59
I16865
sg52
g3703
sg60
I00
sbsg55
Nsg52
Nsg53
I2048
sg60
I00
sbsbag1
(g2
g3
Ntp3712
Rp3713
(dp3714
g7
g340
sg27
g1
(g28
g3
Ntp3715
Rp3716
(dp3717
g32
g343
sg33
g15
sg34
g1
(g35
g3
Ntp3718
Rp3719
(dp3720
g39
I0
sg40
I17102
sg41
g23
sg42
I1
sg43
g348
sg44
I0
sg45
I64
sg46
I72
sg34
g1
(g47
g3
Ntp3721
Rp3722
(dp3723
g51
I0
sg40
I3639
sg52
g3719
sg53
I0
sg34
S'PingPingPingPingPingPingPingPingPingPingPingPing'
p3724
sbsg55
Nsg56
I0
sg57
I5
sg58
I4
sg59
I16866
sg52
g3716
sg60
I00
sbsg55
Nsg52
Nsg53
I2048
sg60
I00
sbsbag1
(g2
g3
Ntp3725
Rp3726
(dp3727
g7
g365
sg27
g1
(g28
g3
Ntp3728
Rp3729
(dp3730
g32
g368
sg33
g15
sg34
g1
(g35
g3
Ntp3731
Rp3732
(dp3733
g39
I0
sg40
I17100
sg41
g23
sg42
I1
sg43
g373
sg44
I0
sg45
I64
sg46
I72
sg34
g1
(g47
g3
Ntp3734
Rp3735
(dp3736
g51
I0
sg40
I1591
sg52
g3732
sg53
I8
sg34
S'PingPingPingPingPingPingPingPingPingPingPingPing'
p3737
sbsg55
Nsg56
I0
sg57
I5
sg58
I4
sg59
I16867
sg52
g3729
sg60
I00
sbsg55
Nsg52
Nsg53
I2048
sg60
I00
sbsbag1
(g2
g3
Ntp3738
Rp3739
(dp3740
g7
g390
sg27
g1
(g28
g3
Ntp3741
Rp3742
(dp3743
g32
g393
sg33
g15
sg34
g1
(g35
g3
Ntp3744
Rp3745
(dp3746
g39
I0
sg40
I16844
sg41
g23
sg42
I1
sg43
g398
sg44
I0
sg45
I64
sg46
I72
sg34
g1
(g47
g3
Ntp3747
Rp3748
(dp3749
g51
I0
sg40
I3639
sg52
g3745
sg53
I0
sg34
S'PingPingPingPingPingPingPingPingPingPingPingPing'
p3750
sbsg55
Nsg56
I0
sg57
I5
sg58
I4
sg59
I16868
sg52
g3742
sg60
I00
sbsg55
Nsg52
Nsg53
I2048
sg60
I00
sbsbag1
(g2
g3
Ntp3751
Rp3752
(dp3753
g7
g415
sg27
g1
(g28
g3
Ntp3754
Rp3755
(dp3756
g32
g418
sg33
g15
sg34
g1
(g35
g3
Ntp3757
Rp3758
(dp3759
g39
I0
sg40
I16842
sg41
g23
sg42
I1
sg43
g423
sg44
I0
sg45
I64
sg46
I72
sg34
g1
(g47
g3
Ntp3760
Rp3761
(dp3762
g51
I0
sg40
I1591
sg52
g3758
sg53
I8
sg34
S'PingPingPingPingPingPingPingPingPingPingPingPing'
p3763
sbsg55
Nsg56
I0
sg57
I5
sg58
I4
sg59
I16869
sg52
g3755
sg60
I00
sbsg55
Nsg52
Nsg53
I2048
sg60
I00
sbsbag1
(g2
g3
Ntp3764
Rp3765
(dp3766
g7
g10
sg27
g1
(g28
g3
Ntp3767
Rp3768
(dp3769
g32
g15
sg33
g93
sg34
g1
(g35
g3
Ntp3770
Rp3771
(dp3772
g39
I0
sg40
I16845
sg41
g98
sg42
I1
sg43
g23
sg44
I0
sg45
I64
sg46
I72
sg34
g1
(g47
g3
Ntp3773
Rp3774
(dp3775
g51
I0
sg40
I3639
sg52
g3771
sg53
I0
sg34
S'PingPingPingPingPingPingPingPingPingPingPingPing'
p3776
sbsg55
Nsg56
I0
sg57
I5
sg58
I4
sg59
I16870
sg52
g3768
sg60
I00
sbsg55
Nsg52
Nsg53
I2048
sg60
I00
sbsbag1
(g2
g3
Ntp3777
Rp3778
(dp3779
g7
g65
sg27
g1
(g28
g3
Ntp3780
Rp3781
(dp3782
g32
g68
sg33
g93
sg34
g1
(g35
g3
Ntp3783
Rp3784
(dp3785
g39
I0
sg40
I16843
sg41
g98
sg42
I1
sg43
g73
sg44
I0
sg45
I64
sg46
I72
sg34
g1
(g47
g3
Ntp3786
Rp3787
(dp3788
g51
I0
sg40
I1591
sg52
g3784
sg53
I8
sg34
S'PingPingPingPingPingPingPingPingPingPingPingPing'
p3789
sbsg55
Nsg56
I0
sg57
I5
sg58
I4
sg59
I16871
sg52
g3781
sg60
I00
sbsg55
Nsg52
Nsg53
I2048
sg60
I00
sbsbag1
(g2
g3
Ntp3790
Rp3791
(dp3792
g7
g90
sg27
g1
(g28
g3
Ntp3793
Rp3794
(dp3795
g32
g93
sg33
g68
sg34
g1
(g35
g3
Ntp3796
Rp3797
(dp3798
g39
I0
sg40
I16842
sg41
g73
sg42
I1
sg43
g98
sg44
I0
sg45
I64
sg46
I72
sg34
g1
(g47
g3
Ntp3799
Rp3800
(dp3801
g51
I0
sg40
I1591
sg52
g3797
sg53
I8
sg34
S'PingPingPingPingPingPingPingPingPingPingPingPing'
p3802
sbsg55
Nsg56
I0
sg57
I5
sg58
I4
sg59
I16872
sg52
g3794
sg60
I00
sbsg55
Nsg52
Nsg53
I2048
sg60
I00
sbsbag1
(g2
g3
Ntp3803
Rp3804
(dp3805
g7
g115
sg27
g1
(g28
g3
Ntp3806
Rp3807
(dp3808
g32
g118
sg33
g68
sg34
g1
(g35
g3
Ntp3809
Rp3810
(dp3811
g39
I0
sg40
I16840
sg41
g73
sg42
I1
sg43
g123
sg44
I0
sg45
I64
sg46
I72
sg34
g1
(g47
g3
Ntp3812
Rp3813
(dp3814
g51
I0
sg40
I1591
sg52
g3810
sg53
I8
sg34
S'PingPingPingPingPingPingPingPingPingPingPingPing'
p3815
sbsg55
Nsg56
I0
sg57
I5
sg58
I4
sg59
I16873
sg52
g3807
sg60
I00
sbsg55
Nsg52
Nsg53
I2048
sg60
I00
sbsbag1
(g2
g3
Ntp3816
Rp3817
(dp3818
g7
g140
sg27
g1
(g28
g3
Ntp3819
Rp3820
(dp3821
g32
g143
sg33
g68
sg34
g1
(g35
g3
Ntp3822
Rp3823
(dp3824
g39
I0
sg40
I17095
sg41
g73
sg42
I1
sg43
g148
sg44
I0
sg45
I64
sg46
I72
sg34
g1
(g47
g3
Ntp3825
Rp3826
(dp3827
g51
I0
sg40
I3639
sg52
g3823
sg53
I0
sg34
S'PingPingPingPingPingPingPingPingPingPingPingPing'
p3828
sbsg55
Nsg56
I0
sg57
I5
sg58
I4
sg59
I16874
sg52
g3820
sg60
I00
sbsg55
Nsg52
Nsg53
I2048
sg60
I00
sbsbag1
(g2
g3
Ntp3829
Rp3830
(dp3831
g7
g165
sg27
g1
(g28
g3
Ntp3832
Rp3833
(dp3834
g32
g168
sg33
g68
sg34
g1
(g35
g3
Ntp3835
Rp3836
(dp3837
g39
I0
sg40
I17093
sg41
g73
sg42
I1
sg43
g173
sg44
I0
sg45
I64
sg46
I72
sg34
g1
(g47
g3
Ntp3838
Rp3839
(dp3840
g51
I0
sg40
I3639
sg52
g3836
sg53
I0
sg34
S'PingPingPingPingPingPingPingPingPingPingPingPing'
p3841
sbsg55
Nsg56
I0
sg57
I5
sg58
I4
sg59
I16875
sg52
g3833
sg60
I00
sbsg55
Nsg52
Nsg53
I2048
sg60
I00
sbsbag1
(g2
g3
Ntp3842
Rp3843
(dp3844
g7
g190
sg27
g1
(g28
g3
Ntp3845
Rp3846
(dp3847
g32
g193
sg33
g68
sg34
g1
(g35
g3
Ntp3848
Rp3849
(dp3850
g39
I0
sg40
I16837
sg41
g73
sg42
I1
sg43
g198
sg44
I0
sg45
I64
sg46
I72
sg34
g1
(g47
g3
Ntp3851
Rp3852
(dp3853
g51
I0
sg40
I1591
sg52
g3849
sg53
I8
sg34
S'PingPingPingPingPingPingPingPingPingPingPingPing'
p3854
sbsg55
Nsg56
I0
sg57
I5
sg58
I4
sg59
I16876
sg52
g3846
sg60
I00
sbsg55
Nsg52
Nsg53
I2048
sg60
I00
sbsbag1
(g2
g3
Ntp3855
Rp3856
(dp3857
g7
g215
sg27
g1
(g28
g3
Ntp3858
Rp3859
(dp3860
g32
g218
sg33
g68
sg34
g1
(g35
g3
Ntp3861
Rp3862
(dp3863
g39
I0
sg40
I16835
sg41
g73
sg42
I1
sg43
g223
sg44
I0
sg45
I64
sg46
I72
sg34
g1
(g47
g3
Ntp3864
Rp3865
(dp3866
g51
I0
sg40
I1591
sg52
g3862
sg53
I8
sg34
S'PingPingPingPingPingPingPingPingPingPingPingPing'
p3867
sbsg55
Nsg56
I0
sg57
I5
sg58
I4
sg59
I16877
sg52
g3859
sg60
I00
sbsg55
Nsg52
Nsg53
I2048
sg60
I00
sbsbag1
(g2
g3
Ntp3868
Rp3869
(dp3870
g7
g240
sg27
g1
(g28
g3
Ntp3871
Rp3872
(dp3873
g32
g243
sg33
g68
sg34
g1
(g35
g3
Ntp3874
Rp3875
(dp3876
g39
I0
sg40
I17090
sg41
g73
sg42
I1
sg43
g248
sg44
I0
sg45
I64
sg46
I72
sg34
g1
(g47
g3
Ntp3877
Rp3878
(dp3879
g51
I0
sg40
I1591
sg52
g3875
sg53
I8
sg34
S'PingPingPingPingPingPingPingPingPingPingPingPing'
p3880
sbsg55
Nsg56
I0
sg57
I5
sg58
I4
sg59
I16878
sg52
g3872
sg60
I00
sbsg55
Nsg52
Nsg53
I2048
sg60
I00
sbsbag1
(g2
g3
Ntp3881
Rp3882
(dp3883
g7
g265
sg27
g1
(g28
g3
Ntp3884
Rp3885
(dp3886
g32
g268
sg33
g68
sg34
g1
(g35
g3
Ntp3887
Rp3888
(dp3889
g39
I0
sg40
I17088
sg41
g73
sg42
I1
sg43
g273
sg44
I0
sg45
I64
sg46
I72
sg34
g1
(g47
g3
Ntp3890
Rp3891
(dp3892
g51
I0
sg40
I3639
sg52
g3888
sg53
I0
sg34
S'PingPingPingPingPingPingPingPingPingPingPingPing'
p3893
sbsg55
Nsg56
I0
sg57
I5
sg58
I4
sg59
I16879
sg52
g3885
sg60
I00
sbsg55
Nsg52
Nsg53
I2048
sg60
I00
sbsbag1
(g2
g3
Ntp3894
Rp3895
(dp3896
g7
g290
sg27
g1
(g28
g3
Ntp3897
Rp3898
(dp3899
g32
g293
sg33
g68
sg34
g1
(g35
g3
Ntp3900
Rp3901
(dp3902
g39
I0
sg40
I16832
sg41
g73
sg42
I1
sg43
g298
sg44
I0
sg45
I64
sg46
I72
sg34
g1
(g47
g3
Ntp3903
Rp3904
(dp3905
g51
I0
sg40
I1591
sg52
g3901
sg53
I8
sg34
S'PingPingPingPingPingPingPingPingPingPingPingPing'
p3906
sbsg55
Nsg56
I0
sg57
I5
sg58
I4
sg59
I16880
sg52
g3898
sg60
I00
sbsg55
Nsg52
Nsg53
I2048
sg60
I00
sbsbag1
(g2
g3
Ntp3907
Rp3908
(dp3909
g7
g315
sg27
g1
(g28
g3
Ntp3910
Rp3911
(dp3912
g32
g318
sg33
g68
sg34
g1
(g35
g3
Ntp3913
Rp3914
(dp3915
g39
I0
sg40
I16830
sg41
g73
sg42
I1
sg43
g323
sg44
I0
sg45
I64
sg46
I72
sg34
g1
(g47
g3
Ntp3916
Rp3917
(dp3918
g51
I0
sg40
I3639
sg52
g3914
sg53
I0
sg34
S'PingPingPingPingPingPingPingPingPingPingPingPing'
p3919
sbsg55
Nsg56
I0
sg57
I5
sg58
I4
sg59
I16881
sg52
g3911
sg60
I00
sbsg55
Nsg52
Nsg53
I2048
sg60
I00
sbsbag1
(g2
g3
Ntp3920
Rp3921
(dp3922
g7
g340
sg27
g1
(g28
g3
Ntp3923
Rp3924
(dp3925
g32
g343
sg33
g68
sg34
g1
(g35
g3
Ntp3926
Rp3927
(dp3928
g39
I0
sg40
I17085
sg41
g73
sg42
I1
sg43
g348
sg44
I0
sg45
I64
sg46
I72
sg34
g1
(g47
g3
Ntp3929
Rp3930
(dp3931
g51
I0
sg40
I1591
sg52
g3927
sg53
I8
sg34
S'PingPingPingPingPingPingPingPingPingPingPingPing'
p3932
sbsg55
Nsg56
I0
sg57
I5
sg58
I4
sg59
I16882
sg52
g3924
sg60
I00
sbsg55
Nsg52
Nsg53
I2048
sg60
I00
sbsbag1
(g2
g3
Ntp3933
Rp3934
(dp3935
g7
g365
sg27
g1
(g28
g3
Ntp3936
Rp3937
(dp3938
g32
g368
sg33
g68
sg34
g1
(g35
g3
Ntp3939
Rp3940
(dp3941
g39
I0
sg40
I17083
sg41
g73
sg42
I1
sg43
g373
sg44
I0
sg45
I64
sg46
I72
sg34
g1
(g47
g3
Ntp3942
Rp3943
(dp3944
g51
I0
sg40
I3639
sg52
g3940
sg53
I0
sg34
S'PingPingPingPingPingPingPingPingPingPingPingPing'
p3945
sbsg55
Nsg56
I0
sg57
I5
sg58
I4
sg59
I16883
sg52
g3937
sg60
I00
sbsg55
Nsg52
Nsg53
I2048
sg60
I00
sbsbag1
(g2
g3
Ntp3946
Rp3947
(dp3948
g7
g390
sg27
g1
(g28
g3
Ntp3949
Rp3950
(dp3951
g32
g393
sg33
g68
sg34
g1
(g35
g3
Ntp3952
Rp3953
(dp3954
g39
I0
sg40
I16827
sg41
g73
sg42
I1
sg43
g398
sg44
I0
sg45
I64
sg46
I72
sg34
g1
(g47
g3
Ntp3955
Rp3956
(dp3957
g51
I0
sg40
I1591
sg52
g3953
sg53
I8
sg34
S'PingPingPingPingPingPingPingPingPingPingPingPing'
p3958
sbsg55
Nsg56
I0
sg57
I5
sg58
I4
sg59
I16884
sg52
g3950
sg60
I00
sbsg55
Nsg52
Nsg53
I2048
sg60
I00
sbsbag1
(g2
g3
Ntp3959
Rp3960
(dp3961
g7
g415
sg27
g1
(g28
g3
Ntp3962
Rp3963
(dp3964
g32
g418
sg33
g68
sg34
g1
(g35
g3
Ntp3965
Rp3966
(dp3967
g39
I0
sg40
I16825
sg41
g73
sg42
I1
sg43
g423
sg44
I0
sg45
I64
sg46
I72
sg34
g1
(g47
g3
Ntp3968
Rp3969
(dp3970
g51
I0
sg40
I1591
sg52
g3966
sg53
I8
sg34
S'PingPingPingPingPingPingPingPingPingPingPingPing'
p3971
sbsg55
Nsg56
I0
sg57
I5
sg58
I4
sg59
I16885
sg52
g3963
sg60
I00
sbsg55
Nsg52
Nsg53
I2048
sg60
I00
sbsbag1
(g2
g3
Ntp3972
Rp3973
(dp3974
g7
g140
sg27
g1
(g28
g3
Ntp3975
Rp3976
(dp3977
g32
g143
sg33
g143
sg34
g1
(g35
g3
Ntp3978
Rp3979
(dp3980
g39
I0
sg40
I17083
sg41
g148
sg42
I1
sg43
g148
sg44
I0
sg45
I64
sg46
I72
sg34
g1
(g47
g3
Ntp3981
Rp3982
(dp3983
g51
I0
sg40
I1591
sg52
g3979
sg53
I8
sg34
S'PingPingPingPingPingPingPingPingPingPingPingPing'
p3984
sbsg55
Nsg56
I0
sg57
I5
sg58
I4
sg59
I16886
sg52
g3976
sg60
I00
sbsg55
Nsg52
Nsg53
I2048
sg60
I00
sbsba.