(lp0
ccopy_reg
_reconstructor
p1
(csts.dataplane_traces.trace
DataplaneEvent
p2
c__builtin__
object
p3
Ntp4
Rp5
(dp6
S'interface'
p7
g1
(csts.entities
HostInterface
p8
g3
Ntp9
Rp10
(dp11
S'hw_addr'
p12
g1
(cpox.lib.addresses
EthAddr
p13
g3
Ntp14
Rp15
(dp16
S'value'
p17
S'\x00\x00\x00\x00\x00\x01'
p18
sbsS'ips'
p19
(lp20
g1
(cpox.lib.addresses
IPAddr
p21
g3
Ntp22
Rp23
(dp24
g17
I16777339
sbasS'name'
p25
S'eth1'
p26
sbsS'packet'
p27
g1
(cpox.lib.packet.ethernet
ethernet
p28
g3
Ntp29
Rp30
(dp31
S'src'
p32
g15
sS'dst'
p33
g15
sS'next'
p34
g1
(cpox.lib.packet.ipv4
ipv4
p35
g3
Ntp36
Rp37
(dp38
S'frag'
p39
I0
sS'csum'
p40
I52430
sS'dstip'
p41
g23
sS'protocol'
p42
I1
sS'srcip'
p43
g23
sS'tos'
p44
I0
sS'ttl'
p45
I64
sS'iplen'
p46
I72
sg34
g1
(cpox.lib.packet.icmp
icmp
p47
g3
Ntp48
Rp49
(dp50
S'code'
p51
I0
sg40
I3639
sS'prev'
p52
g37
sS'type'
p53
I0
sg34
S'PingPingPingPingPingPingPingPingPingPingPingPing'
p54
sbsS'raw'
p55
NsS'flags'
p56
I0
sS'hl'
p57
I5
sS'v'
p58
I4
sS'id'
p59
I47076
sg52
g30
sS'parsed'
p60
I00
sbsg55
Nsg52
Nsg53
I2048
sg60
I00
sbsbag1
(g2
g3
Ntp61
Rp62
(dp63
g7
g1
(g8
g3
Ntp64
Rp65
(dp66
g12
g1
(g13
g3
Ntp67
Rp68
(dp69
g17
S'\x00\x00\x00\x00\x00\x02'
p70
sbsg19
(lp71
g1
(g21
g3
Ntp72
Rp73
(dp74
g17
I33554555
sbasg25
S'eth1'
p75
sbsg27
g1
(g28
g3
Ntp76
Rp77
(dp78
g32
g68
sg33
g68
sg34
g1
(g35
g3
Ntp79
Rp80
(dp81
g39
I0
sg40
I52427
sg41
g73
sg42
I1
sg43
g73
sg44
I0
sg45
I64
sg46
I72
sg34
g1
(g47
g3
Ntp82
Rp83
(dp84
g51
I0
sg40
I1591
sg52
g80
sg53
I8
sg34
S'PingPingPingPingPingPingPingPingPingPingPingPing'
p85
sbsg55
Nsg56
I0
sg57
I5
sg58
I4
sg59
I47077
sg52
g77
sg60
I00
sbsg55
Nsg52
Nsg53
I2048
sg60
I00
sbsbag1
(g2
g3
Ntp86
Rp87
(dp88
g7
g1
(g8
g3
Ntp89
Rp90
(dp91
g12
g1
(g13
g3
Ntp92
Rp93
(dp94
g17
S'\x00\x00\x00\x00\x01\x01'
p95
sbsg19
(lp96
g1
(g21
g3
Ntp97
Rp98
(dp99
g17
I16842875
sbasg25
S'eth2'
p100
sbsg27
g1
(g28
g3
Ntp101
Rp102
(dp103
g32
g93
sg33
g93
sg34
g1
(g35
g3
Ntp104
Rp105
(dp106
g39
I0
sg40
I51916
sg41
g98
sg42
I1
sg43
g98
sg44
I0
sg45
I64
sg46
I72
sg34
g1
(g47
g3
Ntp107
Rp108
(dp109
g51
I0
sg40
I1591
sg52
g105
sg53
I8
sg34
S'PingPingPingPingPingPingPingPingPingPingPingPing'
p110
sbsg55
Nsg56
I0
sg57
I5
sg58
I4
sg59
I47078
sg52
g102
sg60
I00
sbsg55
Nsg52
Nsg53
I2048
sg60
I00
sbsbag1
(g2
g3
Ntp111
Rp112
(dp113
g7
g1
(g8
g3
Ntp114
Rp115
(dp116
g12
g1
(g13
g3
Ntp117
Rp118
(dp119
g17
S'\x00\x00\x00\x00\x01\x02'
p120
sbsg19
(lp121
g1
(g21
g3
Ntp122
Rp123
(dp124
g17
I33620091
sbasg25
S'eth2'
p125
sbsg27
g1
(g28
g3
Ntp126
Rp127
(dp128
g32
g118
sg33
g118
sg34
g1
(g35
g3
Ntp129
Rp130
(dp131
g39
I0
sg40
I51913
sg41
g123
sg42
I1
sg43
g123
sg44
I0
sg45
I64
sg46
I72
sg34
g1
(g47
g3
Ntp132
Rp133
(dp134
g51
I0
sg40
I1591
sg52
g130
sg53
I8
sg34
S'PingPingPingPingPingPingPingPingPingPingPingPing'
p135
sbsg55
Nsg56
I0
sg57
I5
sg58
I4
sg59
I47079
sg52
g127
sg60
I00
sbsg55
Nsg52
Nsg53
I2048
sg60
I00
sbsbag1
(g2
g3
Ntp136
Rp137
(dp138
g7
g1
(g8
g3
Ntp139
Rp140
(dp141
g12
g1
(g13
g3
Ntp142
Rp143
(dp144
g17
S'\x00\x00\x00\x01\x00\x01'
p145
sbsg19
(lp146
g1
(g21
g3
Ntp147
Rp148
(dp149
g17
I16777595
sbasg25
S'eth3'
p150
sbsg27
g1
(g28
g3
Ntp151
Rp152
(dp153
g32
g143
sg33
g143
sg34
g1
(g35
g3
Ntp154
Rp155
(dp156
g39
I0
sg40
I52424
sg41
g148
sg42
I1
sg43
g148
sg44
I0
sg45
I64
sg46
I72
sg34
g1
(g47
g3
Ntp157
Rp158
(dp159
g51
I0
sg40
I3639
sg52
g155
sg53
I0
sg34
S'PingPingPingPingPingPingPingPingPingPingPingPing'
p160
sbsg55
Nsg56
I0
sg57
I5
sg58
I4
sg59
I47080
sg52
g152
sg60
I00
sbsg55
Nsg52
Nsg53
I2048
sg60
I00
sbsbag1
(g2
g3
Ntp161
Rp162
(dp163
g7
g1
(g8
g3
Ntp164
Rp165
(dp166
g12
g1
(g13
g3
Ntp167
Rp168
(dp169
g17
S'\x00\x00\x00\x01\x00\x02'
p170
sbsg19
(lp171
g1
(g21
g3
Ntp172
Rp173
(dp174
g17
I33554811
sbasg25
S'eth3'
p175
sbsg27
g1
(g28
g3
Ntp176
Rp177
(dp178
g32
g168
sg33
g168
sg34
g1
(g35
g3
Ntp179
Rp180
(dp181
g39
I0
sg40
I52421
sg41
g173
sg42
I1
sg43
g173
sg44
I0
sg45
I64
sg46
I72
sg34
g1
(g47
g3
Ntp182
Rp183
(dp184
g51
I0
sg40
I3639
sg52
g180
sg53
I0
sg34
S'PingPingPingPingPingPingPingPingPingPingPingPing'
p185
sbsg55
Nsg56
I0
sg57
I5
sg58
I4
sg59
I47081
sg52
g177
sg60
I00
sbsg55
Nsg52
Nsg53
I2048
sg60
I00
sbsbag1
(g2
g3
Ntp186
Rp187
(dp188
g7
g1
(g8
g3
Ntp189
Rp190
(dp191
g12
g1
(g13
g3
Ntp192
Rp193
(dp194
g17
S'\x00\x00\x00\x01\x01\x01'
p195
sbsg19
(lp196
g1
(g21
g3
Ntp197
Rp198
(dp199
g17
I16843131
sbasg25
S'eth4'
p200
sbsg27
g1
(g28
g3
Ntp201
Rp202
(dp203
g32
g193
sg33
g193
sg34
g1
(g35
g3
Ntp204
Rp205
(dp206
g39
I0
sg40
I51910
sg41
g198
sg42
I1
sg43
g198
sg44
I0
sg45
I64
sg46
I72
sg34
g1
(g47
g3
Ntp207
Rp208
(dp209
g51
I0
sg40
I1591
sg52
g205
sg53
I8
sg34
S'PingPingPingPingPingPingPingPingPingPingPingPing'
p210
sbsg55
Nsg56
I0
sg57
I5
sg58
I4
sg59
I47082
sg52
g202
sg60
I00
sbsg55
Nsg52
Nsg53
I2048
sg60
I00
sbsbag1
(g2
g3
Ntp211
Rp212
(dp213
g7
g1
(g8
g3
Ntp214
Rp215
(dp216
g12
g1
(g13
g3
Ntp217
Rp218
(dp219
g17
S'\x00\x00\x00\x01\x01\x02'
p220
sbsg19
(lp221
g1
(g21
g3
Ntp222
Rp223
(dp224
g17
I33620347
sbasg25
S'eth4'
p225
sbsg27
g1
(g28
g3
Ntp226
Rp227
(dp228
g32
g218
sg33
g218
sg34
g1
(g35
g3
Ntp229
Rp230
(dp231
g39
I0
sg40
I51907
sg41
g223
sg42
I1
sg43
g223
sg44
I0
sg45
I64
sg46
I72
sg34
g1
(g47
g3
Ntp232
Rp233
(dp234
g51
I0
sg40
I3639
sg52
g230
sg53
I0
sg34
S'PingPingPingPingPingPingPingPingPingPingPingPing'
p235
sbsg55
Nsg56
I0
sg57
I5
sg58
I4
sg59
I47083
sg52
g227
sg60
I00
sbsg55
Nsg52
Nsg53
I2048
sg60
I00
sbsbag1
(g2
g3
Ntp236
Rp237
(dp238
g7
g1
(g8
g3
Ntp239
Rp240
(dp241
g12
g1
(g13
g3
Ntp242
Rp243
(dp244
g17
S'\x00\x00\x00\x02\x00\x01'
p245
sbsg19
(lp246
g1
(g21
g3
Ntp247
Rp248
(dp249
g17
I16777851
sbasg25
S'eth5'
p250
sbsg27
g1
(g28
g3
Ntp251
Rp252
(dp253
g32
g243
sg33
g243
sg34
g1
(g35
g3
Ntp254
Rp255
(dp256
g39
I0
sg40
I52418
sg41
g248
sg42
I1
sg43
g248
sg44
I0
sg45
I64
sg46
I72
sg34
g1
(g47
g3
Ntp257
Rp258
(dp259
g51
I0
sg40
I1591
sg52
g255
sg53
I8
sg34
S'PingPingPingPingPingPingPingPingPingPingPingPing'
p260
sbsg55
Nsg56
I0
sg57
I5
sg58
I4
sg59
I47084
sg52
g252
sg60
I00
sbsg55
Nsg52
Nsg53
I2048
sg60
I00
sbsbag1
(g2
g3
Ntp261
Rp262
(dp263
g7
g1
(g8
g3
Ntp264
Rp265
(dp266
g12
g1
(g13
g3
Ntp267
Rp268
(dp269
g17
S'\x00\x00\x00\x02\x00\x02'
p270
sbsg19
(lp271
g1
(g21
g3
Ntp272
Rp273
(dp274
g17
I33555067
sbasg25
S'eth5'
p275
sbsg27
g1
(g28
g3
Ntp276
Rp277
(dp278
g32
g268
sg33
g268
sg34
g1
(g35
g3
Ntp279
Rp280
(dp281
g39
I0
sg40
I52415
sg41
g273
sg42
I1
sg43
g273
sg44
I0
sg45
I64
sg46
I72
sg34
g1
(g47
g3
Ntp282
Rp283
(dp284
g51
I0
sg40
I3639
sg52
g280
sg53
I0
sg34
S'PingPingPingPingPingPingPingPingPingPingPingPing'
p285
sbsg55
Nsg56
I0
sg57
I5
sg58
I4
sg59
I47085
sg52
g277
sg60
I00
sbsg55
Nsg52
Nsg53
I2048
sg60
I00
sbsbag1
(g2
g3
Ntp286
Rp287
(dp288
g7
g1
(g8
g3
Ntp289
Rp290
(dp291
g12
g1
(g13
g3
Ntp292
Rp293
(dp294
g17
S'\x00\x00\x00\x02\x01\x01'
p295
sbsg19
(lp296
g1
(g21
g3
Ntp297
Rp298
(dp299
g17
I16843387
sbasg25
S'eth6'
p300
sbsg27
g1
(g28
g3
Ntp301
Rp302
(dp303
g32
g293
sg33
g293
sg34
g1
(g35
g3
Ntp304
Rp305
(dp306
g39
I0
sg40
I51904
sg41
g298
sg42
I1
sg43
g298
sg44
I0
sg45
I64
sg46
I72
sg34
g1
(g47
g3
Ntp307
Rp308
(dp309
g51
I0
sg40
I3639
sg52
g305
sg53
I0
sg34
S'PingPingPingPingPingPingPingPingPingPingPingPing'
p310
sbsg55
Nsg56
I0
sg57
I5
sg58
I4
sg59
I47086
sg52
g302
sg60
I00
sbsg55
Nsg52
Nsg53
I2048
sg60
I00
sbsbag1
(g2
g3
Ntp311
Rp312
(dp313
g7
g1
(g8
g3
Ntp314
Rp315
(dp316
g12
g1
(g13
g3
Ntp317
Rp318
(dp319
g17
S'\x00\x00\x00\x02\x01\x02'
p320
sbsg19
(lp321
g1
(g21
g3
Ntp322
Rp323
(dp324
g17
I33620603
sbasg25
S'eth6'
p325
sbsg27
g1
(g28
g3
Ntp326
Rp327
(dp328
g32
g318
sg33
g318
sg34
g1
(g35
g3
Ntp329
Rp330
(dp331
g39
I0
sg40
I51901
sg41
g323
sg42
I1
sg43
g323
sg44
I0
sg45
I64
sg46
I72
sg34
g1
(g47
g3
Ntp332
Rp333
(dp334
g51
I0
sg40
I1591
sg52
g330
sg53
I8
sg34
S'PingPingPingPingPingPingPingPingPingPingPingPing'
p335
sbsg55
Nsg56
I0
sg57
I5
sg58
I4
sg59
I47087
sg52
g327
sg60
I00
sbsg55
Nsg52
Nsg53
I2048
sg60
I00
sbsbag1
(g2
g3
Ntp336
Rp337
(dp338
g7
g1
(g8
g3
Ntp339
Rp340
(dp341
g12
g1
(g13
g3
Ntp342
Rp343
(dp344
g17
S'\x00\x00\x00\x03\x00\x01'
p345
sbsg19
(lp346
g1
(g21
g3
Ntp347
Rp348
(dp349
g17
I16778107
sbasg25
S'eth7'
p350
sbsg27
g1
(g28
g3
Ntp351
Rp352
(dp353
g32
g343
sg33
g343
sg34
g1
(g35
g3
Ntp354
Rp355
(dp356
g39
I0
sg40
I52412
sg41
g348
sg42
I1
sg43
g348
sg44
I0
sg45
I64
sg46
I72
sg34
g1
(g47
g3
Ntp357
Rp358
(dp359
g51
I0
sg40
I1591
sg52
g355
sg53
I8
sg34
S'PingPingPingPingPingPingPingPingPingPingPingPing'
p360
sbsg55
Nsg56
I0
sg57
I5
sg58
I4
sg59
I47088
sg52
g352
sg60
I00
sbsg55
Nsg52
Nsg53
I2048
sg60
I00
sbsbag1
(g2
g3
Ntp361
Rp362
(dp363
g7
g1
(g8
g3
Ntp364
Rp365
(dp366
g12
g1
(g13
g3
Ntp367
Rp368
(dp369
g17
S'\x00\x00\x00\x03\x00\x02'
p370
sbsg19
(lp371
g1
(g21
g3
Ntp372
Rp373
(dp374
g17
I33555323
sbasg25
S'eth7'
p375
sbsg27
g1
(g28
g3
Ntp376
Rp377
(dp378
g32
g368
sg33
g368
sg34
g1
(g35
g3
Ntp379
Rp380
(dp381
g39
I0
sg40
I52409
sg41
g373
sg42
I1
sg43
g373
sg44
I0
sg45
I64
sg46
I72
sg34
g1
(g47
g3
Ntp382
Rp383
(dp384
g51
I0
sg40
I1591
sg52
g380
sg53
I8
sg34
S'PingPingPingPingPingPingPingPingPingPingPingPing'
p385
sbsg55
Nsg56
I0
sg57
I5
sg58
I4
sg59
I47089
sg52
g377
sg60
I00
sbsg55
Nsg52
Nsg53
I2048
sg60
I00
sbsbag1
(g2
g3
Ntp386
Rp387
(dp388
g7
g1
(g8
g3
Ntp389
Rp390
(dp391
g12
g1
(g13
g3
Ntp392
Rp393
(dp394
g17
S'\x00\x00\x00\x03\x01\x01'
p395
sbsg19
(lp396
g1
(g21
g3
Ntp397
Rp398
(dp399
g17
I16843643
sbasg25
S'eth8'
p400
sbsg27
g1
(g28
g3
Ntp401
Rp402
(dp403
g32
g393
sg33
g393
sg34
g1
(g35
g3
Ntp404
Rp405
(dp406
g39
I0
sg40
I51898
sg41
g398
sg42
I1
sg43
g398
sg44
I0
sg45
I64
sg46
I72
sg34
g1
(g47
g3
Ntp407
Rp408
(dp409
g51
I0
sg40
I3639
sg52
g405
sg53
I0
sg34
S'PingPingPingPingPingPingPingPingPingPingPingPing'
p410
sbsg55
Nsg56
I0
sg57
I5
sg58
I4
sg59
I47090
sg52
g402
sg60
I00
sbsg55
Nsg52
Nsg53
I2048
sg60
I00
sbsbag1
(g2
g3
Ntp411
Rp412
(dp413
g7
g1
(g8
g3
Ntp414
Rp415
(dp416
g12
g1
(g13
g3
Ntp417
Rp418
(dp419
g17
S'\x00\x00\x00\x03\x01\x02'
p420
sbsg19
(lp421
g1
(g21
g3
Ntp422
Rp423
(dp424
g17
I33620859
sbasg25
S'eth8'
p425
sbsg27
g1
(g28
g3
Ntp426
Rp427
(dp428
g32
g418
sg33
g418
sg34
g1
(g35
g3
Ntp429
Rp430
(dp431
g39
I0
sg40
I51895
sg41
g423
sg42
I1
sg43
g423
sg44
I0
sg45
I64
sg46
I72
sg34
g1
(g47
g3
Ntp432
Rp433
(dp434
g51
I0
sg40
I1591
sg52
g430
sg53
I8
sg34
S'PingPingPingPingPingPingPingPingPingPingPingPing'
p435
sbsg55
Nsg56
I0
sg57
I5
sg58
I4
sg59
I47091
sg52
g427
sg60
I00
sbsg55
Nsg52
Nsg53
I2048
sg60
I00
sbsba.