(lp0
ccopy_reg
_reconstructor
p1
(csts.dataplane_traces.trace
DataplaneEvent
p2
c__builtin__
object
p3
Ntp4
Rp5
(dp6
S'interface'
p7
g1
(csts.entities
HostInterface
p8
g3
Ntp9
Rp10
(dp11
S'hw_addr'
p12
g1
(cpox.lib.addresses
EthAddr
p13
g3
Ntp14
Rp15
(dp16
S'value'
p17
S'\x124Vx\x01\x03'
p18
sbsS'ips'
p19
(lp20
g1
(cpox.lib.addresses
IPAddr
p21
g3
Ntp22
Rp23
(dp24
g17
I50428795
sbasS'name'
p25
S'eth1'
p26
sbsS'packet'
p27
g1
(cpox.lib.packet.ethernet
ethernet
p28
g3
Ntp29
Rp30
(dp31
S'src'
p32
g15
sS'dst'
p33
g1
(g13
g3
Ntp34
Rp35
(dp36
g17
S'\x124Vx\x02\x03'
p37
sbsS'next'
p38
g1
(cpox.lib.packet.ipv4
ipv4
p39
g3
Ntp40
Rp41
(dp42
S'frag'
p43
I0
sS'csum'
p44
I24977
sS'dstip'
p45
g1
(g21
g3
Ntp46
Rp47
(dp48
g17
I50494331
sbsS'protocol'
p49
I1
sS'srcip'
p50
g23
sS'tos'
p51
I0
sS'ttl'
p52
I64
sS'iplen'
p53
I72
sg38
g1
(cpox.lib.packet.icmp
icmp
p54
g3
Ntp55
Rp56
(dp57
S'code'
p58
I0
sg44
I1591
sS'prev'
p59
g41
sS'type'
p60
I8
sg38
S'PingPingPingPingPingPingPingPingPingPingPingPing'
p61
sbsS'raw'
p62
NsS'flags'
p63
I0
sS'hl'
p64
I5
sS'v'
p65
I4
sS'id'
p66
I7976
sg59
g30
sS'parsed'
p67
I00
sbsg62
Nsg59
Nsg60
I2048
sg67
I00
sbsbag1
(g2
g3
Ntp68
Rp69
(dp70
g7
g1
(g8
g3
Ntp71
Rp72
(dp73
g12
g1
(g13
g3
Ntp74
Rp75
(dp76
g17
S'\x124Vx\x03\x03'
p77
sbsg19
(lp78
g1
(g21
g3
Ntp79
Rp80
(dp81
g17
I50559867
sbasg25
S'eth3'
p82
sbsg27
g1
(g28
g3
Ntp83
Rp84
(dp85
g32
g75
sg33
g35
sg38
g1
(g39
g3
Ntp86
Rp87
(dp88
g43
I0
sg44
I24464
sg45
g47
sg49
I1
sg50
g80
sg51
I0
sg52
I64
sg53
I72
sg38
g1
(g54
g3
Ntp89
Rp90
(dp91
g58
I0
sg44
I3639
sg59
g87
sg60
I0
sg38
S'PingPingPingPingPingPingPingPingPingPingPingPing'
p92
sbsg62
Nsg63
I0
sg64
I5
sg65
I4
sg66
I7977
sg59
g84
sg67
I00
sbsg62
Nsg59
Nsg60
I2048
sg67
I00
sbsbag1
(g2
g3
Ntp93
Rp94
(dp95
g7
g10
sg27
g1
(g28
g3
Ntp96
Rp97
(dp98
g32
g15
sg33
g35
sg38
g1
(g39
g3
Ntp99
Rp100
(dp101
g43
I0
sg44
I24975
sg45
g47
sg49
I1
sg50
g23
sg51
I0
sg52
I64
sg53
I72
sg38
g1
(g54
g3
Ntp102
Rp103
(dp104
g58
I0
sg44
I3639
sg59
g100
sg60
I0
sg38
S'PingPingPingPingPingPingPingPingPingPingPingPing'
p105
sbsg62
Nsg63
I0
sg64
I5
sg65
I4
sg66
I7978
sg59
g97
sg67
I00
sbsg62
Nsg59
Nsg60
I2048
sg67
I00
sbsbag1
(g2
g3
Ntp106
Rp107
(dp108
g7
g72
sg27
g1
(g28
g3
Ntp109
Rp110
(dp111
g32
g75
sg33
g35
sg38
g1
(g39
g3
Ntp112
Rp113
(dp114
g43
I0
sg44
I24462
sg45
g47
sg49
I1
sg50
g80
sg51
I0
sg52
I64
sg53
I72
sg38
g1
(g54
g3
Ntp115
Rp116
(dp117
g58
I0
sg44
I1591
sg59
g113
sg60
I8
sg38
S'PingPingPingPingPingPingPingPingPingPingPingPing'
p118
sbsg62
Nsg63
I0
sg64
I5
sg65
I4
sg66
I7979
sg59
g110
sg67
I00
sbsg62
Nsg59
Nsg60
I2048
sg67
I00
sbsbag1
(g2
g3
Ntp119
Rp120
(dp121
g7
g1
(g8
g3
Ntp122
Rp123
(dp124
g12
g35
sg19
(lp125
g47
asg25
S'eth2'
p126
sbsg27
g1
(g28
g3
Ntp127
Rp128
(dp129
g32
g35
sg33
g75
sg38
g1
(g39
g3
Ntp130
Rp131
(dp132
g43
I0
sg44
I24459
sg45
g80
sg49
I1
sg50
g47
sg51
I0
sg52
I64
sg53
I72
sg38
g1
(g54
g3
Ntp133
Rp134
(dp135
g58
I0
sg44
I1591
sg59
g131
sg60
I8
sg38
S'PingPingPingPingPingPingPingPingPingPingPingPing'
p136
sbsg62
Nsg63
I0
sg64
I5
sg65
I4
sg66
I7982
sg59
g128
sg67
I00
sbsg62
Nsg59
Nsg60
I2048
sg67
I00
sbsbag1
(g2
g3
Ntp137
Rp138
(dp139
g7
g123
sg27
g1
(g28
g3
Ntp140
Rp141
(dp142
g32
g35
sg33
g15
sg38
g1
(g39
g3
Ntp143
Rp144
(dp145
g43
I0
sg44
I24970
sg45
g23
sg49
I1
sg50
g47
sg51
I0
sg52
I64
sg53
I72
sg38
g1
(g54
g3
Ntp146
Rp147
(dp148
g58
I0
sg44
I1591
sg59
g144
sg60
I8
sg38
S'PingPingPingPingPingPingPingPingPingPingPingPing'
p149
sbsg62
Nsg63
I0
sg64
I5
sg65
I4
sg66
I7983
sg59
g141
sg67
I00
sbsg62
Nsg59
Nsg60
I2048
sg67
I00
sbsbag1
(g2
g3
Ntp150
Rp151
(dp152
g7
g72
sg27
g1
(g28
g3
Ntp153
Rp154
(dp155
g32
g75
sg33
g15
sg38
g1
(g39
g3
Ntp156
Rp157
(dp158
g43
I0
sg44
I0
sg45
g23
sg49
I1
sg50
g80
sg51
I0
sg52
I64
sg53
I20
sg38
g1
(g54
g3
Ntp159
Rp160
(dp161
g58
I0
sg44
I0
sg59
g157
sg60
I8
sg38
S'PingPingPingPingPingPingPingPingPingPingPingPing'
p162
sbsg62
Nsg63
I0
sg64
I5
sg65
I4
sg66
I7984
sg59
g154
sg67
I00
sbsg62
Nsg59
Nsg60
I2048
sg67
I00
sbsbag1
(g2
g3
Ntp163
Rp164
(dp165
g7
g72
sg27
g1
(g28
g3
Ntp166
Rp167
(dp168
g32
g75
sg33
g35
sg38
g1
(g39
g3
Ntp169
Rp170
(dp171
g43
I0
sg44
I24454
sg45
g47
sg49
I1
sg50
g80
sg51
I0
sg52
I64
sg53
I72
sg38
g1
(g54
g3
Ntp172
Rp173
(dp174
g58
I0
sg44
I3639
sg59
g170
sg60
I0
sg38
S'PingPingPingPingPingPingPingPingPingPingPingPing'
p175
sbsg62
Nsg63
I0
sg64
I5
sg65
I4
sg66
I7987
sg59
g167
sg67
I00
sbsg62
Nsg59
Nsg60
I2048
sg67
I00
sbsbag1
(g2
g3
Ntp176
Rp177
(dp178
g7
g72
sg27
g1
(g28
g3
Ntp179
Rp180
(dp181
g32
g75
sg33
g35
sg38
g1
(g39
g3
Ntp182
Rp183
(dp184
g43
I0
sg44
I24449
sg45
g47
sg49
I1
sg50
g80
sg51
I0
sg52
I64
sg53
I72
sg38
g1
(g54
g3
Ntp185
Rp186
(dp187
g58
I0
sg44
I1591
sg59
g183
sg60
I8
sg38
S'PingPingPingPingPingPingPingPingPingPingPingPing'
p188
sbsg62
Nsg63
I0
sg64
I5
sg65
I4
sg66
I7992
sg59
g180
sg67
I00
sbsg62
Nsg59
Nsg60
I2048
sg67
I00
sbsbag1
(g2
g3
Ntp189
Rp190
(dp191
g7
g123
sg27
g1
(g28
g3
Ntp192
Rp193
(dp194
g32
g35
sg33
g75
sg38
g1
(g39
g3
Ntp195
Rp196
(dp197
g43
I0
sg44
I24436
sg45
g80
sg49
I1
sg50
g47
sg51
I0
sg52
I64
sg53
I72
sg38
g1
(g54
g3
Ntp198
Rp199
(dp200
g58
I0
sg44
I1591
sg59
g196
sg60
I8
sg38
S'PingPingPingPingPingPingPingPingPingPingPingPing'
p201
sbsg62
Nsg63
I0
sg64
I5
sg65
I4
sg66
I8005
sg59
g193
sg67
I00
sbsg62
Nsg59
Nsg60
I2048
sg67
I00
sbsbag1
(g2
g3
Ntp202
Rp203
(dp204
g7
g72
sg27
g1
(g28
g3
Ntp205
Rp206
(dp207
g32
g75
sg33
g15
sg38
g1
(g39
g3
Ntp208
Rp209
(dp210
g43
I0
sg44
I0
sg45
g23
sg49
I1
sg50
g80
sg51
I0
sg52
I64
sg53
I20
sg38
g1
(g54
g3
Ntp211
Rp212
(dp213
g58
I0
sg44
I0
sg59
g209
sg60
I0
sg38
S'PingPingPingPingPingPingPingPingPingPingPingPing'
p214
sbsg62
Nsg63
I0
sg64
I5
sg65
I4
sg66
I8008
sg59
g206
sg67
I00
sbsg62
Nsg59
Nsg60
I2048
sg67
I00
sbsbag1
(g2
g3
Ntp215
Rp216
(dp217
g7
g123
sg27
g1
(g28
g3
Ntp218
Rp219
(dp220
g32
g35
sg33
g75
sg38
g1
(g39
g3
Ntp221
Rp222
(dp223
g43
I0
sg44
I0
sg45
g80
sg49
I1
sg50
g47
sg51
I0
sg52
I64
sg53
I20
sg38
g1
(g54
g3
Ntp224
Rp225
(dp226
g58
I0
sg44
I0
sg59
g222
sg60
I8
sg38
S'PingPingPingPingPingPingPingPingPingPingPingPing'
p227
sbsg62
Nsg63
I0
sg64
I5
sg65
I4
sg66
I8013
sg59
g219
sg67
I00
sbsg62
Nsg59
Nsg60
I2048
sg67
I00
sbsbag1
(g2
g3
Ntp228
Rp229
(dp230
g7
g72
sg27
g1
(g28
g3
Ntp231
Rp232
(dp233
g32
g75
sg33
g15
sg38
g1
(g39
g3
Ntp234
Rp235
(dp236
g43
I0
sg44
I0
sg45
g23
sg49
I1
sg50
g80
sg51
I0
sg52
I64
sg53
I20
sg38
g1
(g54
g3
Ntp237
Rp238
(dp239
g58
I0
sg44
I0
sg59
g235
sg60
I8
sg38
S'PingPingPingPingPingPingPingPingPingPingPingPing'
p240
sbsg62
Nsg63
I0
sg64
I5
sg65
I4
sg66
I8014
sg59
g232
sg67
I00
sbsg62
Nsg59
Nsg60
I2048
sg67
I00
sbsbag1
(g2
g3
Ntp241
Rp242
(dp243
g7
g72
sg27
g1
(g28
g3
Ntp244
Rp245
(dp246
g32
g75
sg33
g35
sg38
g1
(g39
g3
Ntp247
Rp248
(dp249
g43
I0
sg44
I24426
sg45
g47
sg49
I1
sg50
g80
sg51
I0
sg52
I64
sg53
I72
sg38
g1
(g54
g3
Ntp250
Rp251
(dp252
g58
I0
sg44
I1591
sg59
g248
sg60
I8
sg38
S'PingPingPingPingPingPingPingPingPingPingPingPing'
p253
sbsg62
Nsg63
I0
sg64
I5
sg65
I4
sg66
I8015
sg59
g245
sg67
I00
sbsg62
Nsg59
Nsg60
I2048
sg67
I00
sbsbag1
(g2
g3
Ntp254
Rp255
(dp256
g7
g10
sg27
g1
(g28
g3
Ntp257
Rp258
(dp259
g32
g15
sg33
g75
sg38
g1
(g39
g3
Ntp260
Rp261
(dp262
g43
I0
sg44
I24681
sg45
g80
sg49
I1
sg50
g23
sg51
I0
sg52
I64
sg53
I72
sg38
g1
(g54
g3
Ntp263
Rp264
(dp265
g58
I0
sg44
I3639
sg59
g261
sg60
I0
sg38
S'PingPingPingPingPingPingPingPingPingPingPingPing'
p266
sbsg62
Nsg63
I0
sg64
I5
sg65
I4
sg66
I8016
sg59
g258
sg67
I00
sbsg62
Nsg59
Nsg60
I2048
sg67
I00
sbsbag1
(g2
g3
Ntp267
Rp268
(dp269
g7
g10
sg27
g1
(g28
g3
Ntp270
Rp271
(dp272
g32
g15
sg33
g75
sg38
g1
(g39
g3
Ntp273
Rp274
(dp275
g43
I0
sg44
I24674
sg45
g80
sg49
I1
sg50
g23
sg51
I0
sg52
I64
sg53
I72
sg38
g1
(g54
g3
Ntp276
Rp277
(dp278
g58
I0
sg44
I1591
sg59
g274
sg60
I8
sg38
S'PingPingPingPingPingPingPingPingPingPingPingPing'
p279
sbsg62
Nsg63
I0
sg64
I5
sg65
I4
sg66
I8023
sg59
g271
sg67
I00
sbsg62
Nsg59
Nsg60
I2048
sg67
I00
sbsbag1
(g2
g3
Ntp280
Rp281
(dp282
g7
g123
sg27
g1
(g28
g3
Ntp283
Rp284
(dp285
g32
g35
sg33
g15
sg38
g1
(g39
g3
Ntp286
Rp287
(dp288
g43
I0
sg44
I0
sg45
g23
sg49
I1
sg50
g47
sg51
I0
sg52
I64
sg53
I20
sg38
g1
(g54
g3
Ntp289
Rp290
(dp291
g58
I0
sg44
I0
sg59
g287
sg60
I8
sg38
S'PingPingPingPingPingPingPingPingPingPingPingPing'
p292
sbsg62
Nsg63
I0
sg64
I5
sg65
I4
sg66
I8024
sg59
g284
sg67
I00
sbsg62
Nsg59
Nsg60
I2048
sg67
I00
sbsbag1
(g2
g3
Ntp293
Rp294
(dp295
g7
g10
sg27
g1
(g28
g3
Ntp296
Rp297
(dp298
g32
g15
sg33
g35
sg38
g1
(g39
g3
Ntp299
Rp300
(dp301
g43
I0
sg44
I24928
sg45
g47
sg49
I1
sg50
g23
sg51
I0
sg52
I64
sg53
I72
sg38
g1
(g54
g3
Ntp302
Rp303
(dp304
g58
I0
sg44
I1591
sg59
g300
sg60
I8
sg38
S'PingPingPingPingPingPingPingPingPingPingPingPing'
p305
sbsg62
Nsg63
I0
sg64
I5
sg65
I4
sg66
I8025
sg59
g297
sg67
I00
sbsg62
Nsg59
Nsg60
I2048
sg67
I00
sbsbag1
(g2
g3
Ntp306
Rp307
(dp308
g7
g123
sg27
g1
(g28
g3
Ntp309
Rp310
(dp311
g32
g35
sg33
g75
sg38
g1
(g39
g3
Ntp312
Rp313
(dp314
g43
I0
sg44
I24415
sg45
g80
sg49
I1
sg50
g47
sg51
I0
sg52
I64
sg53
I72
sg38
g1
(g54
g3
Ntp315
Rp316
(dp317
g58
I0
sg44
I1591
sg59
g313
sg60
I8
sg38
S'PingPingPingPingPingPingPingPingPingPingPingPing'
p318
sbsg62
Nsg63
I0
sg64
I5
sg65
I4
sg66
I8026
sg59
g310
sg67
I00
sbsg62
Nsg59
Nsg60
I2048
sg67
I00
sbsbag1
(g2
g3
Ntp319
Rp320
(dp321
g7
g10
sg27
g1
(g28
g3
Ntp322
Rp323
(dp324
g32
g15
sg33
g35
sg38
g1
(g39
g3
Ntp325
Rp326
(dp327
g43
I0
sg44
I24924
sg45
g47
sg49
I1
sg50
g23
sg51
I0
sg52
I64
sg53
I72
sg38
g1
(g54
g3
Ntp328
Rp329
(dp330
g58
I0
sg44
I3639
sg59
g326
sg60
I0
sg38
S'PingPingPingPingPingPingPingPingPingPingPingPing'
p331
sbsg62
Nsg63
I0
sg64
I5
sg65
I4
sg66
I8029
sg59
g323
sg67
I00
sbsg62
Nsg59
Nsg60
I2048
sg67
I00
sbsbag1
(g2
g3
Ntp332
Rp333
(dp334
g7
g10
sg27
g1
(g28
g3
Ntp335
Rp336
(dp337
g32
g15
sg33
g35
sg38
g1
(g39
g3
Ntp338
Rp339
(dp340
g43
I0
sg44
I24921
sg45
g47
sg49
I1
sg50
g23
sg51
I0
sg52
I64
sg53
I72
sg38
g1
(g54
g3
Ntp341
Rp342
(dp343
g58
I0
sg44
I1591
sg59
g339
sg60
I8
sg38
S'PingPingPingPingPingPingPingPingPingPingPingPing'
p344
sbsg62
Nsg63
I0
sg64
I5
sg65
I4
sg66
I8032
sg59
g336
sg67
I00
sbsg62
Nsg59
Nsg60
I2048
sg67
I00
sbsbag1
(g2
g3
Ntp345
Rp346
(dp347
g7
g123
sg27
g1
(g28
g3
Ntp348
Rp349
(dp350
g32
g35
sg33
g15
sg38
g1
(g39
g3
Ntp351
Rp352
(dp353
g43
I0
sg44
I24920
sg45
g23
sg49
I1
sg50
g47
sg51
I0
sg52
I64
sg53
I72
sg38
g1
(g54
g3
Ntp354
Rp355
(dp356
g58
I0
sg44
I3639
sg59
g352
sg60
I0
sg38
S'PingPingPingPingPingPingPingPingPingPingPingPing'
p357
sbsg62
Nsg63
I0
sg64
I5
sg65
I4
sg66
I8033
sg59
g349
sg67
I00
sbsg62
Nsg59
Nsg60
I2048
sg67
I00
sbsbag1
(g2
g3
Ntp358
Rp359
(dp360
g7
g123
sg27
g1
(g28
g3
Ntp361
Rp362
(dp363
g32
g35
sg33
g75
sg38
g1
(g39
g3
Ntp364
Rp365
(dp366
g43
I0
sg44
I0
sg45
g80
sg49
I1
sg50
g47
sg51
I0
sg52
I64
sg53
I20
sg38
g1
(g54
g3
Ntp367
Rp368
(dp369
g58
I0
sg44
I0
sg59
g365
sg60
I0
sg38
S'PingPingPingPingPingPingPingPingPingPingPingPing'
p370
sbsg62
Nsg63
I0
sg64
I5
sg65
I4
sg66
I8034
sg59
g362
sg67
I00
sbsg62
Nsg59
Nsg60
I2048
sg67
I00
sbsbag1
(g2
g3
Ntp371
Rp372
(dp373
g7
g72
sg27
g1
(g28
g3
Ntp374
Rp375
(dp376
g32
g75
sg33
g15
sg38
g1
(g39
g3
Ntp377
Rp378
(dp379
g43
I0
sg44
I24656
sg45
g23
sg49
I1
sg50
g80
sg51
I0
sg52
I64
sg53
I72
sg38
g1
(g54
g3
Ntp380
Rp381
(dp382
g58
I0
sg44
I1591
sg59
g378
sg60
I8
sg38
S'PingPingPingPingPingPingPingPingPingPingPingPing'
p383
sbsg62
Nsg63
I0
sg64
I5
sg65
I4
sg66
I8041
sg59
g375
sg67
I00
sbsg62
Nsg59
Nsg60
I2048
sg67
I00
sbsbag1
(g2
g3
Ntp384
Rp385
(dp386
g7
g72
sg27
g1
(g28
g3
Ntp387
Rp388
(dp389
g32
g75
sg33
g15
sg38
g1
(g39
g3
Ntp390
Rp391
(dp392
g43
I0
sg44
I24651
sg45
g23
sg49
I1
sg50
g80
sg51
I0
sg52
I64
sg53
I72
sg38
g1
(g54
g3
Ntp393
Rp394
(dp395
g58
I0
sg44
I3639
sg59
g391
sg60
I0
sg38
S'PingPingPingPingPingPingPingPingPingPingPingPing'
p396
sbsg62
Nsg63
I0
sg64
I5
sg65
I4
sg66
I8046
sg59
g388
sg67
I00
sbsg62
Nsg59
Nsg60
I2048
sg67
I00
sbsbag1
(g2
g3
Ntp397
Rp398
(dp399
g7
g72
sg27
g1
(g28
g3
Ntp400
Rp401
(dp402
g32
g75
sg33
g35
sg38
g1
(g39
g3
Ntp403
Rp404
(dp405
g43
I0
sg44
I24392
sg45
g47
sg49
I1
sg50
g80
sg51
I0
sg52
I64
sg53
I72
sg38
g1
(g54
g3
Ntp406
Rp407
(dp408
g58
I0
sg44
I1591
sg59
g404
sg60
I8
sg38
S'PingPingPingPingPingPingPingPingPingPingPingPing'
p409
sbsg62
Nsg63
I0
sg64
I5
sg65
I4
sg66
I8049
sg59
g401
sg67
I00
sbsg62
Nsg59
Nsg60
I2048
sg67
I00
sbsbag1
(g2
g3
Ntp410
Rp411
(dp412
g7
g10
sg27
g1
(g28
g3
Ntp413
Rp414
(dp415
g32
g15
sg33
g35
sg38
g1
(g39
g3
Ntp416
Rp417
(dp418
g43
I0
sg44
I24901
sg45
g47
sg49
I1
sg50
g23
sg51
I0
sg52
I64
sg53
I72
sg38
g1
(g54
g3
Ntp419
Rp420
(dp421
g58
I0
sg44
I3639
sg59
g417
sg60
I0
sg38
S'PingPingPingPingPingPingPingPingPingPingPingPing'
p422
sbsg62
Nsg63
I0
sg64
I5
sg65
I4
sg66
I8052
sg59
g414
sg67
I00
sbsg62
Nsg59
Nsg60
I2048
sg67
I00
sbsba.