(lp0
ccopy_reg
_reconstructor
p1
(csts.dataplane_traces.trace
DataplaneEvent
p2
c__builtin__
object
p3
Ntp4
Rp5
(dp6
S'interface'
p7
g1
(csts.entities
HostInterface
p8
g3
Ntp9
Rp10
(dp11
S'hw_addr'
p12
g1
(cpox.lib.addresses
EthAddr
p13
g3
Ntp14
Rp15
(dp16
S'value'
p17
S'\x124Vx\x02\x04'
p18
sbsS'ips'
p19
(lp20
g1
(cpox.lib.addresses
IPAddr
p21
g3
Ntp22
Rp23
(dp24
g17
I67271547
sbasS'name'
p25
S'eth2'
p26
sbsS'packet'
p27
g1
(cpox.lib.packet.ethernet
ethernet
p28
g3
Ntp29
Rp30
(dp31
S'src'
p32
g15
sS'dst'
p33
g1
(g13
g3
Ntp34
Rp35
(dp36
g17
S'\x124Vx\x01\x04'
p37
sbsS'next'
p38
g1
(cpox.lib.packet.ipv4
ipv4
p39
g3
Ntp40
Rp41
(dp42
S'frag'
p43
I0
sS'csum'
p44
I0
sS'dstip'
p45
g1
(g21
g3
Ntp46
Rp47
(dp48
g17
I67206011
sbsS'protocol'
p49
I1
sS'srcip'
p50
g23
sS'tos'
p51
I0
sS'ttl'
p52
I64
sS'iplen'
p53
I20
sg38
g1
(cpox.lib.packet.icmp
icmp
p54
g3
Ntp55
Rp56
(dp57
S'code'
p58
I0
sg44
I0
sS'prev'
p59
g41
sS'type'
p60
I8
sg38
S'PingPingPingPingPingPingPingPingPingPingPingPing'
p61
sbsS'raw'
p62
NsS'flags'
p63
I0
sS'hl'
p64
I5
sS'v'
p65
I4
sS'id'
p66
I61899
sg59
g30
sS'parsed'
p67
I00
sbsg62
Nsg59
Nsg60
I2048
sg67
I00
sbsbag1
(g2
g3
Ntp68
Rp69
(dp70
g7
g1
(g8
g3
Ntp71
Rp72
(dp73
g12
g1
(g13
g3
Ntp74
Rp75
(dp76
g17
S'\x124Vx\x03\x04'
p77
sbsg19
(lp78
g1
(g21
g3
Ntp79
Rp80
(dp81
g17
I67337083
sbasg25
S'eth3'
p82
sbsg27
g1
(g28
g3
Ntp83
Rp84
(dp85
g32
g75
sg33
g35
sg38
g1
(g39
g3
Ntp86
Rp87
(dp88
g43
I0
sg44
I36330
sg45
g47
sg49
I1
sg50
g80
sg51
I0
sg52
I64
sg53
I72
sg38
g1
(g54
g3
Ntp89
Rp90
(dp91
g58
I0
sg44
I3639
sg59
g87
sg60
I0
sg38
S'PingPingPingPingPingPingPingPingPingPingPingPing'
p92
sbsg62
Nsg63
I0
sg64
I5
sg65
I4
sg66
I61900
sg59
g84
sg67
I00
sbsg62
Nsg59
Nsg60
I2048
sg67
I00
sbsbag1
(g2
g3
Ntp93
Rp94
(dp95
g7
g1
(g8
g3
Ntp96
Rp97
(dp98
g12
g35
sg19
(lp99
g47
asg25
S'eth1'
p100
sbsg27
g1
(g28
g3
Ntp101
Rp102
(dp103
g32
g35
sg33
g15
sg38
g1
(g39
g3
Ntp104
Rp105
(dp106
g43
I0
sg44
I36585
sg45
g23
sg49
I1
sg50
g47
sg51
I0
sg52
I64
sg53
I72
sg38
g1
(g54
g3
Ntp107
Rp108
(dp109
g58
I0
sg44
I3639
sg59
g105
sg60
I0
sg38
S'PingPingPingPingPingPingPingPingPingPingPingPing'
p110
sbsg62
Nsg63
I0
sg64
I5
sg65
I4
sg66
I61901
sg59
g102
sg67
I00
sbsg62
Nsg59
Nsg60
I2048
sg67
I00
sbsbag1
(g2
g3
Ntp111
Rp112
(dp113
g7
g1
(g8
g3
Ntp114
Rp115
(dp116
g12
g1
(g13
g3
Ntp117
Rp118
(dp119
g17
S'\x124Vx\x04\x04'
p120
sbsg19
(lp121
g1
(g21
g3
Ntp122
Rp123
(dp124
g17
I67402619
sbasg25
S'eth4'
p125
sbsg27
g1
(g28
g3
Ntp126
Rp127
(dp128
g32
g118
sg33
g35
sg38
g1
(g39
g3
Ntp129
Rp130
(dp131
g43
I0
sg44
I36072
sg45
g47
sg49
I1
sg50
g123
sg51
I0
sg52
I64
sg53
I72
sg38
g1
(g54
g3
Ntp132
Rp133
(dp134
g58
I0
sg44
I1591
sg59
g130
sg60
I8
sg38
S'PingPingPingPingPingPingPingPingPingPingPingPing'
p135
sbsg62
Nsg63
I0
sg64
I5
sg65
I4
sg66
I61902
sg59
g127
sg67
I00
sbsg62
Nsg59
Nsg60
I2048
sg67
I00
sbsbag1
(g2
g3
Ntp136
Rp137
(dp138
g7
g97
sg27
g1
(g28
g3
Ntp139
Rp140
(dp141
g32
g35
sg33
g75
sg38
g1
(g39
g3
Ntp142
Rp143
(dp144
g43
I0
sg44
I0
sg45
g80
sg49
I1
sg50
g47
sg51
I0
sg52
I64
sg53
I20
sg38
g1
(g54
g3
Ntp145
Rp146
(dp147
g58
I0
sg44
I0
sg59
g143
sg60
I0
sg38
S'PingPingPingPingPingPingPingPingPingPingPingPing'
p148
sbsg62
Nsg63
I0
sg64
I5
sg65
I4
sg66
I61903
sg59
g140
sg67
I00
sbsg62
Nsg59
Nsg60
I2048
sg67
I00
sbsbag1
(g2
g3
Ntp149
Rp150
(dp151
g7
g115
sg27
g1
(g28
g3
Ntp152
Rp153
(dp154
g32
g118
sg33
g15
sg38
g1
(g39
g3
Ntp155
Rp156
(dp157
g43
I0
sg44
I35814
sg45
g23
sg49
I1
sg50
g123
sg51
I0
sg52
I64
sg53
I72
sg38
g1
(g54
g3
Ntp158
Rp159
(dp160
g58
I0
sg44
I1591
sg59
g156
sg60
I8
sg38
S'PingPingPingPingPingPingPingPingPingPingPingPing'
p161
sbsg62
Nsg63
I0
sg64
I5
sg65
I4
sg66
I61904
sg59
g153
sg67
I00
sbsg62
Nsg59
Nsg60
I2048
sg67
I00
sbsbag1
(g2
g3
Ntp162
Rp163
(dp164
g7
g10
sg27
g1
(g28
g3
Ntp165
Rp166
(dp167
g32
g15
sg33
g75
sg38
g1
(g39
g3
Ntp168
Rp169
(dp170
g43
I0
sg44
I36069
sg45
g80
sg49
I1
sg50
g23
sg51
I0
sg52
I64
sg53
I72
sg38
g1
(g54
g3
Ntp171
Rp172
(dp173
g58
I0
sg44
I1591
sg59
g169
sg60
I8
sg38
S'PingPingPingPingPingPingPingPingPingPingPingPing'
p174
sbsg62
Nsg63
I0
sg64
I5
sg65
I4
sg66
I61905
sg59
g166
sg67
I00
sbsg62
Nsg59
Nsg60
I2048
sg67
I00
sbsbag1
(g2
g3
Ntp175
Rp176
(dp177
g7
g115
sg27
g1
(g28
g3
Ntp178
Rp179
(dp180
g32
g118
sg33
g75
sg38
g1
(g39
g3
Ntp181
Rp182
(dp183
g43
I0
sg44
I35556
sg45
g80
sg49
I1
sg50
g123
sg51
I0
sg52
I64
sg53
I72
sg38
g1
(g54
g3
Ntp184
Rp185
(dp186
g58
I0
sg44
I3639
sg59
g182
sg60
I0
sg38
S'PingPingPingPingPingPingPingPingPingPingPingPing'
p187
sbsg62
Nsg63
I0
sg64
I5
sg65
I4
sg66
I61906
sg59
g179
sg67
I00
sbsg62
Nsg59
Nsg60
I2048
sg67
I00
sbsbag1
(g2
g3
Ntp188
Rp189
(dp190
g7
g72
sg27
g1
(g28
g3
Ntp191
Rp192
(dp193
g32
g75
sg33
g15
sg38
g1
(g39
g3
Ntp194
Rp195
(dp196
g43
I0
sg44
I0
sg45
g23
sg49
I1
sg50
g80
sg51
I0
sg52
I64
sg53
I20
sg38
g1
(g54
g3
Ntp197
Rp198
(dp199
g58
I0
sg44
I0
sg59
g195
sg60
I8
sg38
S'PingPingPingPingPingPingPingPingPingPingPingPing'
p200
sbsg62
Nsg63
I0
sg64
I5
sg65
I4
sg66
I61907
sg59
g192
sg67
I00
sbsg62
Nsg59
Nsg60
I2048
sg67
I00
sbsbag1
(g2
g3
Ntp201
Rp202
(dp203
g7
g97
sg27
g1
(g28
g3
Ntp204
Rp205
(dp206
g32
g35
sg33
g118
sg38
g1
(g39
g3
Ntp207
Rp208
(dp209
g43
I0
sg44
I36066
sg45
g123
sg49
I1
sg50
g47
sg51
I0
sg52
I64
sg53
I72
sg38
g1
(g54
g3
Ntp210
Rp211
(dp212
g58
I0
sg44
I3639
sg59
g208
sg60
I0
sg38
S'PingPingPingPingPingPingPingPingPingPingPingPing'
p213
sbsg62
Nsg63
I0
sg64
I5
sg65
I4
sg66
I61908
sg59
g205
sg67
I00
sbsg62
Nsg59
Nsg60
I2048
sg67
I00
sbsbag1
(g2
g3
Ntp214
Rp215
(dp216
g7
g10
sg27
g1
(g28
g3
Ntp217
Rp218
(dp219
g32
g15
sg33
g118
sg38
g1
(g39
g3
Ntp220
Rp221
(dp222
g43
I0
sg44
I35809
sg45
g123
sg49
I1
sg50
g23
sg51
I0
sg52
I64
sg53
I72
sg38
g1
(g54
g3
Ntp223
Rp224
(dp225
g58
I0
sg44
I3639
sg59
g221
sg60
I0
sg38
S'PingPingPingPingPingPingPingPingPingPingPingPing'
p226
sbsg62
Nsg63
I0
sg64
I5
sg65
I4
sg66
I61909
sg59
g218
sg67
I00
sbsg62
Nsg59
Nsg60
I2048
sg67
I00
sbsbag1
(g2
g3
Ntp227
Rp228
(dp229
g7
g115
sg27
g1
(g28
g3
Ntp230
Rp231
(dp232
g32
g118
sg33
g35
sg38
g1
(g39
g3
Ntp233
Rp234
(dp235
g43
I0
sg44
I36064
sg45
g47
sg49
I1
sg50
g123
sg51
I0
sg52
I64
sg53
I72
sg38
g1
(g54
g3
Ntp236
Rp237
(dp238
g58
I0
sg44
I1591
sg59
g234
sg60
I8
sg38
S'PingPingPingPingPingPingPingPingPingPingPingPing'
p239
sbsg62
Nsg63
I0
sg64
I5
sg65
I4
sg66
I61910
sg59
g231
sg67
I00
sbsg62
Nsg59
Nsg60
I2048
sg67
I00
sbsbag1
(g2
g3
Ntp240
Rp241
(dp242
g7
g115
sg27
g1
(g28
g3
Ntp243
Rp244
(dp245
g32
g118
sg33
g15
sg38
g1
(g39
g3
Ntp246
Rp247
(dp248
g43
I0
sg44
I35807
sg45
g23
sg49
I1
sg50
g123
sg51
I0
sg52
I64
sg53
I72
sg38
g1
(g54
g3
Ntp249
Rp250
(dp251
g58
I0
sg44
I3639
sg59
g247
sg60
I0
sg38
S'PingPingPingPingPingPingPingPingPingPingPingPing'
p252
sbsg62
Nsg63
I0
sg64
I5
sg65
I4
sg66
I61911
sg59
g244
sg67
I00
sbsg62
Nsg59
Nsg60
I2048
sg67
I00
sbsbag1
(g2
g3
Ntp253
Rp254
(dp255
g7
g72
sg27
g1
(g28
g3
Ntp256
Rp257
(dp258
g32
g75
sg33
g118
sg38
g1
(g39
g3
Ntp259
Rp260
(dp261
g43
I0
sg44
I35550
sg45
g123
sg49
I1
sg50
g80
sg51
I0
sg52
I64
sg53
I72
sg38
g1
(g54
g3
Ntp262
Rp263
(dp264
g58
I0
sg44
I3639
sg59
g260
sg60
I0
sg38
S'PingPingPingPingPingPingPingPingPingPingPingPing'
p265
sbsg62
Nsg63
I0
sg64
I5
sg65
I4
sg66
I61912
sg59
g257
sg67
I00
sbsg62
Nsg59
Nsg60
I2048
sg67
I00
sbsbag1
(g2
g3
Ntp266
Rp267
(dp268
g7
g10
sg27
g1
(g28
g3
Ntp269
Rp270
(dp271
g32
g15
sg33
g35
sg38
g1
(g39
g3
Ntp272
Rp273
(dp274
g43
I0
sg44
I0
sg45
g47
sg49
I1
sg50
g23
sg51
I0
sg52
I64
sg53
I20
sg38
g1
(g54
g3
Ntp275
Rp276
(dp277
g58
I0
sg44
I0
sg59
g273
sg60
I0
sg38
S'PingPingPingPingPingPingPingPingPingPingPingPing'
p278
sbsg62
Nsg63
I0
sg64
I5
sg65
I4
sg66
I61913
sg59
g270
sg67
I00
sbsg62
Nsg59
Nsg60
I2048
sg67
I00
sbsbag1
(g2
g3
Ntp279
Rp280
(dp281
g7
g97
sg27
g1
(g28
g3
Ntp282
Rp283
(dp284
g32
g35
sg33
g15
sg38
g1
(g39
g3
Ntp285
Rp286
(dp287
g43
I0
sg44
I36572
sg45
g23
sg49
I1
sg50
g47
sg51
I0
sg52
I64
sg53
I72
sg38
g1
(g54
g3
Ntp288
Rp289
(dp290
g58
I0
sg44
I1591
sg59
g286
sg60
I8
sg38
S'PingPingPingPingPingPingPingPingPingPingPingPing'
p291
sbsg62
Nsg63
I0
sg64
I5
sg65
I4
sg66
I61914
sg59
g283
sg67
I00
sbsg62
Nsg59
Nsg60
I2048
sg67
I00
sbsbag1
(g2
g3
Ntp292
Rp293
(dp294
g7
g72
sg27
g1
(g28
g3
Ntp295
Rp296
(dp297
g32
g75
sg33
g35
sg38
g1
(g39
g3
Ntp298
Rp299
(dp300
g43
I0
sg44
I0
sg45
g47
sg49
I1
sg50
g80
sg51
I0
sg52
I64
sg53
I20
sg38
g1
(g54
g3
Ntp301
Rp302
(dp303
g58
I0
sg44
I0
sg59
g299
sg60
I0
sg38
S'PingPingPingPingPingPingPingPingPingPingPingPing'
p304
sbsg62
Nsg63
I0
sg64
I5
sg65
I4
sg66
I61915
sg59
g296
sg67
I00
sbsg62
Nsg59
Nsg60
I2048
sg67
I00
sbsbag1
(g2
g3
Ntp305
Rp306
(dp307
g7
g72
sg27
g1
(g28
g3
Ntp308
Rp309
(dp310
g32
g75
sg33
g15
sg38
g1
(g39
g3
Ntp311
Rp312
(dp313
g43
I0
sg44
I0
sg45
g23
sg49
I1
sg50
g80
sg51
I0
sg52
I64
sg53
I20
sg38
g1
(g54
g3
Ntp314
Rp315
(dp316
g58
I0
sg44
I0
sg59
g312
sg60
I0
sg38
S'PingPingPingPingPingPingPingPingPingPingPingPing'
p317
sbsg62
Nsg63
I0
sg64
I5
sg65
I4
sg66
I61916
sg59
g309
sg67
I00
sbsg62
Nsg59
Nsg60
I2048
sg67
I00
sbsbag1
(g2
g3
Ntp318
Rp319
(dp320
g7
g97
sg27
g1
(g28
g3
Ntp321
Rp322
(dp323
g32
g35
sg33
g75
sg38
g1
(g39
g3
Ntp324
Rp325
(dp326
g43
I0
sg44
I36313
sg45
g80
sg49
I1
sg50
g47
sg51
I0
sg52
I64
sg53
I72
sg38
g1
(g54
g3
Ntp327
Rp328
(dp329
g58
I0
sg44
I3639
sg59
g325
sg60
I0
sg38
S'PingPingPingPingPingPingPingPingPingPingPingPing'
p330
sbsg62
Nsg63
I0
sg64
I5
sg65
I4
sg66
I61917
sg59
g322
sg67
I00
sbsg62
Nsg59
Nsg60
I2048
sg67
I00
sbsbag1
(g2
g3
Ntp331
Rp332
(dp333
g7
g72
sg27
g1
(g28
g3
Ntp334
Rp335
(dp336
g32
g75
sg33
g118
sg38
g1
(g39
g3
Ntp337
Rp338
(dp339
g43
I0
sg44
I0
sg45
g123
sg49
I1
sg50
g80
sg51
I0
sg52
I64
sg53
I20
sg38
g1
(g54
g3
Ntp340
Rp341
(dp342
g58
I0
sg44
I0
sg59
g338
sg60
I0
sg38
S'PingPingPingPingPingPingPingPingPingPingPingPing'
p343
sbsg62
Nsg63
I0
sg64
I5
sg65
I4
sg66
I61918
sg59
g335
sg67
I00
sbsg62
Nsg59
Nsg60
I2048
sg67
I00
sbsbag1
(g2
g3
Ntp344
Rp345
(dp346
g7
g72
sg27
g1
(g28
g3
Ntp347
Rp348
(dp349
g32
g75
sg33
g35
sg38
g1
(g39
g3
Ntp350
Rp351
(dp352
g43
I0
sg44
I36311
sg45
g47
sg49
I1
sg50
g80
sg51
I0
sg52
I64
sg53
I72
sg38
g1
(g54
g3
Ntp353
Rp354
(dp355
g58
I0
sg44
I1591
sg59
g351
sg60
I8
sg38
S'PingPingPingPingPingPingPingPingPingPingPingPing'
p356
sbsg62
Nsg63
I0
sg64
I5
sg65
I4
sg66
I61919
sg59
g348
sg67
I00
sbsg62
Nsg59
Nsg60
I2048
sg67
I00
sbsbag1
(g2
g3
Ntp357
Rp358
(dp359
g7
g10
sg27
g1
(g28
g3
Ntp360
Rp361
(dp362
g32
g15
sg33
g75
sg38
g1
(g39
g3
Ntp363
Rp364
(dp365
g43
I0
sg44
I36054
sg45
g80
sg49
I1
sg50
g23
sg51
I0
sg52
I64
sg53
I72
sg38
g1
(g54
g3
Ntp366
Rp367
(dp368
g58
I0
sg44
I1591
sg59
g364
sg60
I8
sg38
S'PingPingPingPingPingPingPingPingPingPingPingPing'
p369
sbsg62
Nsg63
I0
sg64
I5
sg65
I4
sg66
I61920
sg59
g361
sg67
I00
sbsg62
Nsg59
Nsg60
I2048
sg67
I00
sbsbag1
(g2
g3
Ntp370
Rp371
(dp372
g7
g10
sg27
g1
(g28
g3
Ntp373
Rp374
(dp375
g32
g15
sg33
g118
sg38
g1
(g39
g3
Ntp376
Rp377
(dp378
g43
I0
sg44
I35797
sg45
g123
sg49
I1
sg50
g23
sg51
I0
sg52
I64
sg53
I72
sg38
g1
(g54
g3
Ntp379
Rp380
(dp381
g58
I0
sg44
I1591
sg59
g377
sg60
I8
sg38
S'PingPingPingPingPingPingPingPingPingPingPingPing'
p382
sbsg62
Nsg63
I0
sg64
I5
sg65
I4
sg66
I61921
sg59
g374
sg67
I00
sbsg62
Nsg59
Nsg60
I2048
sg67
I00
sbsbag1
(g2
g3
Ntp383
Rp384
(dp385
g7
g10
sg27
g1
(g28
g3
Ntp386
Rp387
(dp388
g32
g15
sg33
g35
sg38
g1
(g39
g3
Ntp389
Rp390
(dp391
g43
I0
sg44
I0
sg45
g47
sg49
I1
sg50
g23
sg51
I0
sg52
I64
sg53
I20
sg38
g1
(g54
g3
Ntp392
Rp393
(dp394
g58
I0
sg44
I0
sg59
g390
sg60
I8
sg38
S'PingPingPingPingPingPingPingPingPingPingPingPing'
p395
sbsg62
Nsg63
I0
sg64
I5
sg65
I4
sg66
I61922
sg59
g387
sg67
I00
sbsg62
Nsg59
Nsg60
I2048
sg67
I00
sbsbag1
(g2
g3
Ntp396
Rp397
(dp398
g7
g72
sg27
g1
(g28
g3
Ntp399
Rp400
(dp401
g32
g75
sg33
g15
sg38
g1
(g39
g3
Ntp402
Rp403
(dp404
g43
I0
sg44
I36051
sg45
g23
sg49
I1
sg50
g80
sg51
I0
sg52
I64
sg53
I72
sg38
g1
(g54
g3
Ntp405
Rp406
(dp407
g58
I0
sg44
I3639
sg59
g403
sg60
I0
sg38
S'PingPingPingPingPingPingPingPingPingPingPingPing'
p408
sbsg62
Nsg63
I0
sg64
I5
sg65
I4
sg66
I61923
sg59
g400
sg67
I00
sbsg62
Nsg59
Nsg60
I2048
sg67
I00
sbsbag1
(g2
g3
Ntp409
Rp410
(dp411
g7
g115
sg27
g1
(g28
g3
Ntp412
Rp413
(dp414
g32
g118
sg33
g75
sg38
g1
(g39
g3
Ntp415
Rp416
(dp417
g43
I0
sg44
I0
sg45
g80
sg49
I1
sg50
g123
sg51
I0
sg52
I64
sg53
I20
sg38
g1
(g54
g3
Ntp418
Rp419
(dp420
g58
I0
sg44
I0
sg59
g416
sg60
I8
sg38
S'PingPingPingPingPingPingPingPingPingPingPingPing'
p421
sbsg62
Nsg63
I0
sg64
I5
sg65
I4
sg66
I61924
sg59
g413
sg67
I00
sbsg62
Nsg59
Nsg60
I2048
sg67
I00
sbsbag1
(g2
g3
Ntp422
Rp423
(dp424
g7
g10
sg27
g1
(g28
g3
Ntp425
Rp426
(dp427
g32
g15
sg33
g75
sg38
g1
(g39
g3
Ntp428
Rp429
(dp430
g43
I0
sg44
I36049
sg45
g80
sg49
I1
sg50
g23
sg51
I0
sg52
I64
sg53
I72
sg38
g1
(g54
g3
Ntp431
Rp432
(dp433
g58
I0
sg44
I3639
sg59
g429
sg60
I0
sg38
S'PingPingPingPingPingPingPingPingPingPingPingPing'
p434
sbsg62
Nsg63
I0
sg64
I5
sg65
I4
sg66
I61925
sg59
g426
sg67
I00
sbsg62
Nsg59
Nsg60
I2048
sg67
I00
sbsbag1
(g2
g3
Ntp435
Rp436
(dp437
g7
g97
sg27
g1
(g28
g3
Ntp438
Rp439
(dp440
g32
g35
sg33
g118
sg38
g1
(g39
g3
Ntp441
Rp442
(dp443
g43
I0
sg44
I0
sg45
g123
sg49
I1
sg50
g47
sg51
I0
sg52
I64
sg53
I20
sg38
g1
(g54
g3
Ntp444
Rp445
(dp446
g58
I0
sg44
I0
sg59
g442
sg60
I8
sg38
S'PingPingPingPingPingPingPingPingPingPingPingPing'
p447
sbsg62
Nsg63
I0
sg64
I5
sg65
I4
sg66
I61926
sg59
g439
sg67
I00
sbsg62
Nsg59
Nsg60
I2048
sg67
I00
sbsbag1
(g2
g3
Ntp448
Rp449
(dp450
g7
g115
sg27
g1
(g28
g3
Ntp451
Rp452
(dp453
g32
g118
sg33
g35
sg38
g1
(g39
g3
Ntp454
Rp455
(dp456
g43
I0
sg44
I36047
sg45
g47
sg49
I1
sg50
g123
sg51
I0
sg52
I64
sg53
I72
sg38
g1
(g54
g3
Ntp457
Rp458
(dp459
g58
I0
sg44
I1591
sg59
g455
sg60
I8
sg38
S'PingPingPingPingPingPingPingPingPingPingPingPing'
p460
sbsg62
Nsg63
I0
sg64
I5
sg65
I4
sg66
I61927
sg59
g452
sg67
I00
sbsg62
Nsg59
Nsg60
I2048
sg67
I00
sbsbag1
(g2
g3
Ntp461
Rp462
(dp463
g7
g10
sg27
g1
(g28
g3
Ntp464
Rp465
(dp466
g32
g15
sg33
g118
sg38
g1
(g39
g3
Ntp467
Rp468
(dp469
g43
I0
sg44
I0
sg45
g123
sg49
I1
sg50
g23
sg51
I0
sg52
I64
sg53
I20
sg38
g1
(g54
g3
Ntp470
Rp471
(dp472
g58
I0
sg44
I0
sg59
g468
sg60
I8
sg38
S'PingPingPingPingPingPingPingPingPingPingPingPing'
p473
sbsg62
Nsg63
I0
sg64
I5
sg65
I4
sg66
I61928
sg59
g465
sg67
I00
sbsg62
Nsg59
Nsg60
I2048
sg67
I00
sbsbag1
(g2
g3
Ntp474
Rp475
(dp476
g7
g72
sg27
g1
(g28
g3
Ntp477
Rp478
(dp479
g32
g75
sg33
g118
sg38
g1
(g39
g3
Ntp480
Rp481
(dp482
g43
I0
sg44
I35533
sg45
g123
sg49
I1
sg50
g80
sg51
I0
sg52
I64
sg53
I72
sg38
g1
(g54
g3
Ntp483
Rp484
(dp485
g58
I0
sg44
I3639
sg59
g481
sg60
I0
sg38
S'PingPingPingPingPingPingPingPingPingPingPingPing'
p486
sbsg62
Nsg63
I0
sg64
I5
sg65
I4
sg66
I61929
sg59
g478
sg67
I00
sbsg62
Nsg59
Nsg60
I2048
sg67
I00
sbsbag1
(g2
g3
Ntp487
Rp488
(dp489
g7
g10
sg27
g1
(g28
g3
Ntp490
Rp491
(dp492
g32
g15
sg33
g35
sg38
g1
(g39
g3
Ntp493
Rp494
(dp495
g43
I0
sg44
I36556
sg45
g47
sg49
I1
sg50
g23
sg51
I0
sg52
I64
sg53
I72
sg38
g1
(g54
g3
Ntp496
Rp497
(dp498
g58
I0
sg44
I1591
sg59
g494
sg60
I8
sg38
S'PingPingPingPingPingPingPingPingPingPingPingPing'
p499
sbsg62
Nsg63
I0
sg64
I5
sg65
I4
sg66
I61930
sg59
g491
sg67
I00
sbsg62
Nsg59
Nsg60
I2048
sg67
I00
sbsbag1
(g2
g3
Ntp500
Rp501
(dp502
g7
g72
sg27
g1
(g28
g3
Ntp503
Rp504
(dp505
g32
g75
sg33
g35
sg38
g1
(g39
g3
Ntp506
Rp507
(dp508
g43
I0
sg44
I36299
sg45
g47
sg49
I1
sg50
g80
sg51
I0
sg52
I64
sg53
I72
sg38
g1
(g54
g3
Ntp509
Rp510
(dp511
g58
I0
sg44
I3639
sg59
g507
sg60
I0
sg38
S'PingPingPingPingPingPingPingPingPingPingPingPing'
p512
sbsg62
Nsg63
I0
sg64
I5
sg65
I4
sg66
I61931
sg59
g504
sg67
I00
sbsg62
Nsg59
Nsg60
I2048
sg67
I00
sbsbag1
(g2
g3
Ntp513
Rp514
(dp515
g7
g97
sg27
g1
(g28
g3
Ntp516
Rp517
(dp518
g32
g35
sg33
g15
sg38
g1
(g39
g3
Ntp519
Rp520
(dp521
g43
I0
sg44
I36554
sg45
g23
sg49
I1
sg50
g47
sg51
I0
sg52
I64
sg53
I72
sg38
g1
(g54
g3
Ntp522
Rp523
(dp524
g58
I0
sg44
I1591
sg59
g520
sg60
I8
sg38
S'PingPingPingPingPingPingPingPingPingPingPingPing'
p525
sbsg62
Nsg63
I0
sg64
I5
sg65
I4
sg66
I61932
sg59
g517
sg67
I00
sbsg62
Nsg59
Nsg60
I2048
sg67
I00
sbsbag1
(g2
g3
Ntp526
Rp527
(dp528
g7
g97
sg27
g1
(g28
g3
Ntp529
Rp530
(dp531
g32
g35
sg33
g75
sg38
g1
(g39
g3
Ntp532
Rp533
(dp534
g43
I0
sg44
I36297
sg45
g80
sg49
I1
sg50
g47
sg51
I0
sg52
I64
sg53
I72
sg38
g1
(g54
g3
Ntp535
Rp536
(dp537
g58
I0
sg44
I3639
sg59
g533
sg60
I0
sg38
S'PingPingPingPingPingPingPingPingPingPingPingPing'
p538
sbsg62
Nsg63
I0
sg64
I5
sg65
I4
sg66
I61933
sg59
g530
sg67
I00
sbsg62
Nsg59
Nsg60
I2048
sg67
I00
sbsbag1
(g2
g3
Ntp539
Rp540
(dp541
g7
g72
sg27
g1
(g28
g3
Ntp542
Rp543
(dp544
g32
g75
sg33
g15
sg38
g1
(g39
g3
Ntp545
Rp546
(dp547
g43
I0
sg44
I36040
sg45
g23
sg49
I1
sg50
g80
sg51
I0
sg52
I64
sg53
I72
sg38
g1
(g54
g3
Ntp548
Rp549
(dp550
g58
I0
sg44
I1591
sg59
g546
sg60
I8
sg38
S'PingPingPingPingPingPingPingPingPingPingPingPing'
p551
sbsg62
Nsg63
I0
sg64
I5
sg65
I4
sg66
I61934
sg59
g543
sg67
I00
sbsg62
Nsg59
Nsg60
I2048
sg67
I00
sbsbag1
(g2
g3
Ntp552
Rp553
(dp554
g7
g115
sg27
g1
(g28
g3
Ntp555
Rp556
(dp557
g32
g118
sg33
g15
sg38
g1
(g39
g3
Ntp558
Rp559
(dp560
g43
I0
sg44
I35783
sg45
g23
sg49
I1
sg50
g123
sg51
I0
sg52
I64
sg53
I72
sg38
g1
(g54
g3
Ntp561
Rp562
(dp563
g58
I0
sg44
I1591
sg59
g559
sg60
I8
sg38
S'PingPingPingPingPingPingPingPingPingPingPingPing'
p564
sbsg62
Nsg63
I0
sg64
I5
sg65
I4
sg66
I61935
sg59
g556
sg67
I00
sbsg62
Nsg59
Nsg60
I2048
sg67
I00
sbsbag1
(g2
g3
Ntp565
Rp566
(dp567
g7
g97
sg27
g1
(g28
g3
Ntp568
Rp569
(dp570
g32
g35
sg33
g118
sg38
g1
(g39
g3
Ntp571
Rp572
(dp573
g43
I0
sg44
I0
sg45
g123
sg49
I1
sg50
g47
sg51
I0
sg52
I64
sg53
I20
sg38
g1
(g54
g3
Ntp574
Rp575
(dp576
g58
I0
sg44
I0
sg59
g572
sg60
I8
sg38
S'PingPingPingPingPingPingPingPingPingPingPingPing'
p577
sbsg62
Nsg63
I0
sg64
I5
sg65
I4
sg66
I61936
sg59
g569
sg67
I00
sbsg62
Nsg59
Nsg60
I2048
sg67
I00
sbsbag1
(g2
g3
Ntp578
Rp579
(dp580
g7
g72
sg27
g1
(g28
g3
Ntp581
Rp582
(dp583
g32
g75
sg33
g118
sg38
g1
(g39
g3
Ntp584
Rp585
(dp586
g43
I0
sg44
I0
sg45
g123
sg49
I1
sg50
g80
sg51
I0
sg52
I64
sg53
I20
sg38
g1
(g54
g3
Ntp587
Rp588
(dp589
g58
I0
sg44
I0
sg59
g585
sg60
I0
sg38
S'PingPingPingPingPingPingPingPingPingPingPingPing'
p590
sbsg62
Nsg63
I0
sg64
I5
sg65
I4
sg66
I61937
sg59
g582
sg67
I00
sbsg62
Nsg59
Nsg60
I2048
sg67
I00
sbsbag1
(g2
g3
Ntp591
Rp592
(dp593
g7
g97
sg27
g1
(g28
g3
Ntp594
Rp595
(dp596
g32
g35
sg33
g15
sg38
g1
(g39
g3
Ntp597
Rp598
(dp599
g43
I0
sg44
I36548
sg45
g23
sg49
I1
sg50
g47
sg51
I0
sg52
I64
sg53
I72
sg38
g1
(g54
g3
Ntp600
Rp601
(dp602
g58
I0
sg44
I1591
sg59
g598
sg60
I8
sg38
S'PingPingPingPingPingPingPingPingPingPingPingPing'
p603
sbsg62
Nsg63
I0
sg64
I5
sg65
I4
sg66
I61938
sg59
g595
sg67
I00
sbsg62
Nsg59
Nsg60
I2048
sg67
I00
sbsbag1
(g2
g3
Ntp604
Rp605
(dp606
g7
g10
sg27
g1
(g28
g3
Ntp607
Rp608
(dp609
g32
g15
sg33
g75
sg38
g1
(g39
g3
Ntp610
Rp611
(dp612
g43
I0
sg44
I36035
sg45
g80
sg49
I1
sg50
g23
sg51
I0
sg52
I64
sg53
I72
sg38
g1
(g54
g3
Ntp613
Rp614
(dp615
g58
I0
sg44
I1591
sg59
g611
sg60
I8
sg38
S'PingPingPingPingPingPingPingPingPingPingPingPing'
p616
sbsg62
Nsg63
I0
sg64
I5
sg65
I4
sg66
I61939
sg59
g608
sg67
I00
sbsg62
Nsg59
Nsg60
I2048
sg67
I00
sbsbag1
(g2
g3
Ntp617
Rp618
(dp619
g7
g115
sg27
g1
(g28
g3
Ntp620
Rp621
(dp622
g32
g118
sg33
g75
sg38
g1
(g39
g3
Ntp623
Rp624
(dp625
g43
I0
sg44
I0
sg45
g80
sg49
I1
sg50
g123
sg51
I0
sg52
I64
sg53
I20
sg38
g1
(g54
g3
Ntp626
Rp627
(dp628
g58
I0
sg44
I0
sg59
g624
sg60
I8
sg38
S'PingPingPingPingPingPingPingPingPingPingPingPing'
p629
sbsg62
Nsg63
I0
sg64
I5
sg65
I4
sg66
I61940
sg59
g621
sg67
I00
sbsg62
Nsg59
Nsg60
I2048
sg67
I00
sbsbag1
(g2
g3
Ntp630
Rp631
(dp632
g7
g97
sg27
g1
(g28
g3
Ntp633
Rp634
(dp635
g32
g35
sg33
g75
sg38
g1
(g39
g3
Ntp636
Rp637
(dp638
g43
I0
sg44
I36289
sg45
g80
sg49
I1
sg50
g47
sg51
I0
sg52
I64
sg53
I72
sg38
g1
(g54
g3
Ntp639
Rp640
(dp641
g58
I0
sg44
I3639
sg59
g637
sg60
I0
sg38
S'PingPingPingPingPingPingPingPingPingPingPingPing'
p642
sbsg62
Nsg63
I0
sg64
I5
sg65
I4
sg66
I61941
sg59
g634
sg67
I00
sbsg62
Nsg59
Nsg60
I2048
sg67
I00
sbsbag1
(g2
g3
Ntp643
Rp644
(dp645
g7
g10
sg27
g1
(g28
g3
Ntp646
Rp647
(dp648
g32
g15
sg33
g118
sg38
g1
(g39
g3
Ntp649
Rp650
(dp651
g43
I0
sg44
I0
sg45
g123
sg49
I1
sg50
g23
sg51
I0
sg52
I64
sg53
I20
sg38
g1
(g54
g3
Ntp652
Rp653
(dp654
g58
I0
sg44
I0
sg59
g650
sg60
I0
sg38
S'PingPingPingPingPingPingPingPingPingPingPingPing'
p655
sbsg62
Nsg63
I0
sg64
I5
sg65
I4
sg66
I61942
sg59
g647
sg67
I00
sbsg62
Nsg59
Nsg60
I2048
sg67
I00
sbsbag1
(g2
g3
Ntp656
Rp657
(dp658
g7
g115
sg27
g1
(g28
g3
Ntp659
Rp660
(dp661
g32
g118
sg33
g35
sg38
g1
(g39
g3
Ntp662
Rp663
(dp664
g43
I0
sg44
I0
sg45
g47
sg49
I1
sg50
g123
sg51
I0
sg52
I64
sg53
I20
sg38
g1
(g54
g3
Ntp665
Rp666
(dp667
g58
I0
sg44
I0
sg59
g663
sg60
I8
sg38
S'PingPingPingPingPingPingPingPingPingPingPingPing'
p668
sbsg62
Nsg63
I0
sg64
I5
sg65
I4
sg66
I61943
sg59
g660
sg67
I00
sbsg62
Nsg59
Nsg60
I2048
sg67
I00
sbsbag1
(g2
g3
Ntp669
Rp670
(dp671
g7
g115
sg27
g1
(g28
g3
Ntp672
Rp673
(dp674
g32
g118
sg33
g15
sg38
g1
(g39
g3
Ntp675
Rp676
(dp677
g43
I0
sg44
I35774
sg45
g23
sg49
I1
sg50
g123
sg51
I0
sg52
I64
sg53
I72
sg38
g1
(g54
g3
Ntp678
Rp679
(dp680
g58
I0
sg44
I1591
sg59
g676
sg60
I8
sg38
S'PingPingPingPingPingPingPingPingPingPingPingPing'
p681
sbsg62
Nsg63
I0
sg64
I5
sg65
I4
sg66
I61944
sg59
g673
sg67
I00
sbsg62
Nsg59
Nsg60
I2048
sg67
I00
sbsba.